
/home/wm/.gemini/antigravity/playground/UniProger/build/uniproger.elf:     file format elf32-littlearm

Sections:
Idx Name          Size      VMA       LMA       File off  Algn
  0 .boot2        00000100  10000000  10000000  00001000  2**0
                  CONTENTS, ALLOC, LOAD, READONLY, CODE
  1 .text         0000550c  10000100  10000100  00001100  2**3
                  CONTENTS, ALLOC, LOAD, READONLY, CODE
  2 .rodata       00000ec8  10005610  10005610  00006610  2**3
                  CONTENTS, ALLOC, LOAD, READONLY, DATA
  3 .binary_info  00000020  100064d8  100064d8  000074d8  2**2
                  CONTENTS, ALLOC, LOAD, READONLY, DATA
  4 .ram_vector_table 000000c0  20000000  20000000  00009000  2**2
                  ALLOC
  5 .uninitialized_data 00000000  200000c0  200000c0  000088f8  2**0
                  CONTENTS
  6 .data         00000838  200000c0  100064f8  000080c0  2**4
                  CONTENTS, ALLOC, LOAD, READONLY, CODE
  7 .tdata        00000000  200008f8  200008f8  000088f8  2**0
                  CONTENTS, ALLOC, LOAD, DATA, THREAD_LOCAL
  8 .tbss         00000000  200008f8  200008f8  00000000  2**0
                  ALLOC, THREAD_LOCAL
  9 .bss          00001630  200008f8  10006d30  000088f8  2**3
                  ALLOC
 10 .heap         00000800  20001f28  10006d30  00008f28  2**2
                  ALLOC, READONLY
 11 .scratch_x    00000000  20040000  20040000  000088f8  2**0
                  CONTENTS
 12 .scratch_y    00000000  20041000  20041000  000088f8  2**0
                  CONTENTS
 13 .stack_dummy  00000800  20041000  20041000  00009000  2**5
                  ALLOC, READONLY
 14 .ARM.attributes 00000028  00000000  00000000  000088f8  2**0
                  CONTENTS, READONLY
 15 .comment      00000049  00000000  00000000  00008920  2**0
                  CONTENTS, READONLY
 16 .debug_info   00026181  00000000  00000000  00008969  2**0
                  CONTENTS, READONLY, DEBUGGING, OCTETS
 17 .debug_abbrev 000075b0  00000000  00000000  0002eaea  2**0
                  CONTENTS, READONLY, DEBUGGING, OCTETS
 18 .debug_loc    00019c4e  00000000  00000000  0003609a  2**0
                  CONTENTS, READONLY, DEBUGGING, OCTETS
 19 .debug_aranges 00001438  00000000  00000000  0004fce8  2**3
                  CONTENTS, READONLY, DEBUGGING, OCTETS
 20 .debug_ranges 00007b88  00000000  00000000  00051120  2**3
                  CONTENTS, READONLY, DEBUGGING, OCTETS
 21 .debug_line   0001a088  00000000  00000000  00058ca8  2**0
                  CONTENTS, READONLY, DEBUGGING, OCTETS
 22 .debug_str    00006320  00000000  00000000  00072d30  2**0
                  CONTENTS, READONLY, DEBUGGING, OCTETS
 23 .debug_frame  00002a3c  00000000  00000000  00079050  2**2
                  CONTENTS, READONLY, DEBUGGING, OCTETS

/home/wm/.gemini/antigravity/playground/UniProger/build/uniproger.elf:     file format elf32-littlearm


Disassembly of section .boot2:

10000000 <__boot2_start__>:
10000000:	4b32b500 	.word	0x4b32b500
10000004:	60582021 	.word	0x60582021
10000008:	21026898 	.word	0x21026898
1000000c:	60984388 	.word	0x60984388
10000010:	611860d8 	.word	0x611860d8
10000014:	4b2e6158 	.word	0x4b2e6158
10000018:	60992100 	.word	0x60992100
1000001c:	61592102 	.word	0x61592102
10000020:	22f02101 	.word	0x22f02101
10000024:	492b5099 	.word	0x492b5099
10000028:	21016019 	.word	0x21016019
1000002c:	20356099 	.word	0x20356099
10000030:	f844f000 	.word	0xf844f000
10000034:	42902202 	.word	0x42902202
10000038:	2106d014 	.word	0x2106d014
1000003c:	f0006619 	.word	0xf0006619
10000040:	6e19f834 	.word	0x6e19f834
10000044:	66192101 	.word	0x66192101
10000048:	66182000 	.word	0x66182000
1000004c:	f000661a 	.word	0xf000661a
10000050:	6e19f82c 	.word	0x6e19f82c
10000054:	6e196e19 	.word	0x6e196e19
10000058:	f0002005 	.word	0xf0002005
1000005c:	2101f82f 	.word	0x2101f82f
10000060:	d1f94208 	.word	0xd1f94208
10000064:	60992100 	.word	0x60992100
10000068:	6019491b 	.word	0x6019491b
1000006c:	60592100 	.word	0x60592100
10000070:	481b491a 	.word	0x481b491a
10000074:	21016001 	.word	0x21016001
10000078:	21eb6099 	.word	0x21eb6099
1000007c:	21a06619 	.word	0x21a06619
10000080:	f0006619 	.word	0xf0006619
10000084:	2100f812 	.word	0x2100f812
10000088:	49166099 	.word	0x49166099
1000008c:	60014814 	.word	0x60014814
10000090:	60992101 	.word	0x60992101
10000094:	2800bc01 	.word	0x2800bc01
10000098:	4700d000 	.word	0x4700d000
1000009c:	49134812 	.word	0x49134812
100000a0:	c8036008 	.word	0xc8036008
100000a4:	8808f380 	.word	0x8808f380
100000a8:	b5034708 	.word	0xb5034708
100000ac:	20046a99 	.word	0x20046a99
100000b0:	d0fb4201 	.word	0xd0fb4201
100000b4:	42012001 	.word	0x42012001
100000b8:	bd03d1f8 	.word	0xbd03d1f8
100000bc:	6618b502 	.word	0x6618b502
100000c0:	f7ff6618 	.word	0xf7ff6618
100000c4:	6e18fff2 	.word	0x6e18fff2
100000c8:	bd026e18 	.word	0xbd026e18
100000cc:	40020000 	.word	0x40020000
100000d0:	18000000 	.word	0x18000000
100000d4:	00070000 	.word	0x00070000
100000d8:	005f0300 	.word	0x005f0300
100000dc:	00002221 	.word	0x00002221
100000e0:	180000f4 	.word	0x180000f4
100000e4:	a0002022 	.word	0xa0002022
100000e8:	10000100 	.word	0x10000100
100000ec:	e000ed08 	.word	0xe000ed08
	...
100000fc:	7a4eb274 	.word	0x7a4eb274

Disassembly of section .text:

10000100 <__VECTOR_TABLE>:
10000100:	20042000 	.word	0x20042000
10000104:	100001f7 	.word	0x100001f7
10000108:	100001cb 	.word	0x100001cb
1000010c:	100001cd 	.word	0x100001cd
10000110:	100001c9 	.word	0x100001c9
10000114:	100001c9 	.word	0x100001c9
10000118:	100001c9 	.word	0x100001c9
1000011c:	100001c9 	.word	0x100001c9
10000120:	100001c9 	.word	0x100001c9
10000124:	100001c9 	.word	0x100001c9
10000128:	100001c9 	.word	0x100001c9
1000012c:	100001cf 	.word	0x100001cf
10000130:	100001c9 	.word	0x100001c9
10000134:	100001c9 	.word	0x100001c9
10000138:	100001d1 	.word	0x100001d1
1000013c:	100001d3 	.word	0x100001d3
10000140:	100001c1 	.word	0x100001c1
10000144:	100001c1 	.word	0x100001c1
10000148:	100001c1 	.word	0x100001c1
1000014c:	100001c1 	.word	0x100001c1
10000150:	100001c1 	.word	0x100001c1
10000154:	100001c1 	.word	0x100001c1
10000158:	100001c1 	.word	0x100001c1
1000015c:	100001c1 	.word	0x100001c1
10000160:	100001c1 	.word	0x100001c1
10000164:	100001c1 	.word	0x100001c1
10000168:	100001c1 	.word	0x100001c1
1000016c:	100001c1 	.word	0x100001c1
10000170:	100001c1 	.word	0x100001c1
10000174:	100001c1 	.word	0x100001c1
10000178:	100001c1 	.word	0x100001c1
1000017c:	100001c1 	.word	0x100001c1
10000180:	100001c1 	.word	0x100001c1
10000184:	100001c1 	.word	0x100001c1
10000188:	100001c1 	.word	0x100001c1
1000018c:	100001c1 	.word	0x100001c1
10000190:	100001c1 	.word	0x100001c1
10000194:	100001c1 	.word	0x100001c1
10000198:	100001c1 	.word	0x100001c1
1000019c:	100001c1 	.word	0x100001c1
100001a0:	100001c1 	.word	0x100001c1
100001a4:	100001c1 	.word	0x100001c1
100001a8:	100001c1 	.word	0x100001c1
100001ac:	100001c1 	.word	0x100001c1
100001b0:	100001c1 	.word	0x100001c1
100001b4:	100001c1 	.word	0x100001c1
100001b8:	100001c1 	.word	0x100001c1
100001bc:	100001c1 	.word	0x100001c1

100001c0 <__unhandled_user_irq>:
100001c0:	f3ef 8005 	mrs	r0, IPSR
100001c4:	3810      	subs	r0, #16

100001c6 <unhandled_user_irq_num_in_r0>:
100001c6:	be00      	bkpt	0x0000

100001c8 <isr_invalid>:
100001c8:	be00      	bkpt	0x0000

100001ca <isr_nmi>:
100001ca:	be00      	bkpt	0x0000

100001cc <isr_hardfault>:
100001cc:	be00      	bkpt	0x0000

100001ce <isr_svcall>:
100001ce:	be00      	bkpt	0x0000

100001d0 <isr_pendsv>:
100001d0:	be00      	bkpt	0x0000

100001d2 <isr_systick>:
100001d2:	be00      	bkpt	0x0000

100001d4 <__default_isrs_end>:
100001d4:	7188ebf2 	.word	0x7188ebf2
100001d8:	100064d8 	.word	0x100064d8
100001dc:	100064f8 	.word	0x100064f8
100001e0:	10000238 	.word	0x10000238
100001e4:	e71aa390 	.word	0xe71aa390

100001e8 <_entry_point>:
100001e8:	481e      	ldr	r0, [pc, #120]	; (10000264 <data_cpy_table+0x2c>)

100001ea <_enter_vtable_in_r0>:
100001ea:	491f      	ldr	r1, [pc, #124]	; (10000268 <data_cpy_table+0x30>)
100001ec:	6008      	str	r0, [r1, #0]
100001ee:	c806      	ldmia	r0!, {r1, r2}
100001f0:	f381 8808 	msr	MSP, r1
100001f4:	4710      	bx	r2

100001f6 <_reset_handler>:
100001f6:	481d      	ldr	r0, [pc, #116]	; (1000026c <data_cpy_table+0x34>)
100001f8:	6800      	ldr	r0, [r0, #0]
100001fa:	2800      	cmp	r0, #0
100001fc:	d001      	beq.n	10000202 <hold_non_core0_in_bootrom+0x4>

100001fe <hold_non_core0_in_bootrom>:
100001fe:	4819      	ldr	r0, [pc, #100]	; (10000264 <data_cpy_table+0x2c>)
10000200:	e7f3      	b.n	100001ea <_enter_vtable_in_r0>
10000202:	a40d      	add	r4, pc, #52	; (adr r4, 10000238 <data_cpy_table>)
10000204:	cc0e      	ldmia	r4!, {r1, r2, r3}
10000206:	2900      	cmp	r1, #0
10000208:	d002      	beq.n	10000210 <hold_non_core0_in_bootrom+0x12>
1000020a:	f000 f812 	bl	10000232 <data_cpy>
1000020e:	e7f9      	b.n	10000204 <hold_non_core0_in_bootrom+0x6>
10000210:	4917      	ldr	r1, [pc, #92]	; (10000270 <data_cpy_table+0x38>)
10000212:	4a18      	ldr	r2, [pc, #96]	; (10000274 <data_cpy_table+0x3c>)
10000214:	2000      	movs	r0, #0
10000216:	e000      	b.n	1000021a <bss_fill_test>

10000218 <bss_fill_loop>:
10000218:	c101      	stmia	r1!, {r0}

1000021a <bss_fill_test>:
1000021a:	4291      	cmp	r1, r2
1000021c:	d1fc      	bne.n	10000218 <bss_fill_loop>

1000021e <platform_entry>:
1000021e:	4916      	ldr	r1, [pc, #88]	; (10000278 <data_cpy_table+0x40>)
10000220:	4788      	blx	r1
10000222:	4916      	ldr	r1, [pc, #88]	; (1000027c <data_cpy_table+0x44>)
10000224:	4788      	blx	r1
10000226:	4916      	ldr	r1, [pc, #88]	; (10000280 <data_cpy_table+0x48>)
10000228:	4788      	blx	r1
1000022a:	be00      	bkpt	0x0000
1000022c:	e7fd      	b.n	1000022a <platform_entry+0xc>

1000022e <data_cpy_loop>:
1000022e:	c901      	ldmia	r1!, {r0}
10000230:	c201      	stmia	r2!, {r0}

10000232 <data_cpy>:
10000232:	429a      	cmp	r2, r3
10000234:	d3fb      	bcc.n	1000022e <data_cpy_loop>
10000236:	4770      	bx	lr

10000238 <data_cpy_table>:
10000238:	100064f8 	.word	0x100064f8
1000023c:	200000c0 	.word	0x200000c0
10000240:	200008f8 	.word	0x200008f8
10000244:	10006d30 	.word	0x10006d30
10000248:	20040000 	.word	0x20040000
1000024c:	20040000 	.word	0x20040000
10000250:	10006d30 	.word	0x10006d30
10000254:	20041000 	.word	0x20041000
10000258:	20041000 	.word	0x20041000
1000025c:	00000000 	.word	0x00000000
10000260:	4770      	bx	lr
10000262:	0000      	.short	0x0000
10000264:	00000000 	.word	0x00000000
10000268:	e000ed08 	.word	0xe000ed08
1000026c:	d0000000 	.word	0xd0000000
10000270:	200008f8 	.word	0x200008f8
10000274:	20001f28 	.word	0x20001f28
10000278:	10004dd1 	.word	0x10004dd1
1000027c:	100002d1 	.word	0x100002d1
10000280:	10004dc9 	.word	0x10004dc9

10000284 <_init>:
10000284:	b5f8      	push	{r3, r4, r5, r6, r7, lr}
10000286:	46c0      	nop			; (mov r8, r8)

10000288 <__do_global_dtors_aux>:
10000288:	b510      	push	{r4, lr}
1000028a:	4c06      	ldr	r4, [pc, #24]	; (100002a4 <__do_global_dtors_aux+0x1c>)
1000028c:	7823      	ldrb	r3, [r4, #0]
1000028e:	2b00      	cmp	r3, #0
10000290:	d107      	bne.n	100002a2 <__do_global_dtors_aux+0x1a>
10000292:	4b05      	ldr	r3, [pc, #20]	; (100002a8 <__do_global_dtors_aux+0x20>)
10000294:	2b00      	cmp	r3, #0
10000296:	d002      	beq.n	1000029e <__do_global_dtors_aux+0x16>
10000298:	4804      	ldr	r0, [pc, #16]	; (100002ac <__do_global_dtors_aux+0x24>)
1000029a:	e000      	b.n	1000029e <__do_global_dtors_aux+0x16>
1000029c:	bf00      	nop
1000029e:	2301      	movs	r3, #1
100002a0:	7023      	strb	r3, [r4, #0]
100002a2:	bd10      	pop	{r4, pc}
100002a4:	20000a78 	.word	0x20000a78
100002a8:	00000000 	.word	0x00000000
100002ac:	1000560c 	.word	0x1000560c

100002b0 <frame_dummy>:
100002b0:	4b04      	ldr	r3, [pc, #16]	; (100002c4 <frame_dummy+0x14>)
100002b2:	b510      	push	{r4, lr}
100002b4:	2b00      	cmp	r3, #0
100002b6:	d003      	beq.n	100002c0 <frame_dummy+0x10>
100002b8:	4903      	ldr	r1, [pc, #12]	; (100002c8 <frame_dummy+0x18>)
100002ba:	4804      	ldr	r0, [pc, #16]	; (100002cc <frame_dummy+0x1c>)
100002bc:	e000      	b.n	100002c0 <frame_dummy+0x10>
100002be:	bf00      	nop
100002c0:	bd10      	pop	{r4, pc}
100002c2:	46c0      	nop			; (mov r8, r8)
100002c4:	00000000 	.word	0x00000000
100002c8:	20000a7c 	.word	0x20000a7c
100002cc:	1000560c 	.word	0x1000560c

100002d0 <main>:
100002d0:	b5f0      	push	{r4, r5, r6, r7, lr}
100002d2:	46ce      	mov	lr, r9
100002d4:	4647      	mov	r7, r8
100002d6:	b580      	push	{r7, lr}
100002d8:	b08b      	sub	sp, #44	; 0x2c
100002da:	f001 fcf1 	bl	10001cc0 <hal_platform_init>
100002de:	2405      	movs	r4, #5
100002e0:	2501      	movs	r5, #1
100002e2:	0028      	movs	r0, r5
100002e4:	4020      	ands	r0, r4
100002e6:	4240      	negs	r0, r0
100002e8:	4028      	ands	r0, r5
100002ea:	f001 fd1f 	bl	10001d2c <hal_platform_led>
100002ee:	2064      	movs	r0, #100	; 0x64
100002f0:	f001 fd8c 	bl	10001e0c <hal_timer_delay_ms>
100002f4:	3c01      	subs	r4, #1
100002f6:	d2f4      	bcs.n	100002e2 <main+0x12>
100002f8:	2000      	movs	r0, #0
100002fa:	f001 fd17 	bl	10001d2c <hal_platform_led>
100002fe:	4e33      	ldr	r6, [pc, #204]	; (100003cc <main+0xfc>)
10000300:	4b33      	ldr	r3, [pc, #204]	; (100003d0 <main+0x100>)
10000302:	4a34      	ldr	r2, [pc, #208]	; (100003d4 <main+0x104>)
10000304:	0031      	movs	r1, r6
10000306:	2002      	movs	r0, #2
10000308:	9300      	str	r3, [sp, #0]
1000030a:	4b33      	ldr	r3, [pc, #204]	; (100003d8 <main+0x108>)
1000030c:	f001 f9bc 	bl	10001688 <up_log_output>
10000310:	f001 fce4 	bl	10001cdc <hal_platform_name>
10000314:	0004      	movs	r4, r0
10000316:	f001 fcfb 	bl	10001d10 <hal_platform_get_clock_hz>
1000031a:	4930      	ldr	r1, [pc, #192]	; (100003dc <main+0x10c>)
1000031c:	f002 fd3c 	bl	10002d98 <__wrap___aeabi_uidiv>
10000320:	0023      	movs	r3, r4
10000322:	0031      	movs	r1, r6
10000324:	4a2e      	ldr	r2, [pc, #184]	; (100003e0 <main+0x110>)
10000326:	9000      	str	r0, [sp, #0]
10000328:	2002      	movs	r0, #2
1000032a:	f001 f9ad 	bl	10001688 <up_log_output>
1000032e:	2108      	movs	r1, #8
10000330:	a803      	add	r0, sp, #12
10000332:	f001 fcd7 	bl	10001ce4 <hal_platform_get_chip_id>
10000336:	1e07      	subs	r7, r0, #0
10000338:	d021      	beq.n	1000037e <main+0xae>
1000033a:	2100      	movs	r1, #0
1000033c:	ab05      	add	r3, sp, #20
1000033e:	2210      	movs	r2, #16
10000340:	a806      	add	r0, sp, #24
10000342:	4698      	mov	r8, r3
10000344:	9105      	str	r1, [sp, #20]
10000346:	f003 fb95 	bl	10003a74 <__wrap_memset>
1000034a:	230b      	movs	r3, #11
1000034c:	446b      	add	r3, sp
1000034e:	469c      	mov	ip, r3
10000350:	4b24      	ldr	r3, [pc, #144]	; (100003e4 <main+0x114>)
10000352:	4645      	mov	r5, r8
10000354:	4699      	mov	r9, r3
10000356:	ac03      	add	r4, sp, #12
10000358:	4467      	add	r7, ip
1000035a:	464a      	mov	r2, r9
1000035c:	2103      	movs	r1, #3
1000035e:	0028      	movs	r0, r5
10000360:	7823      	ldrb	r3, [r4, #0]
10000362:	f004 fcf3 	bl	10004d4c <__wrap_snprintf>
10000366:	42bc      	cmp	r4, r7
10000368:	d003      	beq.n	10000372 <main+0xa2>
1000036a:	3401      	adds	r4, #1
1000036c:	3502      	adds	r5, #2
1000036e:	45a0      	cmp	r8, r4
10000370:	d1f3      	bne.n	1000035a <main+0x8a>
10000372:	4643      	mov	r3, r8
10000374:	0031      	movs	r1, r6
10000376:	2002      	movs	r0, #2
10000378:	4a1b      	ldr	r2, [pc, #108]	; (100003e8 <main+0x118>)
1000037a:	f001 f985 	bl	10001688 <up_log_output>
1000037e:	f000 f841 	bl	10000404 <up_device_registry_init>
10000382:	481a      	ldr	r0, [pc, #104]	; (100003ec <main+0x11c>)
10000384:	f000 f84e 	bl	10000424 <up_device_register>
10000388:	4819      	ldr	r0, [pc, #100]	; (100003f0 <main+0x120>)
1000038a:	f000 f84b 	bl	10000424 <up_device_register>
1000038e:	4819      	ldr	r0, [pc, #100]	; (100003f4 <main+0x124>)
10000390:	f000 f848 	bl	10000424 <up_device_register>
10000394:	4818      	ldr	r0, [pc, #96]	; (100003f8 <main+0x128>)
10000396:	f000 f845 	bl	10000424 <up_device_register>
1000039a:	f000 f889 	bl	100004b0 <up_device_count>
1000039e:	0031      	movs	r1, r6
100003a0:	0003      	movs	r3, r0
100003a2:	4a16      	ldr	r2, [pc, #88]	; (100003fc <main+0x12c>)
100003a4:	2002      	movs	r0, #2
100003a6:	f001 f96f 	bl	10001688 <up_log_output>
100003aa:	f001 f9a5 	bl	100016f8 <cli_init>
100003ae:	f001 fc79 	bl	10001ca4 <commands_register_all>
100003b2:	0031      	movs	r1, r6
100003b4:	2002      	movs	r0, #2
100003b6:	4a12      	ldr	r2, [pc, #72]	; (10000400 <main+0x130>)
100003b8:	f001 f966 	bl	10001688 <up_log_output>
100003bc:	f001 fa88 	bl	100018d0 <cli_run>
100003c0:	2000      	movs	r0, #0
100003c2:	b00b      	add	sp, #44	; 0x2c
100003c4:	bcc0      	pop	{r6, r7}
100003c6:	46b9      	mov	r9, r7
100003c8:	46b0      	mov	r8, r6
100003ca:	bdf0      	pop	{r4, r5, r6, r7, pc}
100003cc:	1000562c 	.word	0x1000562c
100003d0:	10005634 	.word	0x10005634
100003d4:	1000561c 	.word	0x1000561c
100003d8:	10005610 	.word	0x10005610
100003dc:	000f4240 	.word	0x000f4240
100003e0:	10005640 	.word	0x10005640
100003e4:	100056b0 	.word	0x100056b0
100003e8:	10005658 	.word	0x10005658
100003ec:	1000578c 	.word	0x1000578c
100003f0:	100057d8 	.word	0x100057d8
100003f4:	100058ac 	.word	0x100058ac
100003f8:	100059fc 	.word	0x100059fc
100003fc:	10005664 	.word	0x10005664
10000400:	10005684 	.word	0x10005684

10000404 <up_device_registry_init>:
10000404:	2280      	movs	r2, #128	; 0x80
10000406:	b510      	push	{r4, lr}
10000408:	2100      	movs	r1, #0
1000040a:	4804      	ldr	r0, [pc, #16]	; (1000041c <up_device_registry_init+0x18>)
1000040c:	f003 fb32 	bl	10003a74 <__wrap_memset>
10000410:	2200      	movs	r2, #0
10000412:	4b03      	ldr	r3, [pc, #12]	; (10000420 <up_device_registry_init+0x1c>)
10000414:	2000      	movs	r0, #0
10000416:	601a      	str	r2, [r3, #0]
10000418:	bd10      	pop	{r4, pc}
1000041a:	46c0      	nop			; (mov r8, r8)
1000041c:	20001c8c 	.word	0x20001c8c
10000420:	20000c78 	.word	0x20000c78

10000424 <up_device_register>:
10000424:	b5f8      	push	{r3, r4, r5, r6, r7, lr}
10000426:	4657      	mov	r7, sl
10000428:	46de      	mov	lr, fp
1000042a:	464e      	mov	r6, r9
1000042c:	4645      	mov	r5, r8
1000042e:	b5e0      	push	{r5, r6, r7, lr}
10000430:	1e07      	subs	r7, r0, #0
10000432:	d035      	beq.n	100004a0 <up_device_register+0x7c>
10000434:	6805      	ldr	r5, [r0, #0]
10000436:	2d00      	cmp	r5, #0
10000438:	d032      	beq.n	100004a0 <up_device_register+0x7c>
1000043a:	4b1b      	ldr	r3, [pc, #108]	; (100004a8 <up_device_register+0x84>)
1000043c:	469a      	mov	sl, r3
1000043e:	681b      	ldr	r3, [r3, #0]
10000440:	4698      	mov	r8, r3
10000442:	2b1f      	cmp	r3, #31
10000444:	d829      	bhi.n	1000049a <up_device_register+0x76>
10000446:	2b00      	cmp	r3, #0
10000448:	d015      	beq.n	10000476 <up_device_register+0x52>
1000044a:	4b18      	ldr	r3, [pc, #96]	; (100004ac <up_device_register+0x88>)
1000044c:	4699      	mov	r9, r3
1000044e:	001c      	movs	r4, r3
10000450:	4643      	mov	r3, r8
10000452:	009b      	lsls	r3, r3, #2
10000454:	469b      	mov	fp, r3
10000456:	464e      	mov	r6, r9
10000458:	445e      	add	r6, fp
1000045a:	e002      	b.n	10000462 <up_device_register+0x3e>
1000045c:	3404      	adds	r4, #4
1000045e:	42b4      	cmp	r4, r6
10000460:	d00d      	beq.n	1000047e <up_device_register+0x5a>
10000462:	6823      	ldr	r3, [r4, #0]
10000464:	0029      	movs	r1, r5
10000466:	6818      	ldr	r0, [r3, #0]
10000468:	f004 ff0a 	bl	10005280 <strcmp>
1000046c:	2800      	cmp	r0, #0
1000046e:	d1f5      	bne.n	1000045c <up_device_register+0x38>
10000470:	2003      	movs	r0, #3
10000472:	4240      	negs	r0, r0
10000474:	e00b      	b.n	1000048e <up_device_register+0x6a>
10000476:	4b0d      	ldr	r3, [pc, #52]	; (100004ac <up_device_register+0x88>)
10000478:	4699      	mov	r9, r3
1000047a:	2300      	movs	r3, #0
1000047c:	469b      	mov	fp, r3
1000047e:	4643      	mov	r3, r8
10000480:	4652      	mov	r2, sl
10000482:	3301      	adds	r3, #1
10000484:	6013      	str	r3, [r2, #0]
10000486:	464b      	mov	r3, r9
10000488:	465a      	mov	r2, fp
1000048a:	2000      	movs	r0, #0
1000048c:	509f      	str	r7, [r3, r2]
1000048e:	bcf0      	pop	{r4, r5, r6, r7}
10000490:	46bb      	mov	fp, r7
10000492:	46b2      	mov	sl, r6
10000494:	46a9      	mov	r9, r5
10000496:	46a0      	mov	r8, r4
10000498:	bdf8      	pop	{r3, r4, r5, r6, r7, pc}
1000049a:	200d      	movs	r0, #13
1000049c:	4240      	negs	r0, r0
1000049e:	e7f6      	b.n	1000048e <up_device_register+0x6a>
100004a0:	2005      	movs	r0, #5
100004a2:	4240      	negs	r0, r0
100004a4:	e7f3      	b.n	1000048e <up_device_register+0x6a>
100004a6:	46c0      	nop			; (mov r8, r8)
100004a8:	20000c78 	.word	0x20000c78
100004ac:	20001c8c 	.word	0x20001c8c

100004b0 <up_device_count>:
100004b0:	4b01      	ldr	r3, [pc, #4]	; (100004b8 <up_device_count+0x8>)
100004b2:	6818      	ldr	r0, [r3, #0]
100004b4:	4770      	bx	lr
100004b6:	46c0      	nop			; (mov r8, r8)
100004b8:	20000c78 	.word	0x20000c78

100004bc <up_device_get>:
100004bc:	4b04      	ldr	r3, [pc, #16]	; (100004d0 <up_device_get+0x14>)
100004be:	681b      	ldr	r3, [r3, #0]
100004c0:	4283      	cmp	r3, r0
100004c2:	d903      	bls.n	100004cc <up_device_get+0x10>
100004c4:	4b03      	ldr	r3, [pc, #12]	; (100004d4 <up_device_get+0x18>)
100004c6:	0080      	lsls	r0, r0, #2
100004c8:	58c0      	ldr	r0, [r0, r3]
100004ca:	4770      	bx	lr
100004cc:	2000      	movs	r0, #0
100004ce:	e7fc      	b.n	100004ca <up_device_get+0xe>
100004d0:	20000c78 	.word	0x20000c78
100004d4:	20001c8c 	.word	0x20001c8c

100004d8 <spi_flash_deinit>:
100004d8:	236c      	movs	r3, #108	; 0x6c
100004da:	2200      	movs	r2, #0
100004dc:	54c2      	strb	r2, [r0, r3]
100004de:	2000      	movs	r0, #0
100004e0:	4770      	bx	lr
100004e2:	46c0      	nop			; (mov r8, r8)

100004e4 <spi_flash_detect>:
100004e4:	b5f0      	push	{r4, r5, r6, r7, lr}
100004e6:	464f      	mov	r7, r9
100004e8:	4646      	mov	r6, r8
100004ea:	46d6      	mov	lr, sl
100004ec:	210b      	movs	r1, #11
100004ee:	239f      	movs	r3, #159	; 0x9f
100004f0:	b5c0      	push	{r6, r7, lr}
100004f2:	b084      	sub	sp, #16
100004f4:	4469      	add	r1, sp
100004f6:	700b      	strb	r3, [r1, #0]
100004f8:	4b38      	ldr	r3, [pc, #224]	; (100005dc <spi_flash_detect+0xf8>)
100004fa:	ae03      	add	r6, sp, #12
100004fc:	881b      	ldrh	r3, [r3, #0]
100004fe:	0007      	movs	r7, r0
10000500:	8033      	strh	r3, [r6, #0]
10000502:	2300      	movs	r3, #0
10000504:	6840      	ldr	r0, [r0, #4]
10000506:	70b3      	strb	r3, [r6, #2]
10000508:	2800      	cmp	r0, #0
1000050a:	d05f      	beq.n	100005cc <spi_flash_detect+0xe8>
1000050c:	7b03      	ldrb	r3, [r0, #12]
1000050e:	2b00      	cmp	r3, #0
10000510:	d05c      	beq.n	100005cc <spi_flash_detect+0xe8>
10000512:	6803      	ldr	r3, [r0, #0]
10000514:	695c      	ldr	r4, [r3, #20]
10000516:	2c00      	cmp	r4, #0
10000518:	d058      	beq.n	100005cc <spi_flash_detect+0xe8>
1000051a:	2303      	movs	r3, #3
1000051c:	2201      	movs	r2, #1
1000051e:	9300      	str	r3, [sp, #0]
10000520:	0033      	movs	r3, r6
10000522:	47a0      	blx	r4
10000524:	4680      	mov	r8, r0
10000526:	2800      	cmp	r0, #0
10000528:	d134      	bne.n	10000594 <spi_flash_detect+0xb0>
1000052a:	7872      	ldrb	r2, [r6, #1]
1000052c:	7833      	ldrb	r3, [r6, #0]
1000052e:	4694      	mov	ip, r2
10000530:	78b2      	ldrb	r2, [r6, #2]
10000532:	0418      	lsls	r0, r3, #16
10000534:	4692      	mov	sl, r2
10000536:	4662      	mov	r2, ip
10000538:	0212      	lsls	r2, r2, #8
1000053a:	4310      	orrs	r0, r2
1000053c:	4652      	mov	r2, sl
1000053e:	4310      	orrs	r0, r2
10000540:	d048      	beq.n	100005d4 <spi_flash_detect+0xf0>
10000542:	4a27      	ldr	r2, [pc, #156]	; (100005e0 <spi_flash_detect+0xfc>)
10000544:	4290      	cmp	r0, r2
10000546:	d045      	beq.n	100005d4 <spi_flash_detect+0xf0>
10000548:	2248      	movs	r2, #72	; 0x48
1000054a:	2101      	movs	r1, #1
1000054c:	6538      	str	r0, [r7, #80]	; 0x50
1000054e:	54b9      	strb	r1, [r7, r2]
10000550:	3a29      	subs	r2, #41	; 0x29
10000552:	64fa      	str	r2, [r7, #76]	; 0x4c
10000554:	32e1      	adds	r2, #225	; 0xe1
10000556:	65ba      	str	r2, [r7, #88]	; 0x58
10000558:	2280      	movs	r2, #128	; 0x80
1000055a:	0152      	lsls	r2, r2, #5
1000055c:	65fa      	str	r2, [r7, #92]	; 0x5c
1000055e:	4a21      	ldr	r2, [pc, #132]	; (100005e4 <spi_flash_detect+0x100>)
10000560:	2400      	movs	r4, #0
10000562:	4691      	mov	r9, r2
10000564:	4920      	ldr	r1, [pc, #128]	; (100005e8 <spi_flash_detect+0x104>)
10000566:	4d21      	ldr	r5, [pc, #132]	; (100005ec <spi_flash_detect+0x108>)
10000568:	320c      	adds	r2, #12
1000056a:	e005      	b.n	10000578 <spi_flash_detect+0x94>
1000056c:	6855      	ldr	r5, [r2, #4]
1000056e:	3401      	adds	r4, #1
10000570:	2d00      	cmp	r5, #0
10000572:	d016      	beq.n	100005a2 <spi_flash_detect+0xbe>
10000574:	6811      	ldr	r1, [r2, #0]
10000576:	320c      	adds	r2, #12
10000578:	4288      	cmp	r0, r1
1000057a:	d1f7      	bne.n	1000056c <spi_flash_detect+0x88>
1000057c:	0038      	movs	r0, r7
1000057e:	223f      	movs	r2, #63	; 0x3f
10000580:	0029      	movs	r1, r5
10000582:	3008      	adds	r0, #8
10000584:	f004 feee 	bl	10005364 <strncpy>
10000588:	0063      	lsls	r3, r4, #1
1000058a:	191c      	adds	r4, r3, r4
1000058c:	00a4      	lsls	r4, r4, #2
1000058e:	444c      	add	r4, r9
10000590:	68a3      	ldr	r3, [r4, #8]
10000592:	657b      	str	r3, [r7, #84]	; 0x54
10000594:	4640      	mov	r0, r8
10000596:	b004      	add	sp, #16
10000598:	bce0      	pop	{r5, r6, r7}
1000059a:	46ba      	mov	sl, r7
1000059c:	46b1      	mov	r9, r6
1000059e:	46a8      	mov	r8, r5
100005a0:	bdf0      	pop	{r4, r5, r6, r7, pc}
100005a2:	4652      	mov	r2, sl
100005a4:	0038      	movs	r0, r7
100005a6:	9201      	str	r2, [sp, #4]
100005a8:	4662      	mov	r2, ip
100005aa:	2140      	movs	r1, #64	; 0x40
100005ac:	9200      	str	r2, [sp, #0]
100005ae:	3008      	adds	r0, #8
100005b0:	4a0f      	ldr	r2, [pc, #60]	; (100005f0 <spi_flash_detect+0x10c>)
100005b2:	f004 fbcb 	bl	10004d4c <__wrap_snprintf>
100005b6:	78b3      	ldrb	r3, [r6, #2]
100005b8:	001a      	movs	r2, r3
100005ba:	3a10      	subs	r2, #16
100005bc:	2a10      	cmp	r2, #16
100005be:	d803      	bhi.n	100005c8 <spi_flash_detect+0xe4>
100005c0:	2201      	movs	r2, #1
100005c2:	409a      	lsls	r2, r3
100005c4:	657a      	str	r2, [r7, #84]	; 0x54
100005c6:	e7e5      	b.n	10000594 <spi_flash_detect+0xb0>
100005c8:	657d      	str	r5, [r7, #84]	; 0x54
100005ca:	e7e3      	b.n	10000594 <spi_flash_detect+0xb0>
100005cc:	2305      	movs	r3, #5
100005ce:	425b      	negs	r3, r3
100005d0:	4698      	mov	r8, r3
100005d2:	e7df      	b.n	10000594 <spi_flash_detect+0xb0>
100005d4:	230c      	movs	r3, #12
100005d6:	425b      	negs	r3, r3
100005d8:	4698      	mov	r8, r3
100005da:	e7db      	b.n	10000594 <spi_flash_detect+0xb0>
100005dc:	10005710 	.word	0x10005710
100005e0:	00ffffff 	.word	0x00ffffff
100005e4:	10005714 	.word	0x10005714
100005e8:	00ef4015 	.word	0x00ef4015
100005ec:	10005694 	.word	0x10005694
100005f0:	1000569c 	.word	0x1000569c

100005f4 <flash_wait_ready>:
100005f4:	b5f0      	push	{r4, r5, r6, r7, lr}
100005f6:	46de      	mov	lr, fp
100005f8:	4657      	mov	r7, sl
100005fa:	464e      	mov	r6, r9
100005fc:	4645      	mov	r5, r8
100005fe:	b5e0      	push	{r5, r6, r7, lr}
10000600:	b089      	sub	sp, #36	; 0x24
10000602:	000d      	movs	r5, r1
10000604:	0004      	movs	r4, r0
10000606:	f001 fc05 	bl	10001e14 <hal_timer_get_us>
1000060a:	22fa      	movs	r2, #250	; 0xfa
1000060c:	2300      	movs	r3, #0
1000060e:	9002      	str	r0, [sp, #8]
10000610:	9103      	str	r1, [sp, #12]
10000612:	0028      	movs	r0, r5
10000614:	2100      	movs	r1, #0
10000616:	0092      	lsls	r2, r2, #2
10000618:	f003 f9c6 	bl	100039a8 <__wrap___aeabi_lmul>
1000061c:	ab04      	add	r3, sp, #16
1000061e:	469c      	mov	ip, r3
10000620:	270e      	movs	r7, #14
10000622:	2305      	movs	r3, #5
10000624:	250f      	movs	r5, #15
10000626:	4467      	add	r7, ip
10000628:	703b      	strb	r3, [r7, #0]
1000062a:	23ff      	movs	r3, #255	; 0xff
1000062c:	4465      	add	r5, ip
1000062e:	4689      	mov	r9, r1
10000630:	9005      	str	r0, [sp, #20]
10000632:	702b      	strb	r3, [r5, #0]
10000634:	2c00      	cmp	r4, #0
10000636:	d038      	beq.n	100006aa <flash_wait_ready+0xb6>
10000638:	3bfe      	subs	r3, #254	; 0xfe
1000063a:	4698      	mov	r8, r3
1000063c:	3304      	adds	r3, #4
1000063e:	469b      	mov	fp, r3
10000640:	33fa      	adds	r3, #250	; 0xfa
10000642:	469a      	mov	sl, r3
10000644:	e00e      	b.n	10000664 <flash_wait_ready+0x70>
10000646:	f001 fbe5 	bl	10001e14 <hal_timer_get_us>
1000064a:	9a02      	ldr	r2, [sp, #8]
1000064c:	9b03      	ldr	r3, [sp, #12]
1000064e:	1a80      	subs	r0, r0, r2
10000650:	4199      	sbcs	r1, r3
10000652:	4589      	cmp	r9, r1
10000654:	d921      	bls.n	1000069a <flash_wait_ready+0xa6>
10000656:	2064      	movs	r0, #100	; 0x64
10000658:	f001 fbd4 	bl	10001e04 <hal_timer_delay_us>
1000065c:	465b      	mov	r3, fp
1000065e:	703b      	strb	r3, [r7, #0]
10000660:	4653      	mov	r3, sl
10000662:	702b      	strb	r3, [r5, #0]
10000664:	7b23      	ldrb	r3, [r4, #12]
10000666:	2b00      	cmp	r3, #0
10000668:	d01f      	beq.n	100006aa <flash_wait_ready+0xb6>
1000066a:	6823      	ldr	r3, [r4, #0]
1000066c:	695e      	ldr	r6, [r3, #20]
1000066e:	2e00      	cmp	r6, #0
10000670:	d01b      	beq.n	100006aa <flash_wait_ready+0xb6>
10000672:	4643      	mov	r3, r8
10000674:	2201      	movs	r2, #1
10000676:	9300      	str	r3, [sp, #0]
10000678:	0039      	movs	r1, r7
1000067a:	002b      	movs	r3, r5
1000067c:	0020      	movs	r0, r4
1000067e:	47b0      	blx	r6
10000680:	2800      	cmp	r0, #0
10000682:	d103      	bne.n	1000068c <flash_wait_ready+0x98>
10000684:	4642      	mov	r2, r8
10000686:	782b      	ldrb	r3, [r5, #0]
10000688:	421a      	tst	r2, r3
1000068a:	d1dc      	bne.n	10000646 <flash_wait_ready+0x52>
1000068c:	b009      	add	sp, #36	; 0x24
1000068e:	bcf0      	pop	{r4, r5, r6, r7}
10000690:	46bb      	mov	fp, r7
10000692:	46b2      	mov	sl, r6
10000694:	46a9      	mov	r9, r5
10000696:	46a0      	mov	r8, r4
10000698:	bdf0      	pop	{r4, r5, r6, r7, pc}
1000069a:	4589      	cmp	r9, r1
1000069c:	d102      	bne.n	100006a4 <flash_wait_ready+0xb0>
1000069e:	9b05      	ldr	r3, [sp, #20]
100006a0:	4283      	cmp	r3, r0
100006a2:	d8d8      	bhi.n	10000656 <flash_wait_ready+0x62>
100006a4:	2002      	movs	r0, #2
100006a6:	4240      	negs	r0, r0
100006a8:	e7f0      	b.n	1000068c <flash_wait_ready+0x98>
100006aa:	2005      	movs	r0, #5
100006ac:	4240      	negs	r0, r0
100006ae:	e7ed      	b.n	1000068c <flash_wait_ready+0x98>

100006b0 <spi_flash_read>:
100006b0:	b5f0      	push	{r4, r5, r6, r7, lr}
100006b2:	46de      	mov	lr, fp
100006b4:	4657      	mov	r7, sl
100006b6:	464e      	mov	r6, r9
100006b8:	4645      	mov	r5, r8
100006ba:	b5e0      	push	{r5, r6, r7, lr}
100006bc:	4682      	mov	sl, r0
100006be:	4689      	mov	r9, r1
100006c0:	4693      	mov	fp, r2
100006c2:	b085      	sub	sp, #20
100006c4:	2b00      	cmp	r3, #0
100006c6:	d02f      	beq.n	10000728 <spi_flash_read+0x78>
100006c8:	2400      	movs	r4, #0
100006ca:	4698      	mov	r8, r3
100006cc:	ad03      	add	r5, sp, #12
100006ce:	4643      	mov	r3, r8
100006d0:	1b1e      	subs	r6, r3, r4
100006d2:	2380      	movs	r3, #128	; 0x80
100006d4:	015b      	lsls	r3, r3, #5
100006d6:	429e      	cmp	r6, r3
100006d8:	d900      	bls.n	100006dc <spi_flash_read+0x2c>
100006da:	001e      	movs	r6, r3
100006dc:	464b      	mov	r3, r9
100006de:	2203      	movs	r2, #3
100006e0:	191b      	adds	r3, r3, r4
100006e2:	702a      	strb	r2, [r5, #0]
100006e4:	0c1a      	lsrs	r2, r3, #16
100006e6:	706a      	strb	r2, [r5, #1]
100006e8:	70eb      	strb	r3, [r5, #3]
100006ea:	0a1a      	lsrs	r2, r3, #8
100006ec:	4653      	mov	r3, sl
100006ee:	6858      	ldr	r0, [r3, #4]
100006f0:	465b      	mov	r3, fp
100006f2:	70aa      	strb	r2, [r5, #2]
100006f4:	191b      	adds	r3, r3, r4
100006f6:	2800      	cmp	r0, #0
100006f8:	d01e      	beq.n	10000738 <spi_flash_read+0x88>
100006fa:	7b02      	ldrb	r2, [r0, #12]
100006fc:	2a00      	cmp	r2, #0
100006fe:	d01b      	beq.n	10000738 <spi_flash_read+0x88>
10000700:	6802      	ldr	r2, [r0, #0]
10000702:	6957      	ldr	r7, [r2, #20]
10000704:	2f00      	cmp	r7, #0
10000706:	d017      	beq.n	10000738 <spi_flash_read+0x88>
10000708:	2204      	movs	r2, #4
1000070a:	0029      	movs	r1, r5
1000070c:	9600      	str	r6, [sp, #0]
1000070e:	47b8      	blx	r7
10000710:	2800      	cmp	r0, #0
10000712:	d10a      	bne.n	1000072a <spi_flash_read+0x7a>
10000714:	9b0e      	ldr	r3, [sp, #56]	; 0x38
10000716:	19a4      	adds	r4, r4, r6
10000718:	2b00      	cmp	r3, #0
1000071a:	d003      	beq.n	10000724 <spi_flash_read+0x74>
1000071c:	4641      	mov	r1, r8
1000071e:	0020      	movs	r0, r4
10000720:	9a0f      	ldr	r2, [sp, #60]	; 0x3c
10000722:	4798      	blx	r3
10000724:	45a0      	cmp	r8, r4
10000726:	d8d2      	bhi.n	100006ce <spi_flash_read+0x1e>
10000728:	2000      	movs	r0, #0
1000072a:	b005      	add	sp, #20
1000072c:	bcf0      	pop	{r4, r5, r6, r7}
1000072e:	46bb      	mov	fp, r7
10000730:	46b2      	mov	sl, r6
10000732:	46a9      	mov	r9, r5
10000734:	46a0      	mov	r8, r4
10000736:	bdf0      	pop	{r4, r5, r6, r7, pc}
10000738:	2005      	movs	r0, #5
1000073a:	4240      	negs	r0, r0
1000073c:	e7f5      	b.n	1000072a <spi_flash_read+0x7a>
1000073e:	46c0      	nop			; (mov r8, r8)

10000740 <spi_flash_verify>:
10000740:	b5f0      	push	{r4, r5, r6, r7, lr}
10000742:	464e      	mov	r6, r9
10000744:	4657      	mov	r7, sl
10000746:	4645      	mov	r5, r8
10000748:	46de      	mov	lr, fp
1000074a:	b5e0      	push	{r5, r6, r7, lr}
1000074c:	4681      	mov	r9, r0
1000074e:	468a      	mov	sl, r1
10000750:	4690      	mov	r8, r2
10000752:	001e      	movs	r6, r3
10000754:	b0c3      	sub	sp, #268	; 0x10c
10000756:	2b00      	cmp	r3, #0
10000758:	d02e      	beq.n	100007b8 <spi_flash_verify+0x78>
1000075a:	2380      	movs	r3, #128	; 0x80
1000075c:	005b      	lsls	r3, r3, #1
1000075e:	2400      	movs	r4, #0
10000760:	469b      	mov	fp, r3
10000762:	2700      	movs	r7, #0
10000764:	e011      	b.n	1000078a <spi_flash_verify+0x4a>
10000766:	4643      	mov	r3, r8
10000768:	002a      	movs	r2, r5
1000076a:	1919      	adds	r1, r3, r4
1000076c:	a802      	add	r0, sp, #8
1000076e:	f004 fd63 	bl	10005238 <memcmp>
10000772:	2800      	cmp	r0, #0
10000774:	d122      	bne.n	100007bc <spi_flash_verify+0x7c>
10000776:	9b4c      	ldr	r3, [sp, #304]	; 0x130
10000778:	1964      	adds	r4, r4, r5
1000077a:	2b00      	cmp	r3, #0
1000077c:	d003      	beq.n	10000786 <spi_flash_verify+0x46>
1000077e:	0031      	movs	r1, r6
10000780:	0020      	movs	r0, r4
10000782:	9a4d      	ldr	r2, [sp, #308]	; 0x134
10000784:	4798      	blx	r3
10000786:	42a6      	cmp	r6, r4
10000788:	d916      	bls.n	100007b8 <spi_flash_verify+0x78>
1000078a:	1b35      	subs	r5, r6, r4
1000078c:	455d      	cmp	r5, fp
1000078e:	d901      	bls.n	10000794 <spi_flash_verify+0x54>
10000790:	2580      	movs	r5, #128	; 0x80
10000792:	006d      	lsls	r5, r5, #1
10000794:	4653      	mov	r3, sl
10000796:	4648      	mov	r0, r9
10000798:	1919      	adds	r1, r3, r4
1000079a:	9701      	str	r7, [sp, #4]
1000079c:	002b      	movs	r3, r5
1000079e:	9700      	str	r7, [sp, #0]
100007a0:	aa02      	add	r2, sp, #8
100007a2:	f7ff ff85 	bl	100006b0 <spi_flash_read>
100007a6:	2800      	cmp	r0, #0
100007a8:	d0dd      	beq.n	10000766 <spi_flash_verify+0x26>
100007aa:	b043      	add	sp, #268	; 0x10c
100007ac:	bcf0      	pop	{r4, r5, r6, r7}
100007ae:	46bb      	mov	fp, r7
100007b0:	46b2      	mov	sl, r6
100007b2:	46a9      	mov	r9, r5
100007b4:	46a0      	mov	r8, r4
100007b6:	bdf0      	pop	{r4, r5, r6, r7, pc}
100007b8:	2000      	movs	r0, #0
100007ba:	e7f6      	b.n	100007aa <spi_flash_verify+0x6a>
100007bc:	200a      	movs	r0, #10
100007be:	4240      	negs	r0, r0
100007c0:	e7f3      	b.n	100007aa <spi_flash_verify+0x6a>
100007c2:	46c0      	nop			; (mov r8, r8)

100007c4 <spi_flash_write>:
100007c4:	b5f0      	push	{r4, r5, r6, r7, lr}
100007c6:	464e      	mov	r6, r9
100007c8:	4645      	mov	r5, r8
100007ca:	46de      	mov	lr, fp
100007cc:	4657      	mov	r7, sl
100007ce:	b5e0      	push	{r5, r6, r7, lr}
100007d0:	b0c7      	sub	sp, #284	; 0x11c
100007d2:	4680      	mov	r8, r0
100007d4:	4699      	mov	r9, r3
100007d6:	9102      	str	r1, [sp, #8]
100007d8:	9203      	str	r2, [sp, #12]
100007da:	2b00      	cmp	r3, #0
100007dc:	d05f      	beq.n	1000089e <spi_flash_write+0xda>
100007de:	2300      	movs	r3, #0
100007e0:	2600      	movs	r6, #0
100007e2:	469b      	mov	fp, r3
100007e4:	ad05      	add	r5, sp, #20
100007e6:	e009      	b.n	100007fc <spi_flash_write+0x38>
100007e8:	9b50      	ldr	r3, [sp, #320]	; 0x140
100007ea:	1936      	adds	r6, r6, r4
100007ec:	2b00      	cmp	r3, #0
100007ee:	d003      	beq.n	100007f8 <spi_flash_write+0x34>
100007f0:	4649      	mov	r1, r9
100007f2:	0030      	movs	r0, r6
100007f4:	9a51      	ldr	r2, [sp, #324]	; 0x144
100007f6:	4798      	blx	r3
100007f8:	45b1      	cmp	r9, r6
100007fa:	d950      	bls.n	1000089e <spi_flash_write+0xda>
100007fc:	9b02      	ldr	r3, [sp, #8]
100007fe:	18f7      	adds	r7, r6, r3
10000800:	4643      	mov	r3, r8
10000802:	6d9c      	ldr	r4, [r3, #88]	; 0x58
10000804:	0038      	movs	r0, r7
10000806:	0021      	movs	r1, r4
10000808:	f002 fac6 	bl	10002d98 <__wrap___aeabi_uidiv>
1000080c:	464b      	mov	r3, r9
1000080e:	1a64      	subs	r4, r4, r1
10000810:	1b9b      	subs	r3, r3, r6
10000812:	429c      	cmp	r4, r3
10000814:	d900      	bls.n	10000818 <spi_flash_write+0x54>
10000816:	001c      	movs	r4, r3
10000818:	4643      	mov	r3, r8
1000081a:	6858      	ldr	r0, [r3, #4]
1000081c:	2306      	movs	r3, #6
1000081e:	702b      	strb	r3, [r5, #0]
10000820:	2800      	cmp	r0, #0
10000822:	d00d      	beq.n	10000840 <spi_flash_write+0x7c>
10000824:	7b03      	ldrb	r3, [r0, #12]
10000826:	2b00      	cmp	r3, #0
10000828:	d00a      	beq.n	10000840 <spi_flash_write+0x7c>
1000082a:	6803      	ldr	r3, [r0, #0]
1000082c:	695b      	ldr	r3, [r3, #20]
1000082e:	469a      	mov	sl, r3
10000830:	2b00      	cmp	r3, #0
10000832:	d005      	beq.n	10000840 <spi_flash_write+0x7c>
10000834:	465b      	mov	r3, fp
10000836:	2201      	movs	r2, #1
10000838:	9300      	str	r3, [sp, #0]
1000083a:	0029      	movs	r1, r5
1000083c:	2300      	movs	r3, #0
1000083e:	47d0      	blx	sl
10000840:	2302      	movs	r3, #2
10000842:	702b      	strb	r3, [r5, #0]
10000844:	0c3b      	lsrs	r3, r7, #16
10000846:	706b      	strb	r3, [r5, #1]
10000848:	0a3b      	lsrs	r3, r7, #8
1000084a:	70ab      	strb	r3, [r5, #2]
1000084c:	9b03      	ldr	r3, [sp, #12]
1000084e:	0022      	movs	r2, r4
10000850:	1999      	adds	r1, r3, r6
10000852:	a806      	add	r0, sp, #24
10000854:	70ef      	strb	r7, [r5, #3]
10000856:	f003 f913 	bl	10003a80 <__wrap___aeabi_memcpy>
1000085a:	4643      	mov	r3, r8
1000085c:	6858      	ldr	r0, [r3, #4]
1000085e:	ad05      	add	r5, sp, #20
10000860:	1d22      	adds	r2, r4, #4
10000862:	2800      	cmp	r0, #0
10000864:	d01d      	beq.n	100008a2 <spi_flash_write+0xde>
10000866:	7b03      	ldrb	r3, [r0, #12]
10000868:	2b00      	cmp	r3, #0
1000086a:	d01a      	beq.n	100008a2 <spi_flash_write+0xde>
1000086c:	6803      	ldr	r3, [r0, #0]
1000086e:	695f      	ldr	r7, [r3, #20]
10000870:	2f00      	cmp	r7, #0
10000872:	d016      	beq.n	100008a2 <spi_flash_write+0xde>
10000874:	465b      	mov	r3, fp
10000876:	0029      	movs	r1, r5
10000878:	9300      	str	r3, [sp, #0]
1000087a:	2300      	movs	r3, #0
1000087c:	47b8      	blx	r7
1000087e:	2800      	cmp	r0, #0
10000880:	d106      	bne.n	10000890 <spi_flash_write+0xcc>
10000882:	4643      	mov	r3, r8
10000884:	4908      	ldr	r1, [pc, #32]	; (100008a8 <spi_flash_write+0xe4>)
10000886:	6858      	ldr	r0, [r3, #4]
10000888:	f7ff feb4 	bl	100005f4 <flash_wait_ready>
1000088c:	2800      	cmp	r0, #0
1000088e:	d0ab      	beq.n	100007e8 <spi_flash_write+0x24>
10000890:	b047      	add	sp, #284	; 0x11c
10000892:	bcf0      	pop	{r4, r5, r6, r7}
10000894:	46bb      	mov	fp, r7
10000896:	46b2      	mov	sl, r6
10000898:	46a9      	mov	r9, r5
1000089a:	46a0      	mov	r8, r4
1000089c:	bdf0      	pop	{r4, r5, r6, r7, pc}
1000089e:	2000      	movs	r0, #0
100008a0:	e7f6      	b.n	10000890 <spi_flash_write+0xcc>
100008a2:	2005      	movs	r0, #5
100008a4:	4240      	negs	r0, r0
100008a6:	e7f3      	b.n	10000890 <spi_flash_write+0xcc>
100008a8:	00002710 	.word	0x00002710

100008ac <spi_flash_init>:
100008ac:	210f      	movs	r1, #15
100008ae:	23ab      	movs	r3, #171	; 0xab
100008b0:	b530      	push	{r4, r5, lr}
100008b2:	0004      	movs	r4, r0
100008b4:	b085      	sub	sp, #20
100008b6:	6840      	ldr	r0, [r0, #4]
100008b8:	4469      	add	r1, sp
100008ba:	700b      	strb	r3, [r1, #0]
100008bc:	2800      	cmp	r0, #0
100008be:	d00a      	beq.n	100008d6 <spi_flash_init+0x2a>
100008c0:	7b03      	ldrb	r3, [r0, #12]
100008c2:	2b00      	cmp	r3, #0
100008c4:	d007      	beq.n	100008d6 <spi_flash_init+0x2a>
100008c6:	6803      	ldr	r3, [r0, #0]
100008c8:	695d      	ldr	r5, [r3, #20]
100008ca:	2d00      	cmp	r5, #0
100008cc:	d003      	beq.n	100008d6 <spi_flash_init+0x2a>
100008ce:	2300      	movs	r3, #0
100008d0:	2201      	movs	r2, #1
100008d2:	9300      	str	r3, [sp, #0]
100008d4:	47a8      	blx	r5
100008d6:	2001      	movs	r0, #1
100008d8:	f001 fa98 	bl	10001e0c <hal_timer_delay_ms>
100008dc:	236c      	movs	r3, #108	; 0x6c
100008de:	2201      	movs	r2, #1
100008e0:	2000      	movs	r0, #0
100008e2:	54e2      	strb	r2, [r4, r3]
100008e4:	b005      	add	sp, #20
100008e6:	bd30      	pop	{r4, r5, pc}

100008e8 <spi_flash_erase>:
100008e8:	b5f0      	push	{r4, r5, r6, r7, lr}
100008ea:	46de      	mov	lr, fp
100008ec:	4657      	mov	r7, sl
100008ee:	464e      	mov	r6, r9
100008f0:	4645      	mov	r5, r8
100008f2:	b5e0      	push	{r5, r6, r7, lr}
100008f4:	468b      	mov	fp, r1
100008f6:	0006      	movs	r6, r0
100008f8:	4690      	mov	r8, r2
100008fa:	469a      	mov	sl, r3
100008fc:	b085      	sub	sp, #20
100008fe:	2900      	cmp	r1, #0
10000900:	d102      	bne.n	10000908 <spi_flash_erase+0x20>
10000902:	6d43      	ldr	r3, [r0, #84]	; 0x54
10000904:	4293      	cmp	r3, r2
10000906:	d951      	bls.n	100009ac <spi_flash_erase+0xc4>
10000908:	4643      	mov	r3, r8
1000090a:	2500      	movs	r5, #0
1000090c:	ac03      	add	r4, sp, #12
1000090e:	2b00      	cmp	r3, #0
10000910:	d10f      	bne.n	10000932 <spi_flash_erase+0x4a>
10000912:	e049      	b.n	100009a8 <spi_flash_erase+0xc0>
10000914:	6df3      	ldr	r3, [r6, #92]	; 0x5c
10000916:	469c      	mov	ip, r3
10000918:	4653      	mov	r3, sl
1000091a:	4465      	add	r5, ip
1000091c:	2b00      	cmp	r3, #0
1000091e:	d006      	beq.n	1000092e <spi_flash_erase+0x46>
10000920:	4640      	mov	r0, r8
10000922:	45a8      	cmp	r8, r5
10000924:	d900      	bls.n	10000928 <spi_flash_erase+0x40>
10000926:	0028      	movs	r0, r5
10000928:	4641      	mov	r1, r8
1000092a:	9a0e      	ldr	r2, [sp, #56]	; 0x38
1000092c:	47d0      	blx	sl
1000092e:	45a8      	cmp	r8, r5
10000930:	d93a      	bls.n	100009a8 <spi_flash_erase+0xc0>
10000932:	465b      	mov	r3, fp
10000934:	195f      	adds	r7, r3, r5
10000936:	2306      	movs	r3, #6
10000938:	6870      	ldr	r0, [r6, #4]
1000093a:	7023      	strb	r3, [r4, #0]
1000093c:	2800      	cmp	r0, #0
1000093e:	d065      	beq.n	10000a0c <spi_flash_erase+0x124>
10000940:	7b03      	ldrb	r3, [r0, #12]
10000942:	2b00      	cmp	r3, #0
10000944:	d065      	beq.n	10000a12 <spi_flash_erase+0x12a>
10000946:	6803      	ldr	r3, [r0, #0]
10000948:	695b      	ldr	r3, [r3, #20]
1000094a:	4699      	mov	r9, r3
1000094c:	2b00      	cmp	r3, #0
1000094e:	d060      	beq.n	10000a12 <spi_flash_erase+0x12a>
10000950:	2300      	movs	r3, #0
10000952:	2201      	movs	r2, #1
10000954:	9300      	str	r3, [sp, #0]
10000956:	0021      	movs	r1, r4
10000958:	47c8      	blx	r9
1000095a:	2320      	movs	r3, #32
1000095c:	6870      	ldr	r0, [r6, #4]
1000095e:	7023      	strb	r3, [r4, #0]
10000960:	0c3b      	lsrs	r3, r7, #16
10000962:	7063      	strb	r3, [r4, #1]
10000964:	0a3b      	lsrs	r3, r7, #8
10000966:	70a3      	strb	r3, [r4, #2]
10000968:	70e7      	strb	r7, [r4, #3]
1000096a:	2800      	cmp	r0, #0
1000096c:	d04e      	beq.n	10000a0c <spi_flash_erase+0x124>
1000096e:	7b03      	ldrb	r3, [r0, #12]
10000970:	2b00      	cmp	r3, #0
10000972:	d04b      	beq.n	10000a0c <spi_flash_erase+0x124>
10000974:	6803      	ldr	r3, [r0, #0]
10000976:	695f      	ldr	r7, [r3, #20]
10000978:	2f00      	cmp	r7, #0
1000097a:	d047      	beq.n	10000a0c <spi_flash_erase+0x124>
1000097c:	2300      	movs	r3, #0
1000097e:	2204      	movs	r2, #4
10000980:	0021      	movs	r1, r4
10000982:	9300      	str	r3, [sp, #0]
10000984:	47b8      	blx	r7
10000986:	2800      	cmp	r0, #0
10000988:	d105      	bne.n	10000996 <spi_flash_erase+0xae>
1000098a:	4927      	ldr	r1, [pc, #156]	; (10000a28 <spi_flash_erase+0x140>)
1000098c:	6870      	ldr	r0, [r6, #4]
1000098e:	f7ff fe31 	bl	100005f4 <flash_wait_ready>
10000992:	2800      	cmp	r0, #0
10000994:	d0be      	beq.n	10000914 <spi_flash_erase+0x2c>
10000996:	0007      	movs	r7, r0
10000998:	0038      	movs	r0, r7
1000099a:	b005      	add	sp, #20
1000099c:	bcf0      	pop	{r4, r5, r6, r7}
1000099e:	46bb      	mov	fp, r7
100009a0:	46b2      	mov	sl, r6
100009a2:	46a9      	mov	r9, r5
100009a4:	46a0      	mov	r8, r4
100009a6:	bdf0      	pop	{r4, r5, r6, r7, pc}
100009a8:	2700      	movs	r7, #0
100009aa:	e7f5      	b.n	10000998 <spi_flash_erase+0xb0>
100009ac:	2306      	movs	r3, #6
100009ae:	6840      	ldr	r0, [r0, #4]
100009b0:	ac03      	add	r4, sp, #12
100009b2:	7023      	strb	r3, [r4, #0]
100009b4:	2800      	cmp	r0, #0
100009b6:	d01d      	beq.n	100009f4 <spi_flash_erase+0x10c>
100009b8:	7b03      	ldrb	r3, [r0, #12]
100009ba:	2b00      	cmp	r3, #0
100009bc:	d031      	beq.n	10000a22 <spi_flash_erase+0x13a>
100009be:	6803      	ldr	r3, [r0, #0]
100009c0:	695d      	ldr	r5, [r3, #20]
100009c2:	2d00      	cmp	r5, #0
100009c4:	d02d      	beq.n	10000a22 <spi_flash_erase+0x13a>
100009c6:	2300      	movs	r3, #0
100009c8:	9100      	str	r1, [sp, #0]
100009ca:	2201      	movs	r2, #1
100009cc:	0021      	movs	r1, r4
100009ce:	47a8      	blx	r5
100009d0:	23c7      	movs	r3, #199	; 0xc7
100009d2:	6870      	ldr	r0, [r6, #4]
100009d4:	7023      	strb	r3, [r4, #0]
100009d6:	2800      	cmp	r0, #0
100009d8:	d00c      	beq.n	100009f4 <spi_flash_erase+0x10c>
100009da:	7b03      	ldrb	r3, [r0, #12]
100009dc:	2b00      	cmp	r3, #0
100009de:	d009      	beq.n	100009f4 <spi_flash_erase+0x10c>
100009e0:	6803      	ldr	r3, [r0, #0]
100009e2:	695d      	ldr	r5, [r3, #20]
100009e4:	2d00      	cmp	r5, #0
100009e6:	d005      	beq.n	100009f4 <spi_flash_erase+0x10c>
100009e8:	2300      	movs	r3, #0
100009ea:	2201      	movs	r2, #1
100009ec:	0021      	movs	r1, r4
100009ee:	9300      	str	r3, [sp, #0]
100009f0:	47a8      	blx	r5
100009f2:	6870      	ldr	r0, [r6, #4]
100009f4:	490c      	ldr	r1, [pc, #48]	; (10000a28 <spi_flash_erase+0x140>)
100009f6:	f7ff fdfd 	bl	100005f4 <flash_wait_ready>
100009fa:	4653      	mov	r3, sl
100009fc:	0007      	movs	r7, r0
100009fe:	2b00      	cmp	r3, #0
10000a00:	d0ca      	beq.n	10000998 <spi_flash_erase+0xb0>
10000a02:	4641      	mov	r1, r8
10000a04:	4640      	mov	r0, r8
10000a06:	9a0e      	ldr	r2, [sp, #56]	; 0x38
10000a08:	47d0      	blx	sl
10000a0a:	e7c5      	b.n	10000998 <spi_flash_erase+0xb0>
10000a0c:	2705      	movs	r7, #5
10000a0e:	427f      	negs	r7, r7
10000a10:	e7c2      	b.n	10000998 <spi_flash_erase+0xb0>
10000a12:	2320      	movs	r3, #32
10000a14:	7023      	strb	r3, [r4, #0]
10000a16:	0c3b      	lsrs	r3, r7, #16
10000a18:	7063      	strb	r3, [r4, #1]
10000a1a:	0a3b      	lsrs	r3, r7, #8
10000a1c:	70a3      	strb	r3, [r4, #2]
10000a1e:	70e7      	strb	r7, [r4, #3]
10000a20:	e7a5      	b.n	1000096e <spi_flash_erase+0x86>
10000a22:	23c7      	movs	r3, #199	; 0xc7
10000a24:	7023      	strb	r3, [r4, #0]
10000a26:	e7d8      	b.n	100009da <spi_flash_erase+0xf2>
10000a28:	0000ea60 	.word	0x0000ea60

10000a2c <eeprom_init>:
10000a2c:	236c      	movs	r3, #108	; 0x6c
10000a2e:	2201      	movs	r2, #1
10000a30:	54c2      	strb	r2, [r0, r3]
10000a32:	2000      	movs	r0, #0
10000a34:	4770      	bx	lr
10000a36:	46c0      	nop			; (mov r8, r8)

10000a38 <eeprom_deinit>:
10000a38:	236c      	movs	r3, #108	; 0x6c
10000a3a:	2200      	movs	r2, #0
10000a3c:	54c2      	strb	r2, [r0, r3]
10000a3e:	2000      	movs	r0, #0
10000a40:	4770      	bx	lr
10000a42:	46c0      	nop			; (mov r8, r8)

10000a44 <eeprom_detect>:
10000a44:	2300      	movs	r3, #0
10000a46:	b5f0      	push	{r4, r5, r6, r7, lr}
10000a48:	0005      	movs	r5, r0
10000a4a:	6840      	ldr	r0, [r0, #4]
10000a4c:	b093      	sub	sp, #76	; 0x4c
10000a4e:	9301      	str	r3, [sp, #4]
10000a50:	2800      	cmp	r0, #0
10000a52:	d01a      	beq.n	10000a8a <eeprom_detect+0x46>
10000a54:	7b03      	ldrb	r3, [r0, #12]
10000a56:	2b00      	cmp	r3, #0
10000a58:	d017      	beq.n	10000a8a <eeprom_detect+0x46>
10000a5a:	6803      	ldr	r3, [r0, #0]
10000a5c:	699c      	ldr	r4, [r3, #24]
10000a5e:	2c00      	cmp	r4, #0
10000a60:	d013      	beq.n	10000a8a <eeprom_detect+0x46>
10000a62:	2210      	movs	r2, #16
10000a64:	ab01      	add	r3, sp, #4
10000a66:	a902      	add	r1, sp, #8
10000a68:	47a0      	blx	r4
10000a6a:	1e07      	subs	r7, r0, #0
10000a6c:	d10d      	bne.n	10000a8a <eeprom_detect+0x46>
10000a6e:	9e01      	ldr	r6, [sp, #4]
10000a70:	2e00      	cmp	r6, #0
10000a72:	d00a      	beq.n	10000a8a <eeprom_detect+0x46>
10000a74:	2100      	movs	r1, #0
10000a76:	aa02      	add	r2, sp, #8
10000a78:	6813      	ldr	r3, [r2, #0]
10000a7a:	001c      	movs	r4, r3
10000a7c:	3c50      	subs	r4, #80	; 0x50
10000a7e:	2c07      	cmp	r4, #7
10000a80:	d908      	bls.n	10000a94 <eeprom_detect+0x50>
10000a82:	3101      	adds	r1, #1
10000a84:	3204      	adds	r2, #4
10000a86:	428e      	cmp	r6, r1
10000a88:	d1f6      	bne.n	10000a78 <eeprom_detect+0x34>
10000a8a:	270c      	movs	r7, #12
10000a8c:	427f      	negs	r7, r7
10000a8e:	0038      	movs	r0, r7
10000a90:	b013      	add	sp, #76	; 0x4c
10000a92:	bdf0      	pop	{r4, r5, r6, r7, pc}
10000a94:	2101      	movs	r1, #1
10000a96:	2080      	movs	r0, #128	; 0x80
10000a98:	4a0b      	ldr	r2, [pc, #44]	; (10000ac8 <eeprom_detect+0x84>)
10000a9a:	0200      	lsls	r0, r0, #8
10000a9c:	7051      	strb	r1, [r2, #1]
10000a9e:	313f      	adds	r1, #63	; 0x3f
10000aa0:	66aa      	str	r2, [r5, #104]	; 0x68
10000aa2:	2402      	movs	r4, #2
10000aa4:	7013      	strb	r3, [r2, #0]
10000aa6:	6051      	str	r1, [r2, #4]
10000aa8:	6090      	str	r0, [r2, #8]
10000aaa:	2248      	movs	r2, #72	; 0x48
10000aac:	54ac      	strb	r4, [r5, r2]
10000aae:	6568      	str	r0, [r5, #84]	; 0x54
10000ab0:	0028      	movs	r0, r5
10000ab2:	3a2d      	subs	r2, #45	; 0x2d
10000ab4:	64ea      	str	r2, [r5, #76]	; 0x4c
10000ab6:	652b      	str	r3, [r5, #80]	; 0x50
10000ab8:	4a04      	ldr	r2, [pc, #16]	; (10000acc <eeprom_detect+0x88>)
10000aba:	65a9      	str	r1, [r5, #88]	; 0x58
10000abc:	65e9      	str	r1, [r5, #92]	; 0x5c
10000abe:	3008      	adds	r0, #8
10000ac0:	f004 f944 	bl	10004d4c <__wrap_snprintf>
10000ac4:	e7e3      	b.n	10000a8e <eeprom_detect+0x4a>
10000ac6:	46c0      	nop			; (mov r8, r8)
10000ac8:	20000c7c 	.word	0x20000c7c
10000acc:	100057b8 	.word	0x100057b8

10000ad0 <eeprom_write>:
10000ad0:	b5f0      	push	{r4, r5, r6, r7, lr}
10000ad2:	46de      	mov	lr, fp
10000ad4:	4657      	mov	r7, sl
10000ad6:	464e      	mov	r6, r9
10000ad8:	4645      	mov	r5, r8
10000ada:	b5e0      	push	{r5, r6, r7, lr}
10000adc:	b099      	sub	sp, #100	; 0x64
10000ade:	9104      	str	r1, [sp, #16]
10000ae0:	6e81      	ldr	r1, [r0, #104]	; 0x68
10000ae2:	9205      	str	r2, [sp, #20]
10000ae4:	9302      	str	r3, [sp, #8]
10000ae6:	9103      	str	r1, [sp, #12]
10000ae8:	2b00      	cmp	r3, #0
10000aea:	d06b      	beq.n	10000bc4 <eeprom_write+0xf4>
10000aec:	2300      	movs	r3, #0
10000aee:	469b      	mov	fp, r3
10000af0:	3301      	adds	r3, #1
10000af2:	469a      	mov	sl, r3
10000af4:	4681      	mov	r9, r0
10000af6:	9b03      	ldr	r3, [sp, #12]
10000af8:	9c04      	ldr	r4, [sp, #16]
10000afa:	685d      	ldr	r5, [r3, #4]
10000afc:	445c      	add	r4, fp
10000afe:	0029      	movs	r1, r5
10000b00:	0020      	movs	r0, r4
10000b02:	f002 f949 	bl	10002d98 <__wrap___aeabi_uidiv>
10000b06:	465a      	mov	r2, fp
10000b08:	9b02      	ldr	r3, [sp, #8]
10000b0a:	1a9b      	subs	r3, r3, r2
10000b0c:	1a6a      	subs	r2, r5, r1
10000b0e:	4690      	mov	r8, r2
10000b10:	429a      	cmp	r2, r3
10000b12:	d900      	bls.n	10000b16 <eeprom_write+0x46>
10000b14:	4698      	mov	r8, r3
10000b16:	9b03      	ldr	r3, [sp, #12]
10000b18:	785b      	ldrb	r3, [r3, #1]
10000b1a:	2b00      	cmp	r3, #0
10000b1c:	d05a      	beq.n	10000bd4 <eeprom_write+0x104>
10000b1e:	aa04      	add	r2, sp, #16
10000b20:	0a23      	lsrs	r3, r4, #8
10000b22:	7354      	strb	r4, [r2, #13]
10000b24:	2402      	movs	r4, #2
10000b26:	7313      	strb	r3, [r2, #12]
10000b28:	9905      	ldr	r1, [sp, #20]
10000b2a:	ab07      	add	r3, sp, #28
10000b2c:	4642      	mov	r2, r8
10000b2e:	1918      	adds	r0, r3, r4
10000b30:	4459      	add	r1, fp
10000b32:	f002 ffa5 	bl	10003a80 <__wrap___aeabi_memcpy>
10000b36:	464b      	mov	r3, r9
10000b38:	0022      	movs	r2, r4
10000b3a:	6858      	ldr	r0, [r3, #4]
10000b3c:	4442      	add	r2, r8
10000b3e:	2800      	cmp	r0, #0
10000b40:	d04c      	beq.n	10000bdc <eeprom_write+0x10c>
10000b42:	7b03      	ldrb	r3, [r0, #12]
10000b44:	2b00      	cmp	r3, #0
10000b46:	d049      	beq.n	10000bdc <eeprom_write+0x10c>
10000b48:	6803      	ldr	r3, [r0, #0]
10000b4a:	695d      	ldr	r5, [r3, #20]
10000b4c:	2d00      	cmp	r5, #0
10000b4e:	d045      	beq.n	10000bdc <eeprom_write+0x10c>
10000b50:	2300      	movs	r3, #0
10000b52:	a907      	add	r1, sp, #28
10000b54:	9300      	str	r3, [sp, #0]
10000b56:	47a8      	blx	r5
10000b58:	2800      	cmp	r0, #0
10000b5a:	d134      	bne.n	10000bc6 <eeprom_write+0xf6>
10000b5c:	464b      	mov	r3, r9
10000b5e:	685c      	ldr	r4, [r3, #4]
10000b60:	f001 f958 	bl	10001e14 <hal_timer_get_us>
10000b64:	0006      	movs	r6, r0
10000b66:	000f      	movs	r7, r1
10000b68:	e01b      	b.n	10000ba2 <eeprom_write+0xd2>
10000b6a:	4b1e      	ldr	r3, [pc, #120]	; (10000be4 <eeprom_write+0x114>)
10000b6c:	4298      	cmp	r0, r3
10000b6e:	d81e      	bhi.n	10000bae <eeprom_write+0xde>
10000b70:	2c00      	cmp	r4, #0
10000b72:	d012      	beq.n	10000b9a <eeprom_write+0xca>
10000b74:	7b23      	ldrb	r3, [r4, #12]
10000b76:	2b00      	cmp	r3, #0
10000b78:	d00f      	beq.n	10000b9a <eeprom_write+0xca>
10000b7a:	6823      	ldr	r3, [r4, #0]
10000b7c:	695d      	ldr	r5, [r3, #20]
10000b7e:	2d00      	cmp	r5, #0
10000b80:	d00b      	beq.n	10000b9a <eeprom_write+0xca>
10000b82:	4653      	mov	r3, sl
10000b84:	aa04      	add	r2, sp, #16
10000b86:	4694      	mov	ip, r2
10000b88:	9300      	str	r3, [sp, #0]
10000b8a:	230b      	movs	r3, #11
10000b8c:	2200      	movs	r2, #0
10000b8e:	2100      	movs	r1, #0
10000b90:	0020      	movs	r0, r4
10000b92:	4463      	add	r3, ip
10000b94:	47a8      	blx	r5
10000b96:	2800      	cmp	r0, #0
10000b98:	d009      	beq.n	10000bae <eeprom_write+0xde>
10000b9a:	20fa      	movs	r0, #250	; 0xfa
10000b9c:	0040      	lsls	r0, r0, #1
10000b9e:	f001 f931 	bl	10001e04 <hal_timer_delay_us>
10000ba2:	f001 f937 	bl	10001e14 <hal_timer_get_us>
10000ba6:	1b80      	subs	r0, r0, r6
10000ba8:	41b9      	sbcs	r1, r7
10000baa:	2900      	cmp	r1, #0
10000bac:	d0dd      	beq.n	10000b6a <eeprom_write+0x9a>
10000bae:	9b22      	ldr	r3, [sp, #136]	; 0x88
10000bb0:	44c3      	add	fp, r8
10000bb2:	2b00      	cmp	r3, #0
10000bb4:	d003      	beq.n	10000bbe <eeprom_write+0xee>
10000bb6:	4658      	mov	r0, fp
10000bb8:	9a23      	ldr	r2, [sp, #140]	; 0x8c
10000bba:	9902      	ldr	r1, [sp, #8]
10000bbc:	4798      	blx	r3
10000bbe:	9b02      	ldr	r3, [sp, #8]
10000bc0:	455b      	cmp	r3, fp
10000bc2:	d898      	bhi.n	10000af6 <eeprom_write+0x26>
10000bc4:	2000      	movs	r0, #0
10000bc6:	b019      	add	sp, #100	; 0x64
10000bc8:	bcf0      	pop	{r4, r5, r6, r7}
10000bca:	46bb      	mov	fp, r7
10000bcc:	46b2      	mov	sl, r6
10000bce:	46a9      	mov	r9, r5
10000bd0:	46a0      	mov	r8, r4
10000bd2:	bdf0      	pop	{r4, r5, r6, r7, pc}
10000bd4:	ab04      	add	r3, sp, #16
10000bd6:	731c      	strb	r4, [r3, #12]
10000bd8:	2401      	movs	r4, #1
10000bda:	e7a5      	b.n	10000b28 <eeprom_write+0x58>
10000bdc:	2005      	movs	r0, #5
10000bde:	4240      	negs	r0, r0
10000be0:	e7f1      	b.n	10000bc6 <eeprom_write+0xf6>
10000be2:	46c0      	nop			; (mov r8, r8)
10000be4:	0000c34f 	.word	0x0000c34f

10000be8 <eeprom_read>:
10000be8:	b5f0      	push	{r4, r5, r6, r7, lr}
10000bea:	464e      	mov	r6, r9
10000bec:	46de      	mov	lr, fp
10000bee:	4657      	mov	r7, sl
10000bf0:	4645      	mov	r5, r8
10000bf2:	b5e0      	push	{r5, r6, r7, lr}
10000bf4:	001e      	movs	r6, r3
10000bf6:	6e83      	ldr	r3, [r0, #104]	; 0x68
10000bf8:	b087      	sub	sp, #28
10000bfa:	4682      	mov	sl, r0
10000bfc:	4693      	mov	fp, r2
10000bfe:	4699      	mov	r9, r3
10000c00:	9103      	str	r1, [sp, #12]
10000c02:	2e00      	cmp	r6, #0
10000c04:	d031      	beq.n	10000c6a <eeprom_read+0x82>
10000c06:	2400      	movs	r4, #0
10000c08:	46b0      	mov	r8, r6
10000c0a:	af05      	add	r7, sp, #20
10000c0c:	e01f      	b.n	10000c4e <eeprom_read+0x66>
10000c0e:	0a1a      	lsrs	r2, r3, #8
10000c10:	703a      	strb	r2, [r7, #0]
10000c12:	2202      	movs	r2, #2
10000c14:	707b      	strb	r3, [r7, #1]
10000c16:	4653      	mov	r3, sl
10000c18:	6858      	ldr	r0, [r3, #4]
10000c1a:	465b      	mov	r3, fp
10000c1c:	191b      	adds	r3, r3, r4
10000c1e:	2800      	cmp	r0, #0
10000c20:	d02b      	beq.n	10000c7a <eeprom_read+0x92>
10000c22:	7b01      	ldrb	r1, [r0, #12]
10000c24:	2900      	cmp	r1, #0
10000c26:	d028      	beq.n	10000c7a <eeprom_read+0x92>
10000c28:	6801      	ldr	r1, [r0, #0]
10000c2a:	694e      	ldr	r6, [r1, #20]
10000c2c:	2e00      	cmp	r6, #0
10000c2e:	d024      	beq.n	10000c7a <eeprom_read+0x92>
10000c30:	0039      	movs	r1, r7
10000c32:	9500      	str	r5, [sp, #0]
10000c34:	47b0      	blx	r6
10000c36:	2800      	cmp	r0, #0
10000c38:	d118      	bne.n	10000c6c <eeprom_read+0x84>
10000c3a:	9b10      	ldr	r3, [sp, #64]	; 0x40
10000c3c:	1964      	adds	r4, r4, r5
10000c3e:	2b00      	cmp	r3, #0
10000c40:	d003      	beq.n	10000c4a <eeprom_read+0x62>
10000c42:	4641      	mov	r1, r8
10000c44:	0020      	movs	r0, r4
10000c46:	9a11      	ldr	r2, [sp, #68]	; 0x44
10000c48:	4798      	blx	r3
10000c4a:	45a0      	cmp	r8, r4
10000c4c:	d90d      	bls.n	10000c6a <eeprom_read+0x82>
10000c4e:	4642      	mov	r2, r8
10000c50:	9b03      	ldr	r3, [sp, #12]
10000c52:	1b15      	subs	r5, r2, r4
10000c54:	191b      	adds	r3, r3, r4
10000c56:	2d20      	cmp	r5, #32
10000c58:	d900      	bls.n	10000c5c <eeprom_read+0x74>
10000c5a:	2520      	movs	r5, #32
10000c5c:	464a      	mov	r2, r9
10000c5e:	7852      	ldrb	r2, [r2, #1]
10000c60:	2a00      	cmp	r2, #0
10000c62:	d1d4      	bne.n	10000c0e <eeprom_read+0x26>
10000c64:	2201      	movs	r2, #1
10000c66:	703b      	strb	r3, [r7, #0]
10000c68:	e7d5      	b.n	10000c16 <eeprom_read+0x2e>
10000c6a:	2000      	movs	r0, #0
10000c6c:	b007      	add	sp, #28
10000c6e:	bcf0      	pop	{r4, r5, r6, r7}
10000c70:	46bb      	mov	fp, r7
10000c72:	46b2      	mov	sl, r6
10000c74:	46a9      	mov	r9, r5
10000c76:	46a0      	mov	r8, r4
10000c78:	bdf0      	pop	{r4, r5, r6, r7, pc}
10000c7a:	2005      	movs	r0, #5
10000c7c:	4240      	negs	r0, r0
10000c7e:	e7f5      	b.n	10000c6c <eeprom_read+0x84>

10000c80 <eeprom_verify>:
10000c80:	b5f0      	push	{r4, r5, r6, r7, lr}
10000c82:	464e      	mov	r6, r9
10000c84:	46de      	mov	lr, fp
10000c86:	4657      	mov	r7, sl
10000c88:	4645      	mov	r5, r8
10000c8a:	b5e0      	push	{r5, r6, r7, lr}
10000c8c:	b093      	sub	sp, #76	; 0x4c
10000c8e:	1e1e      	subs	r6, r3, #0
10000c90:	9b1c      	ldr	r3, [sp, #112]	; 0x70
10000c92:	4681      	mov	r9, r0
10000c94:	468a      	mov	sl, r1
10000c96:	4693      	mov	fp, r2
10000c98:	4698      	mov	r8, r3
10000c9a:	d02a      	beq.n	10000cf2 <eeprom_verify+0x72>
10000c9c:	2400      	movs	r4, #0
10000c9e:	2700      	movs	r7, #0
10000ca0:	e011      	b.n	10000cc6 <eeprom_verify+0x46>
10000ca2:	465b      	mov	r3, fp
10000ca4:	002a      	movs	r2, r5
10000ca6:	1919      	adds	r1, r3, r4
10000ca8:	a802      	add	r0, sp, #8
10000caa:	f004 fac5 	bl	10005238 <memcmp>
10000cae:	2800      	cmp	r0, #0
10000cb0:	d121      	bne.n	10000cf6 <eeprom_verify+0x76>
10000cb2:	4643      	mov	r3, r8
10000cb4:	1964      	adds	r4, r4, r5
10000cb6:	2b00      	cmp	r3, #0
10000cb8:	d003      	beq.n	10000cc2 <eeprom_verify+0x42>
10000cba:	0031      	movs	r1, r6
10000cbc:	0020      	movs	r0, r4
10000cbe:	9a1d      	ldr	r2, [sp, #116]	; 0x74
10000cc0:	47c0      	blx	r8
10000cc2:	42a6      	cmp	r6, r4
10000cc4:	d915      	bls.n	10000cf2 <eeprom_verify+0x72>
10000cc6:	1b35      	subs	r5, r6, r4
10000cc8:	2d40      	cmp	r5, #64	; 0x40
10000cca:	d900      	bls.n	10000cce <eeprom_verify+0x4e>
10000ccc:	2540      	movs	r5, #64	; 0x40
10000cce:	4653      	mov	r3, sl
10000cd0:	4648      	mov	r0, r9
10000cd2:	1919      	adds	r1, r3, r4
10000cd4:	9701      	str	r7, [sp, #4]
10000cd6:	002b      	movs	r3, r5
10000cd8:	9700      	str	r7, [sp, #0]
10000cda:	aa02      	add	r2, sp, #8
10000cdc:	f7ff ff84 	bl	10000be8 <eeprom_read>
10000ce0:	2800      	cmp	r0, #0
10000ce2:	d0de      	beq.n	10000ca2 <eeprom_verify+0x22>
10000ce4:	b013      	add	sp, #76	; 0x4c
10000ce6:	bcf0      	pop	{r4, r5, r6, r7}
10000ce8:	46bb      	mov	fp, r7
10000cea:	46b2      	mov	sl, r6
10000cec:	46a9      	mov	r9, r5
10000cee:	46a0      	mov	r8, r4
10000cf0:	bdf0      	pop	{r4, r5, r6, r7, pc}
10000cf2:	2000      	movs	r0, #0
10000cf4:	e7f6      	b.n	10000ce4 <eeprom_verify+0x64>
10000cf6:	200a      	movs	r0, #10
10000cf8:	4240      	negs	r0, r0
10000cfa:	e7f3      	b.n	10000ce4 <eeprom_verify+0x64>

10000cfc <avr_init>:
10000cfc:	236c      	movs	r3, #108	; 0x6c
10000cfe:	2201      	movs	r2, #1
10000d00:	54c2      	strb	r2, [r0, r3]
10000d02:	2000      	movs	r0, #0
10000d04:	4770      	bx	lr
10000d06:	46c0      	nop			; (mov r8, r8)

10000d08 <avr_deinit>:
10000d08:	6e83      	ldr	r3, [r0, #104]	; 0x68
10000d0a:	b510      	push	{r4, lr}
10000d0c:	2101      	movs	r1, #1
10000d0e:	0004      	movs	r4, r0
10000d10:	7818      	ldrb	r0, [r3, #0]
10000d12:	f001 f843 	bl	10001d9c <hal_gpio_write>
10000d16:	236c      	movs	r3, #108	; 0x6c
10000d18:	2200      	movs	r2, #0
10000d1a:	2000      	movs	r0, #0
10000d1c:	54e2      	strb	r2, [r4, r3]
10000d1e:	bd10      	pop	{r4, pc}

10000d20 <avr_verify>:
10000d20:	b5f0      	push	{r4, r5, r6, r7, lr}
10000d22:	4657      	mov	r7, sl
10000d24:	46de      	mov	lr, fp
10000d26:	464e      	mov	r6, r9
10000d28:	4645      	mov	r5, r8
10000d2a:	b5e0      	push	{r5, r6, r7, lr}
10000d2c:	4681      	mov	r9, r0
10000d2e:	468a      	mov	sl, r1
10000d30:	4693      	mov	fp, r2
10000d32:	001f      	movs	r7, r3
10000d34:	b085      	sub	sp, #20
10000d36:	2b00      	cmp	r3, #0
10000d38:	d03d      	beq.n	10000db6 <avr_verify+0x96>
10000d3a:	2308      	movs	r3, #8
10000d3c:	2400      	movs	r4, #0
10000d3e:	4698      	mov	r8, r3
10000d40:	2600      	movs	r6, #0
10000d42:	ad03      	add	r5, sp, #12
10000d44:	9701      	str	r7, [sp, #4]
10000d46:	e00e      	b.n	10000d66 <avr_verify+0x46>
10000d48:	9b0e      	ldr	r3, [sp, #56]	; 0x38
10000d4a:	2b00      	cmp	r3, #0
10000d4c:	d007      	beq.n	10000d5e <avr_verify+0x3e>
10000d4e:	23ff      	movs	r3, #255	; 0xff
10000d50:	4223      	tst	r3, r4
10000d52:	d104      	bne.n	10000d5e <avr_verify+0x3e>
10000d54:	0020      	movs	r0, r4
10000d56:	9a0f      	ldr	r2, [sp, #60]	; 0x3c
10000d58:	9901      	ldr	r1, [sp, #4]
10000d5a:	9b0e      	ldr	r3, [sp, #56]	; 0x38
10000d5c:	4798      	blx	r3
10000d5e:	9b01      	ldr	r3, [sp, #4]
10000d60:	3401      	adds	r4, #1
10000d62:	42a3      	cmp	r3, r4
10000d64:	d026      	beq.n	10000db4 <avr_verify+0x94>
10000d66:	4653      	mov	r3, sl
10000d68:	2701      	movs	r7, #1
10000d6a:	191b      	adds	r3, r3, r4
10000d6c:	0859      	lsrs	r1, r3, #1
10000d6e:	4648      	mov	r0, r9
10000d70:	403b      	ands	r3, r7
10000d72:	4647      	mov	r7, r8
10000d74:	425b      	negs	r3, r3
10000d76:	6840      	ldr	r0, [r0, #4]
10000d78:	b28a      	uxth	r2, r1
10000d7a:	403b      	ands	r3, r7
10000d7c:	3320      	adds	r3, #32
10000d7e:	af02      	add	r7, sp, #8
10000d80:	0a12      	lsrs	r2, r2, #8
10000d82:	703b      	strb	r3, [r7, #0]
10000d84:	707a      	strb	r2, [r7, #1]
10000d86:	2304      	movs	r3, #4
10000d88:	002a      	movs	r2, r5
10000d8a:	70b9      	strb	r1, [r7, #2]
10000d8c:	6840      	ldr	r0, [r0, #4]
10000d8e:	0039      	movs	r1, r7
10000d90:	70fe      	strb	r6, [r7, #3]
10000d92:	602e      	str	r6, [r5, #0]
10000d94:	f001 f816 	bl	10001dc4 <hal_spi_transfer>
10000d98:	465a      	mov	r2, fp
10000d9a:	78eb      	ldrb	r3, [r5, #3]
10000d9c:	5d12      	ldrb	r2, [r2, r4]
10000d9e:	429a      	cmp	r2, r3
10000da0:	d0d2      	beq.n	10000d48 <avr_verify+0x28>
10000da2:	200a      	movs	r0, #10
10000da4:	4240      	negs	r0, r0
10000da6:	b005      	add	sp, #20
10000da8:	bcf0      	pop	{r4, r5, r6, r7}
10000daa:	46bb      	mov	fp, r7
10000dac:	46b2      	mov	sl, r6
10000dae:	46a9      	mov	r9, r5
10000db0:	46a0      	mov	r8, r4
10000db2:	bdf0      	pop	{r4, r5, r6, r7, pc}
10000db4:	001f      	movs	r7, r3
10000db6:	9b0e      	ldr	r3, [sp, #56]	; 0x38
10000db8:	2b00      	cmp	r3, #0
10000dba:	d005      	beq.n	10000dc8 <avr_verify+0xa8>
10000dbc:	0038      	movs	r0, r7
10000dbe:	0039      	movs	r1, r7
10000dc0:	9a0f      	ldr	r2, [sp, #60]	; 0x3c
10000dc2:	4798      	blx	r3
10000dc4:	2000      	movs	r0, #0
10000dc6:	e7ee      	b.n	10000da6 <avr_verify+0x86>
10000dc8:	2000      	movs	r0, #0
10000dca:	e7ec      	b.n	10000da6 <avr_verify+0x86>

10000dcc <avr_write>:
10000dcc:	b5f0      	push	{r4, r5, r6, r7, lr}
10000dce:	4657      	mov	r7, sl
10000dd0:	46de      	mov	lr, fp
10000dd2:	464e      	mov	r6, r9
10000dd4:	4645      	mov	r5, r8
10000dd6:	b5e0      	push	{r5, r6, r7, lr}
10000dd8:	b089      	sub	sp, #36	; 0x24
10000dda:	9205      	str	r2, [sp, #20]
10000ddc:	6e82      	ldr	r2, [r0, #104]	; 0x68
10000dde:	0007      	movs	r7, r0
10000de0:	9104      	str	r1, [sp, #16]
10000de2:	9302      	str	r3, [sp, #8]
10000de4:	9203      	str	r2, [sp, #12]
10000de6:	2b00      	cmp	r3, #0
10000de8:	d054      	beq.n	10000e94 <avr_write+0xc8>
10000dea:	2300      	movs	r3, #0
10000dec:	469b      	mov	fp, r3
10000dee:	3301      	adds	r3, #1
10000df0:	2500      	movs	r5, #0
10000df2:	469a      	mov	sl, r3
10000df4:	4659      	mov	r1, fp
10000df6:	9b03      	ldr	r3, [sp, #12]
10000df8:	9a02      	ldr	r2, [sp, #8]
10000dfa:	685b      	ldr	r3, [r3, #4]
10000dfc:	1a56      	subs	r6, r2, r1
10000dfe:	429e      	cmp	r6, r3
10000e00:	d900      	bls.n	10000e04 <avr_write+0x38>
10000e02:	001e      	movs	r6, r3
10000e04:	2e00      	cmp	r6, #0
10000e06:	d024      	beq.n	10000e52 <avr_write+0x86>
10000e08:	9905      	ldr	r1, [sp, #20]
10000e0a:	2400      	movs	r4, #0
10000e0c:	4459      	add	r1, fp
10000e0e:	4688      	mov	r8, r1
10000e10:	2108      	movs	r1, #8
10000e12:	2200      	movs	r2, #0
10000e14:	2340      	movs	r3, #64	; 0x40
10000e16:	4689      	mov	r9, r1
10000e18:	9601      	str	r6, [sp, #4]
10000e1a:	e006      	b.n	10000e2a <avr_write+0x5e>
10000e1c:	4653      	mov	r3, sl
10000e1e:	4649      	mov	r1, r9
10000e20:	4023      	ands	r3, r4
10000e22:	425b      	negs	r3, r3
10000e24:	400b      	ands	r3, r1
10000e26:	0862      	lsrs	r2, r4, #1
10000e28:	3340      	adds	r3, #64	; 0x40
10000e2a:	4641      	mov	r1, r8
10000e2c:	6878      	ldr	r0, [r7, #4]
10000e2e:	5d09      	ldrb	r1, [r1, r4]
10000e30:	ae06      	add	r6, sp, #24
10000e32:	6840      	ldr	r0, [r0, #4]
10000e34:	7033      	strb	r3, [r6, #0]
10000e36:	70b2      	strb	r2, [r6, #2]
10000e38:	2304      	movs	r3, #4
10000e3a:	70f1      	strb	r1, [r6, #3]
10000e3c:	7075      	strb	r5, [r6, #1]
10000e3e:	0031      	movs	r1, r6
10000e40:	aa07      	add	r2, sp, #28
10000e42:	9507      	str	r5, [sp, #28]
10000e44:	f000 ffbe 	bl	10001dc4 <hal_spi_transfer>
10000e48:	9b01      	ldr	r3, [sp, #4]
10000e4a:	3401      	adds	r4, #1
10000e4c:	42a3      	cmp	r3, r4
10000e4e:	d1e5      	bne.n	10000e1c <avr_write+0x50>
10000e50:	001e      	movs	r6, r3
10000e52:	687a      	ldr	r2, [r7, #4]
10000e54:	9b04      	ldr	r3, [sp, #16]
10000e56:	6850      	ldr	r0, [r2, #4]
10000e58:	224c      	movs	r2, #76	; 0x4c
10000e5a:	445b      	add	r3, fp
10000e5c:	a906      	add	r1, sp, #24
10000e5e:	085b      	lsrs	r3, r3, #1
10000e60:	700a      	strb	r2, [r1, #0]
10000e62:	b29a      	uxth	r2, r3
10000e64:	0a12      	lsrs	r2, r2, #8
10000e66:	704a      	strb	r2, [r1, #1]
10000e68:	708b      	strb	r3, [r1, #2]
10000e6a:	70cd      	strb	r5, [r1, #3]
10000e6c:	2304      	movs	r3, #4
10000e6e:	aa07      	add	r2, sp, #28
10000e70:	9507      	str	r5, [sp, #28]
10000e72:	f000 ffa7 	bl	10001dc4 <hal_spi_transfer>
10000e76:	2005      	movs	r0, #5
10000e78:	f000 ffc8 	bl	10001e0c <hal_timer_delay_ms>
10000e7c:	9b12      	ldr	r3, [sp, #72]	; 0x48
10000e7e:	44b3      	add	fp, r6
10000e80:	2b00      	cmp	r3, #0
10000e82:	d004      	beq.n	10000e8e <avr_write+0xc2>
10000e84:	4658      	mov	r0, fp
10000e86:	9a13      	ldr	r2, [sp, #76]	; 0x4c
10000e88:	9902      	ldr	r1, [sp, #8]
10000e8a:	9b12      	ldr	r3, [sp, #72]	; 0x48
10000e8c:	4798      	blx	r3
10000e8e:	9b02      	ldr	r3, [sp, #8]
10000e90:	455b      	cmp	r3, fp
10000e92:	d8af      	bhi.n	10000df4 <avr_write+0x28>
10000e94:	2000      	movs	r0, #0
10000e96:	b009      	add	sp, #36	; 0x24
10000e98:	bcf0      	pop	{r4, r5, r6, r7}
10000e9a:	46bb      	mov	fp, r7
10000e9c:	46b2      	mov	sl, r6
10000e9e:	46a9      	mov	r9, r5
10000ea0:	46a0      	mov	r8, r4
10000ea2:	bdf0      	pop	{r4, r5, r6, r7, pc}

10000ea4 <avr_read>:
10000ea4:	b5f0      	push	{r4, r5, r6, r7, lr}
10000ea6:	4657      	mov	r7, sl
10000ea8:	464e      	mov	r6, r9
10000eaa:	46de      	mov	lr, fp
10000eac:	4645      	mov	r5, r8
10000eae:	b5e0      	push	{r5, r6, r7, lr}
10000eb0:	4681      	mov	r9, r0
10000eb2:	468a      	mov	sl, r1
10000eb4:	0016      	movs	r6, r2
10000eb6:	001f      	movs	r7, r3
10000eb8:	b085      	sub	sp, #20
10000eba:	2b00      	cmp	r3, #0
10000ebc:	d034      	beq.n	10000f28 <avr_read+0x84>
10000ebe:	2301      	movs	r3, #1
10000ec0:	469b      	mov	fp, r3
10000ec2:	3307      	adds	r3, #7
10000ec4:	2400      	movs	r4, #0
10000ec6:	4698      	mov	r8, r3
10000ec8:	2500      	movs	r5, #0
10000eca:	9701      	str	r7, [sp, #4]
10000ecc:	4653      	mov	r3, sl
10000ece:	4658      	mov	r0, fp
10000ed0:	191b      	adds	r3, r3, r4
10000ed2:	0859      	lsrs	r1, r3, #1
10000ed4:	4003      	ands	r3, r0
10000ed6:	4640      	mov	r0, r8
10000ed8:	425b      	negs	r3, r3
10000eda:	4003      	ands	r3, r0
10000edc:	4648      	mov	r0, r9
10000ede:	b28a      	uxth	r2, r1
10000ee0:	6840      	ldr	r0, [r0, #4]
10000ee2:	af02      	add	r7, sp, #8
10000ee4:	3320      	adds	r3, #32
10000ee6:	0a12      	lsrs	r2, r2, #8
10000ee8:	703b      	strb	r3, [r7, #0]
10000eea:	707a      	strb	r2, [r7, #1]
10000eec:	2304      	movs	r3, #4
10000eee:	70b9      	strb	r1, [r7, #2]
10000ef0:	6840      	ldr	r0, [r0, #4]
10000ef2:	0039      	movs	r1, r7
10000ef4:	70fd      	strb	r5, [r7, #3]
10000ef6:	aa03      	add	r2, sp, #12
10000ef8:	9503      	str	r5, [sp, #12]
10000efa:	f000 ff63 	bl	10001dc4 <hal_spi_transfer>
10000efe:	1933      	adds	r3, r6, r4
10000f00:	2b00      	cmp	r3, #0
10000f02:	d001      	beq.n	10000f08 <avr_read+0x64>
10000f04:	79fb      	ldrb	r3, [r7, #7]
10000f06:	5533      	strb	r3, [r6, r4]
10000f08:	9b0e      	ldr	r3, [sp, #56]	; 0x38
10000f0a:	2b00      	cmp	r3, #0
10000f0c:	d007      	beq.n	10000f1e <avr_read+0x7a>
10000f0e:	23ff      	movs	r3, #255	; 0xff
10000f10:	4223      	tst	r3, r4
10000f12:	d104      	bne.n	10000f1e <avr_read+0x7a>
10000f14:	0020      	movs	r0, r4
10000f16:	9a0f      	ldr	r2, [sp, #60]	; 0x3c
10000f18:	9901      	ldr	r1, [sp, #4]
10000f1a:	9b0e      	ldr	r3, [sp, #56]	; 0x38
10000f1c:	4798      	blx	r3
10000f1e:	9b01      	ldr	r3, [sp, #4]
10000f20:	3401      	adds	r4, #1
10000f22:	42a3      	cmp	r3, r4
10000f24:	d1d2      	bne.n	10000ecc <avr_read+0x28>
10000f26:	001f      	movs	r7, r3
10000f28:	9b0e      	ldr	r3, [sp, #56]	; 0x38
10000f2a:	2b00      	cmp	r3, #0
10000f2c:	d003      	beq.n	10000f36 <avr_read+0x92>
10000f2e:	0039      	movs	r1, r7
10000f30:	0038      	movs	r0, r7
10000f32:	9a0f      	ldr	r2, [sp, #60]	; 0x3c
10000f34:	4798      	blx	r3
10000f36:	2000      	movs	r0, #0
10000f38:	b005      	add	sp, #20
10000f3a:	bcf0      	pop	{r4, r5, r6, r7}
10000f3c:	46bb      	mov	fp, r7
10000f3e:	46b2      	mov	sl, r6
10000f40:	46a9      	mov	r9, r5
10000f42:	46a0      	mov	r8, r4
10000f44:	bdf0      	pop	{r4, r5, r6, r7, pc}
10000f46:	46c0      	nop			; (mov r8, r8)

10000f48 <avr_erase>:
10000f48:	b510      	push	{r4, lr}
10000f4a:	001c      	movs	r4, r3
10000f4c:	6843      	ldr	r3, [r0, #4]
10000f4e:	b082      	sub	sp, #8
10000f50:	466a      	mov	r2, sp
10000f52:	6858      	ldr	r0, [r3, #4]
10000f54:	23ac      	movs	r3, #172	; 0xac
10000f56:	7013      	strb	r3, [r2, #0]
10000f58:	3b2c      	subs	r3, #44	; 0x2c
10000f5a:	7053      	strb	r3, [r2, #1]
10000f5c:	2300      	movs	r3, #0
10000f5e:	4669      	mov	r1, sp
10000f60:	7093      	strb	r3, [r2, #2]
10000f62:	70d3      	strb	r3, [r2, #3]
10000f64:	9301      	str	r3, [sp, #4]
10000f66:	aa01      	add	r2, sp, #4
10000f68:	3304      	adds	r3, #4
10000f6a:	f000 ff2b 	bl	10001dc4 <hal_spi_transfer>
10000f6e:	200a      	movs	r0, #10
10000f70:	f000 ff4c 	bl	10001e0c <hal_timer_delay_ms>
10000f74:	2c00      	cmp	r4, #0
10000f76:	d003      	beq.n	10000f80 <avr_erase+0x38>
10000f78:	2101      	movs	r1, #1
10000f7a:	2001      	movs	r0, #1
10000f7c:	9a04      	ldr	r2, [sp, #16]
10000f7e:	47a0      	blx	r4
10000f80:	2000      	movs	r0, #0
10000f82:	b002      	add	sp, #8
10000f84:	bd10      	pop	{r4, pc}
10000f86:	46c0      	nop			; (mov r8, r8)

10000f88 <avr_detect>:
10000f88:	b5f0      	push	{r4, r5, r6, r7, lr}
10000f8a:	46de      	mov	lr, fp
10000f8c:	4657      	mov	r7, sl
10000f8e:	464e      	mov	r6, r9
10000f90:	4645      	mov	r5, r8
10000f92:	b5e0      	push	{r5, r6, r7, lr}
10000f94:	0005      	movs	r5, r0
10000f96:	4f63      	ldr	r7, [pc, #396]	; (10001124 <avr_detect+0x19c>)
10000f98:	b085      	sub	sp, #20
10000f9a:	2100      	movs	r1, #0
10000f9c:	6687      	str	r7, [r0, #104]	; 0x68
10000f9e:	7838      	ldrb	r0, [r7, #0]
10000fa0:	f000 fefc 	bl	10001d9c <hal_gpio_write>
10000fa4:	201e      	movs	r0, #30
10000fa6:	f000 ff31 	bl	10001e0c <hal_timer_delay_ms>
10000faa:	686b      	ldr	r3, [r5, #4]
10000fac:	ac02      	add	r4, sp, #8
10000fae:	6858      	ldr	r0, [r3, #4]
10000fb0:	23ac      	movs	r3, #172	; 0xac
10000fb2:	7023      	strb	r3, [r4, #0]
10000fb4:	469a      	mov	sl, r3
10000fb6:	3b59      	subs	r3, #89	; 0x59
10000fb8:	7063      	strb	r3, [r4, #1]
10000fba:	4699      	mov	r9, r3
10000fbc:	2300      	movs	r3, #0
10000fbe:	ae03      	add	r6, sp, #12
10000fc0:	70a3      	strb	r3, [r4, #2]
10000fc2:	70e3      	strb	r3, [r4, #3]
10000fc4:	9303      	str	r3, [sp, #12]
10000fc6:	4698      	mov	r8, r3
10000fc8:	0032      	movs	r2, r6
10000fca:	3304      	adds	r3, #4
10000fcc:	0021      	movs	r1, r4
10000fce:	f000 fef9 	bl	10001dc4 <hal_spi_transfer>
10000fd2:	78f3      	ldrb	r3, [r6, #3]
10000fd4:	2b53      	cmp	r3, #83	; 0x53
10000fd6:	d020      	beq.n	1000101a <avr_detect+0x92>
10000fd8:	2101      	movs	r1, #1
10000fda:	7838      	ldrb	r0, [r7, #0]
10000fdc:	f000 fede 	bl	10001d9c <hal_gpio_write>
10000fe0:	2014      	movs	r0, #20
10000fe2:	f000 ff13 	bl	10001e0c <hal_timer_delay_ms>
10000fe6:	2100      	movs	r1, #0
10000fe8:	7838      	ldrb	r0, [r7, #0]
10000fea:	f000 fed7 	bl	10001d9c <hal_gpio_write>
10000fee:	201e      	movs	r0, #30
10000ff0:	f000 ff0c 	bl	10001e0c <hal_timer_delay_ms>
10000ff4:	686b      	ldr	r3, [r5, #4]
10000ff6:	0032      	movs	r2, r6
10000ff8:	6858      	ldr	r0, [r3, #4]
10000ffa:	4653      	mov	r3, sl
10000ffc:	7023      	strb	r3, [r4, #0]
10000ffe:	464b      	mov	r3, r9
10001000:	7063      	strb	r3, [r4, #1]
10001002:	4643      	mov	r3, r8
10001004:	0021      	movs	r1, r4
10001006:	70a3      	strb	r3, [r4, #2]
10001008:	70e3      	strb	r3, [r4, #3]
1000100a:	9303      	str	r3, [sp, #12]
1000100c:	3304      	adds	r3, #4
1000100e:	f000 fed9 	bl	10001dc4 <hal_spi_transfer>
10001012:	78f3      	ldrb	r3, [r6, #3]
10001014:	2b53      	cmp	r3, #83	; 0x53
10001016:	d000      	beq.n	1000101a <avr_detect+0x92>
10001018:	e07c      	b.n	10001114 <avr_detect+0x18c>
1000101a:	686b      	ldr	r3, [r5, #4]
1000101c:	0032      	movs	r2, r6
1000101e:	6858      	ldr	r0, [r3, #4]
10001020:	2330      	movs	r3, #48	; 0x30
10001022:	469b      	mov	fp, r3
10001024:	7023      	strb	r3, [r4, #0]
10001026:	2300      	movs	r3, #0
10001028:	0021      	movs	r1, r4
1000102a:	469a      	mov	sl, r3
1000102c:	7063      	strb	r3, [r4, #1]
1000102e:	70a3      	strb	r3, [r4, #2]
10001030:	70e3      	strb	r3, [r4, #3]
10001032:	9303      	str	r3, [sp, #12]
10001034:	3304      	adds	r3, #4
10001036:	f000 fec5 	bl	10001dc4 <hal_spi_transfer>
1000103a:	78f3      	ldrb	r3, [r6, #3]
1000103c:	0032      	movs	r2, r6
1000103e:	4698      	mov	r8, r3
10001040:	686b      	ldr	r3, [r5, #4]
10001042:	0021      	movs	r1, r4
10001044:	6858      	ldr	r0, [r3, #4]
10001046:	465b      	mov	r3, fp
10001048:	7023      	strb	r3, [r4, #0]
1000104a:	4653      	mov	r3, sl
1000104c:	7063      	strb	r3, [r4, #1]
1000104e:	3301      	adds	r3, #1
10001050:	70a3      	strb	r3, [r4, #2]
10001052:	4653      	mov	r3, sl
10001054:	70e3      	strb	r3, [r4, #3]
10001056:	9303      	str	r3, [sp, #12]
10001058:	3304      	adds	r3, #4
1000105a:	f000 feb3 	bl	10001dc4 <hal_spi_transfer>
1000105e:	78f3      	ldrb	r3, [r6, #3]
10001060:	0021      	movs	r1, r4
10001062:	4699      	mov	r9, r3
10001064:	686b      	ldr	r3, [r5, #4]
10001066:	0032      	movs	r2, r6
10001068:	6858      	ldr	r0, [r3, #4]
1000106a:	465b      	mov	r3, fp
1000106c:	7023      	strb	r3, [r4, #0]
1000106e:	4653      	mov	r3, sl
10001070:	7063      	strb	r3, [r4, #1]
10001072:	3302      	adds	r3, #2
10001074:	70a3      	strb	r3, [r4, #2]
10001076:	4653      	mov	r3, sl
10001078:	70e3      	strb	r3, [r4, #3]
1000107a:	9303      	str	r3, [sp, #12]
1000107c:	3304      	adds	r3, #4
1000107e:	f000 fea1 	bl	10001dc4 <hal_spi_transfer>
10001082:	4643      	mov	r3, r8
10001084:	0419      	lsls	r1, r3, #16
10001086:	464b      	mov	r3, r9
10001088:	78f0      	ldrb	r0, [r6, #3]
1000108a:	021b      	lsls	r3, r3, #8
1000108c:	4319      	orrs	r1, r3
1000108e:	4301      	orrs	r1, r0
10001090:	d040      	beq.n	10001114 <avr_detect+0x18c>
10001092:	4b25      	ldr	r3, [pc, #148]	; (10001128 <avr_detect+0x1a0>)
10001094:	4299      	cmp	r1, r3
10001096:	d03d      	beq.n	10001114 <avr_detect+0x18c>
10001098:	2348      	movs	r3, #72	; 0x48
1000109a:	2204      	movs	r2, #4
1000109c:	6529      	str	r1, [r5, #80]	; 0x50
1000109e:	54ea      	strb	r2, [r5, r3]
100010a0:	4b22      	ldr	r3, [pc, #136]	; (1000112c <avr_detect+0x1a4>)
100010a2:	2600      	movs	r6, #0
100010a4:	64eb      	str	r3, [r5, #76]	; 0x4c
100010a6:	4a22      	ldr	r2, [pc, #136]	; (10001130 <avr_detect+0x1a8>)
100010a8:	4b22      	ldr	r3, [pc, #136]	; (10001134 <avr_detect+0x1ac>)
100010aa:	4c23      	ldr	r4, [pc, #140]	; (10001138 <avr_detect+0x1b0>)
100010ac:	e005      	b.n	100010ba <avr_detect+0x132>
100010ae:	685c      	ldr	r4, [r3, #4]
100010b0:	3601      	adds	r6, #1
100010b2:	2c00      	cmp	r4, #0
100010b4:	d016      	beq.n	100010e4 <avr_detect+0x15c>
100010b6:	681a      	ldr	r2, [r3, #0]
100010b8:	3314      	adds	r3, #20
100010ba:	4291      	cmp	r1, r2
100010bc:	d1f7      	bne.n	100010ae <avr_detect+0x126>
100010be:	0028      	movs	r0, r5
100010c0:	223f      	movs	r2, #63	; 0x3f
100010c2:	0021      	movs	r1, r4
100010c4:	3008      	adds	r0, #8
100010c6:	f004 f94d 	bl	10005364 <strncpy>
100010ca:	00b3      	lsls	r3, r6, #2
100010cc:	199e      	adds	r6, r3, r6
100010ce:	4b1b      	ldr	r3, [pc, #108]	; (1000113c <avr_detect+0x1b4>)
100010d0:	00b6      	lsls	r6, r6, #2
100010d2:	199e      	adds	r6, r3, r6
100010d4:	68b3      	ldr	r3, [r6, #8]
100010d6:	68f2      	ldr	r2, [r6, #12]
100010d8:	2000      	movs	r0, #0
100010da:	656b      	str	r3, [r5, #84]	; 0x54
100010dc:	65aa      	str	r2, [r5, #88]	; 0x58
100010de:	607a      	str	r2, [r7, #4]
100010e0:	60bb      	str	r3, [r7, #8]
100010e2:	e010      	b.n	10001106 <avr_detect+0x17e>
100010e4:	002e      	movs	r6, r5
100010e6:	464b      	mov	r3, r9
100010e8:	3608      	adds	r6, #8
100010ea:	9001      	str	r0, [sp, #4]
100010ec:	9300      	str	r3, [sp, #0]
100010ee:	2140      	movs	r1, #64	; 0x40
100010f0:	4643      	mov	r3, r8
100010f2:	0030      	movs	r0, r6
100010f4:	4a12      	ldr	r2, [pc, #72]	; (10001140 <avr_detect+0x1b8>)
100010f6:	f003 fe29 	bl	10004d4c <__wrap_snprintf>
100010fa:	2340      	movs	r3, #64	; 0x40
100010fc:	2000      	movs	r0, #0
100010fe:	656c      	str	r4, [r5, #84]	; 0x54
10001100:	65ab      	str	r3, [r5, #88]	; 0x58
10001102:	607b      	str	r3, [r7, #4]
10001104:	60bc      	str	r4, [r7, #8]
10001106:	b005      	add	sp, #20
10001108:	bcf0      	pop	{r4, r5, r6, r7}
1000110a:	46bb      	mov	fp, r7
1000110c:	46b2      	mov	sl, r6
1000110e:	46a9      	mov	r9, r5
10001110:	46a0      	mov	r8, r4
10001112:	bdf0      	pop	{r4, r5, r6, r7, pc}
10001114:	7838      	ldrb	r0, [r7, #0]
10001116:	2101      	movs	r1, #1
10001118:	f000 fe40 	bl	10001d9c <hal_gpio_write>
1000111c:	200c      	movs	r0, #12
1000111e:	4240      	negs	r0, r0
10001120:	e7f1      	b.n	10001106 <avr_detect+0x17e>
10001122:	46c0      	nop			; (mov r8, r8)
10001124:	20000be8 	.word	0x20000be8
10001128:	00ffffff 	.word	0x00ffffff
1000112c:	0000061f 	.word	0x0000061f
10001130:	001e9502 	.word	0x001e9502
10001134:	100058ec 	.word	0x100058ec
10001138:	10005804 	.word	0x10005804
1000113c:	100058d8 	.word	0x100058d8
10001140:	10005810 	.word	0x10005810

10001144 <swd_ap_write.isra.0>:
10001144:	2310      	movs	r3, #16
10001146:	b530      	push	{r4, r5, lr}
10001148:	b085      	sub	sp, #20
1000114a:	ac02      	add	r4, sp, #8
1000114c:	4319      	orrs	r1, r3
1000114e:	0a13      	lsrs	r3, r2, #8
10001150:	7062      	strb	r2, [r4, #1]
10001152:	70a3      	strb	r3, [r4, #2]
10001154:	0c13      	lsrs	r3, r2, #16
10001156:	0e12      	lsrs	r2, r2, #24
10001158:	7021      	strb	r1, [r4, #0]
1000115a:	70e3      	strb	r3, [r4, #3]
1000115c:	7122      	strb	r2, [r4, #4]
1000115e:	2800      	cmp	r0, #0
10001160:	d00b      	beq.n	1000117a <swd_ap_write.isra.0+0x36>
10001162:	7b03      	ldrb	r3, [r0, #12]
10001164:	2b00      	cmp	r3, #0
10001166:	d008      	beq.n	1000117a <swd_ap_write.isra.0+0x36>
10001168:	6803      	ldr	r3, [r0, #0]
1000116a:	695d      	ldr	r5, [r3, #20]
1000116c:	2d00      	cmp	r5, #0
1000116e:	d004      	beq.n	1000117a <swd_ap_write.isra.0+0x36>
10001170:	2300      	movs	r3, #0
10001172:	2205      	movs	r2, #5
10001174:	0021      	movs	r1, r4
10001176:	9300      	str	r3, [sp, #0]
10001178:	47a8      	blx	r5
1000117a:	b005      	add	sp, #20
1000117c:	bd30      	pop	{r4, r5, pc}
1000117e:	46c0      	nop			; (mov r8, r8)

10001180 <swd_ap_read.constprop.0>:
10001180:	b530      	push	{r4, r5, lr}
10001182:	000d      	movs	r5, r1
10001184:	210b      	movs	r1, #11
10001186:	231c      	movs	r3, #28
10001188:	b085      	sub	sp, #20
1000118a:	4469      	add	r1, sp
1000118c:	700b      	strb	r3, [r1, #0]
1000118e:	2800      	cmp	r0, #0
10001190:	d011      	beq.n	100011b6 <swd_ap_read.constprop.0+0x36>
10001192:	7b03      	ldrb	r3, [r0, #12]
10001194:	2b00      	cmp	r3, #0
10001196:	d00e      	beq.n	100011b6 <swd_ap_read.constprop.0+0x36>
10001198:	6803      	ldr	r3, [r0, #0]
1000119a:	695c      	ldr	r4, [r3, #20]
1000119c:	2c00      	cmp	r4, #0
1000119e:	d00a      	beq.n	100011b6 <swd_ap_read.constprop.0+0x36>
100011a0:	2304      	movs	r3, #4
100011a2:	2201      	movs	r2, #1
100011a4:	9300      	str	r3, [sp, #0]
100011a6:	ab03      	add	r3, sp, #12
100011a8:	47a0      	blx	r4
100011aa:	2800      	cmp	r0, #0
100011ac:	d101      	bne.n	100011b2 <swd_ap_read.constprop.0+0x32>
100011ae:	9b03      	ldr	r3, [sp, #12]
100011b0:	602b      	str	r3, [r5, #0]
100011b2:	b005      	add	sp, #20
100011b4:	bd30      	pop	{r4, r5, pc}
100011b6:	2005      	movs	r0, #5
100011b8:	4240      	negs	r0, r0
100011ba:	e7fa      	b.n	100011b2 <swd_ap_read.constprop.0+0x32>

100011bc <stm32_detect>:
100011bc:	b5f0      	push	{r4, r5, r6, r7, lr}
100011be:	2700      	movs	r7, #0
100011c0:	4e32      	ldr	r6, [pc, #200]	; (1000128c <stm32_detect+0xd0>)
100011c2:	0004      	movs	r4, r0
100011c4:	6686      	str	r6, [r0, #104]	; 0x68
100011c6:	6840      	ldr	r0, [r0, #4]
100011c8:	b087      	sub	sp, #28
100011ca:	9703      	str	r7, [sp, #12]
100011cc:	2800      	cmp	r0, #0
100011ce:	d020      	beq.n	10001212 <stm32_detect+0x56>
100011d0:	7b03      	ldrb	r3, [r0, #12]
100011d2:	2b00      	cmp	r3, #0
100011d4:	d050      	beq.n	10001278 <stm32_detect+0xbc>
100011d6:	6802      	ldr	r2, [r0, #0]
100011d8:	6995      	ldr	r5, [r2, #24]
100011da:	2d00      	cmp	r5, #0
100011dc:	d04c      	beq.n	10001278 <stm32_detect+0xbc>
100011de:	ab03      	add	r3, sp, #12
100011e0:	a902      	add	r1, sp, #8
100011e2:	2201      	movs	r2, #1
100011e4:	47a8      	blx	r5
100011e6:	2304      	movs	r3, #4
100011e8:	a904      	add	r1, sp, #16
100011ea:	6860      	ldr	r0, [r4, #4]
100011ec:	700b      	strb	r3, [r1, #0]
100011ee:	334c      	adds	r3, #76	; 0x4c
100011f0:	704f      	strb	r7, [r1, #1]
100011f2:	708f      	strb	r7, [r1, #2]
100011f4:	70cf      	strb	r7, [r1, #3]
100011f6:	710b      	strb	r3, [r1, #4]
100011f8:	2800      	cmp	r0, #0
100011fa:	d00a      	beq.n	10001212 <stm32_detect+0x56>
100011fc:	7b03      	ldrb	r3, [r0, #12]
100011fe:	2b00      	cmp	r3, #0
10001200:	d007      	beq.n	10001212 <stm32_detect+0x56>
10001202:	6803      	ldr	r3, [r0, #0]
10001204:	695d      	ldr	r5, [r3, #20]
10001206:	2d00      	cmp	r5, #0
10001208:	d003      	beq.n	10001212 <stm32_detect+0x56>
1000120a:	2300      	movs	r3, #0
1000120c:	2205      	movs	r2, #5
1000120e:	9300      	str	r3, [sp, #0]
10001210:	47a8      	blx	r5
10001212:	200a      	movs	r0, #10
10001214:	f000 fdfa 	bl	10001e0c <hal_timer_delay_ms>
10001218:	2100      	movs	r1, #0
1000121a:	4a1d      	ldr	r2, [pc, #116]	; (10001290 <stm32_detect+0xd4>)
1000121c:	6860      	ldr	r0, [r4, #4]
1000121e:	f7ff ff91 	bl	10001144 <swd_ap_write.isra.0>
10001222:	2001      	movs	r0, #1
10001224:	f000 fdf2 	bl	10001e0c <hal_timer_delay_ms>
10001228:	6865      	ldr	r5, [r4, #4]
1000122a:	2104      	movs	r1, #4
1000122c:	0028      	movs	r0, r5
1000122e:	4a19      	ldr	r2, [pc, #100]	; (10001294 <stm32_detect+0xd8>)
10001230:	f7ff ff88 	bl	10001144 <swd_ap_write.isra.0>
10001234:	0028      	movs	r0, r5
10001236:	0031      	movs	r1, r6
10001238:	f7ff ffa2 	bl	10001180 <swd_ap_read.constprop.0>
1000123c:	1e05      	subs	r5, r0, #0
1000123e:	d118      	bne.n	10001272 <stm32_detect+0xb6>
10001240:	2380      	movs	r3, #128	; 0x80
10001242:	2180      	movs	r1, #128	; 0x80
10001244:	2280      	movs	r2, #128	; 0x80
10001246:	0289      	lsls	r1, r1, #10
10001248:	00d2      	lsls	r2, r2, #3
1000124a:	051b      	lsls	r3, r3, #20
1000124c:	2048      	movs	r0, #72	; 0x48
1000124e:	6073      	str	r3, [r6, #4]
10001250:	60b1      	str	r1, [r6, #8]
10001252:	6833      	ldr	r3, [r6, #0]
10001254:	60f2      	str	r2, [r6, #12]
10001256:	2605      	movs	r6, #5
10001258:	6523      	str	r3, [r4, #80]	; 0x50
1000125a:	5426      	strb	r6, [r4, r0]
1000125c:	3829      	subs	r0, #41	; 0x29
1000125e:	64e0      	str	r0, [r4, #76]	; 0x4c
10001260:	0020      	movs	r0, r4
10001262:	6561      	str	r1, [r4, #84]	; 0x54
10001264:	65a2      	str	r2, [r4, #88]	; 0x58
10001266:	65e2      	str	r2, [r4, #92]	; 0x5c
10001268:	2140      	movs	r1, #64	; 0x40
1000126a:	4a0b      	ldr	r2, [pc, #44]	; (10001298 <stm32_detect+0xdc>)
1000126c:	3008      	adds	r0, #8
1000126e:	f003 fd6d 	bl	10004d4c <__wrap_snprintf>
10001272:	0028      	movs	r0, r5
10001274:	b007      	add	sp, #28
10001276:	bdf0      	pop	{r4, r5, r6, r7, pc}
10001278:	2204      	movs	r2, #4
1000127a:	a904      	add	r1, sp, #16
1000127c:	700a      	strb	r2, [r1, #0]
1000127e:	2200      	movs	r2, #0
10001280:	704a      	strb	r2, [r1, #1]
10001282:	708a      	strb	r2, [r1, #2]
10001284:	70ca      	strb	r2, [r1, #3]
10001286:	3250      	adds	r2, #80	; 0x50
10001288:	710a      	strb	r2, [r1, #4]
1000128a:	e7b8      	b.n	100011fe <stm32_detect+0x42>
1000128c:	20001d0c 	.word	0x20001d0c
10001290:	23000052 	.word	0x23000052
10001294:	e000ed00 	.word	0xe000ed00
10001298:	100059dc 	.word	0x100059dc

1000129c <flash_wait.isra.0>:
1000129c:	b5f0      	push	{r4, r5, r6, r7, lr}
1000129e:	46ce      	mov	lr, r9
100012a0:	4647      	mov	r7, r8
100012a2:	b580      	push	{r7, lr}
100012a4:	b083      	sub	sp, #12
100012a6:	000d      	movs	r5, r1
100012a8:	0004      	movs	r4, r0
100012aa:	f000 fdb3 	bl	10001e14 <hal_timer_get_us>
100012ae:	22fa      	movs	r2, #250	; 0xfa
100012b0:	2300      	movs	r3, #0
100012b2:	0006      	movs	r6, r0
100012b4:	000f      	movs	r7, r1
100012b6:	0028      	movs	r0, r5
100012b8:	2100      	movs	r1, #0
100012ba:	0092      	lsls	r2, r2, #2
100012bc:	f002 fb74 	bl	100039a8 <__wrap___aeabi_lmul>
100012c0:	2301      	movs	r3, #1
100012c2:	4680      	mov	r8, r0
100012c4:	000d      	movs	r5, r1
100012c6:	4699      	mov	r9, r3
100012c8:	e00f      	b.n	100012ea <flash_wait.isra.0+0x4e>
100012ca:	4a0f      	ldr	r2, [pc, #60]	; (10001308 <flash_wait.isra.0+0x6c>)
100012cc:	2104      	movs	r1, #4
100012ce:	0020      	movs	r0, r4
100012d0:	f7ff ff38 	bl	10001144 <swd_ap_write.isra.0>
100012d4:	0020      	movs	r0, r4
100012d6:	a901      	add	r1, sp, #4
100012d8:	f7ff ff52 	bl	10001180 <swd_ap_read.constprop.0>
100012dc:	464a      	mov	r2, r9
100012de:	9b01      	ldr	r3, [sp, #4]
100012e0:	4213      	tst	r3, r2
100012e2:	d00b      	beq.n	100012fc <flash_wait.isra.0+0x60>
100012e4:	2064      	movs	r0, #100	; 0x64
100012e6:	f000 fd8d 	bl	10001e04 <hal_timer_delay_us>
100012ea:	f000 fd93 	bl	10001e14 <hal_timer_get_us>
100012ee:	1b80      	subs	r0, r0, r6
100012f0:	41b9      	sbcs	r1, r7
100012f2:	428d      	cmp	r5, r1
100012f4:	d8e9      	bhi.n	100012ca <flash_wait.isra.0+0x2e>
100012f6:	d101      	bne.n	100012fc <flash_wait.isra.0+0x60>
100012f8:	4580      	cmp	r8, r0
100012fa:	d8e6      	bhi.n	100012ca <flash_wait.isra.0+0x2e>
100012fc:	b003      	add	sp, #12
100012fe:	bcc0      	pop	{r6, r7}
10001300:	46b9      	mov	r9, r7
10001302:	46b0      	mov	r8, r6
10001304:	bdf0      	pop	{r4, r5, r6, r7, pc}
10001306:	46c0      	nop			; (mov r8, r8)
10001308:	4002200c 	.word	0x4002200c

1000130c <stm32_read>:
1000130c:	b5f0      	push	{r4, r5, r6, r7, lr}
1000130e:	4657      	mov	r7, sl
10001310:	464e      	mov	r6, r9
10001312:	4645      	mov	r5, r8
10001314:	46de      	mov	lr, fp
10001316:	b5e0      	push	{r5, r6, r7, lr}
10001318:	b083      	sub	sp, #12
1000131a:	1e1f      	subs	r7, r3, #0
1000131c:	9b0c      	ldr	r3, [sp, #48]	; 0x30
1000131e:	4681      	mov	r9, r0
10001320:	468a      	mov	sl, r1
10001322:	4698      	mov	r8, r3
10001324:	d02c      	beq.n	10001380 <stm32_read+0x74>
10001326:	23ff      	movs	r3, #255	; 0xff
10001328:	0014      	movs	r4, r2
1000132a:	2500      	movs	r5, #0
1000132c:	469b      	mov	fp, r3
1000132e:	464b      	mov	r3, r9
10001330:	685e      	ldr	r6, [r3, #4]
10001332:	4653      	mov	r3, sl
10001334:	2104      	movs	r1, #4
10001336:	0030      	movs	r0, r6
10001338:	18ea      	adds	r2, r5, r3
1000133a:	f7ff ff03 	bl	10001144 <swd_ap_write.isra.0>
1000133e:	0030      	movs	r0, r6
10001340:	a901      	add	r1, sp, #4
10001342:	f7ff ff1d 	bl	10001180 <swd_ap_read.constprop.0>
10001346:	2800      	cmp	r0, #0
10001348:	d122      	bne.n	10001390 <stm32_read+0x84>
1000134a:	1b79      	subs	r1, r7, r5
1000134c:	2904      	cmp	r1, #4
1000134e:	d900      	bls.n	10001352 <stm32_read+0x46>
10001350:	2104      	movs	r1, #4
10001352:	2300      	movs	r3, #0
10001354:	9801      	ldr	r0, [sp, #4]
10001356:	0006      	movs	r6, r0
10001358:	00da      	lsls	r2, r3, #3
1000135a:	40d6      	lsrs	r6, r2
1000135c:	54e6      	strb	r6, [r4, r3]
1000135e:	3301      	adds	r3, #1
10001360:	4299      	cmp	r1, r3
10001362:	d1f8      	bne.n	10001356 <stm32_read+0x4a>
10001364:	4643      	mov	r3, r8
10001366:	3504      	adds	r5, #4
10001368:	2b00      	cmp	r3, #0
1000136a:	d006      	beq.n	1000137a <stm32_read+0x6e>
1000136c:	465b      	mov	r3, fp
1000136e:	422b      	tst	r3, r5
10001370:	d103      	bne.n	1000137a <stm32_read+0x6e>
10001372:	0039      	movs	r1, r7
10001374:	0028      	movs	r0, r5
10001376:	9a0d      	ldr	r2, [sp, #52]	; 0x34
10001378:	47c0      	blx	r8
1000137a:	3404      	adds	r4, #4
1000137c:	42af      	cmp	r7, r5
1000137e:	d8d6      	bhi.n	1000132e <stm32_read+0x22>
10001380:	4643      	mov	r3, r8
10001382:	2b00      	cmp	r3, #0
10001384:	d00b      	beq.n	1000139e <stm32_read+0x92>
10001386:	0038      	movs	r0, r7
10001388:	0039      	movs	r1, r7
1000138a:	9a0d      	ldr	r2, [sp, #52]	; 0x34
1000138c:	47c0      	blx	r8
1000138e:	2000      	movs	r0, #0
10001390:	b003      	add	sp, #12
10001392:	bcf0      	pop	{r4, r5, r6, r7}
10001394:	46bb      	mov	fp, r7
10001396:	46b2      	mov	sl, r6
10001398:	46a9      	mov	r9, r5
1000139a:	46a0      	mov	r8, r4
1000139c:	bdf0      	pop	{r4, r5, r6, r7, pc}
1000139e:	2000      	movs	r0, #0
100013a0:	e7f6      	b.n	10001390 <stm32_read+0x84>
100013a2:	46c0      	nop			; (mov r8, r8)

100013a4 <stm32_verify>:
100013a4:	b5f0      	push	{r4, r5, r6, r7, lr}
100013a6:	464e      	mov	r6, r9
100013a8:	4657      	mov	r7, sl
100013aa:	4645      	mov	r5, r8
100013ac:	46de      	mov	lr, fp
100013ae:	b5e0      	push	{r5, r6, r7, lr}
100013b0:	4681      	mov	r9, r0
100013b2:	468a      	mov	sl, r1
100013b4:	4690      	mov	r8, r2
100013b6:	001e      	movs	r6, r3
100013b8:	b0c3      	sub	sp, #268	; 0x10c
100013ba:	2b00      	cmp	r3, #0
100013bc:	d02e      	beq.n	1000141c <stm32_verify+0x78>
100013be:	2380      	movs	r3, #128	; 0x80
100013c0:	005b      	lsls	r3, r3, #1
100013c2:	2400      	movs	r4, #0
100013c4:	469b      	mov	fp, r3
100013c6:	2700      	movs	r7, #0
100013c8:	e011      	b.n	100013ee <stm32_verify+0x4a>
100013ca:	4643      	mov	r3, r8
100013cc:	002a      	movs	r2, r5
100013ce:	1919      	adds	r1, r3, r4
100013d0:	a802      	add	r0, sp, #8
100013d2:	f003 ff31 	bl	10005238 <memcmp>
100013d6:	2800      	cmp	r0, #0
100013d8:	d122      	bne.n	10001420 <stm32_verify+0x7c>
100013da:	9b4c      	ldr	r3, [sp, #304]	; 0x130
100013dc:	1964      	adds	r4, r4, r5
100013de:	2b00      	cmp	r3, #0
100013e0:	d003      	beq.n	100013ea <stm32_verify+0x46>
100013e2:	0031      	movs	r1, r6
100013e4:	0020      	movs	r0, r4
100013e6:	9a4d      	ldr	r2, [sp, #308]	; 0x134
100013e8:	4798      	blx	r3
100013ea:	42a6      	cmp	r6, r4
100013ec:	d916      	bls.n	1000141c <stm32_verify+0x78>
100013ee:	1b35      	subs	r5, r6, r4
100013f0:	455d      	cmp	r5, fp
100013f2:	d901      	bls.n	100013f8 <stm32_verify+0x54>
100013f4:	2580      	movs	r5, #128	; 0x80
100013f6:	006d      	lsls	r5, r5, #1
100013f8:	4653      	mov	r3, sl
100013fa:	4648      	mov	r0, r9
100013fc:	1919      	adds	r1, r3, r4
100013fe:	9701      	str	r7, [sp, #4]
10001400:	002b      	movs	r3, r5
10001402:	9700      	str	r7, [sp, #0]
10001404:	aa02      	add	r2, sp, #8
10001406:	f7ff ff81 	bl	1000130c <stm32_read>
1000140a:	2800      	cmp	r0, #0
1000140c:	d0dd      	beq.n	100013ca <stm32_verify+0x26>
1000140e:	b043      	add	sp, #268	; 0x10c
10001410:	bcf0      	pop	{r4, r5, r6, r7}
10001412:	46bb      	mov	fp, r7
10001414:	46b2      	mov	sl, r6
10001416:	46a9      	mov	r9, r5
10001418:	46a0      	mov	r8, r4
1000141a:	bdf0      	pop	{r4, r5, r6, r7, pc}
1000141c:	2000      	movs	r0, #0
1000141e:	e7f6      	b.n	1000140e <stm32_verify+0x6a>
10001420:	200a      	movs	r0, #10
10001422:	4240      	negs	r0, r0
10001424:	e7f3      	b.n	1000140e <stm32_verify+0x6a>
10001426:	46c0      	nop			; (mov r8, r8)

10001428 <stm32_deinit>:
10001428:	b570      	push	{r4, r5, r6, lr}
1000142a:	6845      	ldr	r5, [r0, #4]
1000142c:	0004      	movs	r4, r0
1000142e:	0028      	movs	r0, r5
10001430:	2104      	movs	r1, #4
10001432:	4a06      	ldr	r2, [pc, #24]	; (1000144c <stm32_deinit+0x24>)
10001434:	f7ff fe86 	bl	10001144 <swd_ap_write.isra.0>
10001438:	0028      	movs	r0, r5
1000143a:	210c      	movs	r1, #12
1000143c:	4a04      	ldr	r2, [pc, #16]	; (10001450 <stm32_deinit+0x28>)
1000143e:	f7ff fe81 	bl	10001144 <swd_ap_write.isra.0>
10001442:	236c      	movs	r3, #108	; 0x6c
10001444:	2200      	movs	r2, #0
10001446:	2000      	movs	r0, #0
10001448:	54e2      	strb	r2, [r4, r3]
1000144a:	bd70      	pop	{r4, r5, r6, pc}
1000144c:	e000edf0 	.word	0xe000edf0
10001450:	a05f0000 	.word	0xa05f0000

10001454 <stm32_init>:
10001454:	b570      	push	{r4, r5, r6, lr}
10001456:	6845      	ldr	r5, [r0, #4]
10001458:	0004      	movs	r4, r0
1000145a:	0028      	movs	r0, r5
1000145c:	2104      	movs	r1, #4
1000145e:	4a08      	ldr	r2, [pc, #32]	; (10001480 <stm32_init+0x2c>)
10001460:	f7ff fe70 	bl	10001144 <swd_ap_write.isra.0>
10001464:	0028      	movs	r0, r5
10001466:	210c      	movs	r1, #12
10001468:	4a06      	ldr	r2, [pc, #24]	; (10001484 <stm32_init+0x30>)
1000146a:	f7ff fe6b 	bl	10001144 <swd_ap_write.isra.0>
1000146e:	200a      	movs	r0, #10
10001470:	f000 fccc 	bl	10001e0c <hal_timer_delay_ms>
10001474:	236c      	movs	r3, #108	; 0x6c
10001476:	2201      	movs	r2, #1
10001478:	2000      	movs	r0, #0
1000147a:	54e2      	strb	r2, [r4, r3]
1000147c:	bd70      	pop	{r4, r5, r6, pc}
1000147e:	46c0      	nop			; (mov r8, r8)
10001480:	e000edf0 	.word	0xe000edf0
10001484:	a05f0003 	.word	0xa05f0003

10001488 <stm32_erase>:
10001488:	b5f8      	push	{r3, r4, r5, r6, r7, lr}
1000148a:	46de      	mov	lr, fp
1000148c:	4645      	mov	r5, r8
1000148e:	4657      	mov	r7, sl
10001490:	464e      	mov	r6, r9
10001492:	6844      	ldr	r4, [r0, #4]
10001494:	4698      	mov	r8, r3
10001496:	6e83      	ldr	r3, [r0, #104]	; 0x68
10001498:	b5e0      	push	{r5, r6, r7, lr}
1000149a:	468a      	mov	sl, r1
1000149c:	0016      	movs	r6, r2
1000149e:	2104      	movs	r1, #4
100014a0:	4a30      	ldr	r2, [pc, #192]	; (10001564 <stm32_erase+0xdc>)
100014a2:	0005      	movs	r5, r0
100014a4:	0020      	movs	r0, r4
100014a6:	469b      	mov	fp, r3
100014a8:	f7ff fe4c 	bl	10001144 <swd_ap_write.isra.0>
100014ac:	210c      	movs	r1, #12
100014ae:	0020      	movs	r0, r4
100014b0:	4a2d      	ldr	r2, [pc, #180]	; (10001568 <stm32_erase+0xe0>)
100014b2:	f7ff fe47 	bl	10001144 <swd_ap_write.isra.0>
100014b6:	2104      	movs	r1, #4
100014b8:	0020      	movs	r0, r4
100014ba:	4a2a      	ldr	r2, [pc, #168]	; (10001564 <stm32_erase+0xdc>)
100014bc:	f7ff fe42 	bl	10001144 <swd_ap_write.isra.0>
100014c0:	210c      	movs	r1, #12
100014c2:	0020      	movs	r0, r4
100014c4:	4a29      	ldr	r2, [pc, #164]	; (1000156c <stm32_erase+0xe4>)
100014c6:	f7ff fe3d 	bl	10001144 <swd_ap_write.isra.0>
100014ca:	2e00      	cmp	r6, #0
100014cc:	d038      	beq.n	10001540 <stm32_erase+0xb8>
100014ce:	2400      	movs	r4, #0
100014d0:	46a1      	mov	r9, r4
100014d2:	686f      	ldr	r7, [r5, #4]
100014d4:	2104      	movs	r1, #4
100014d6:	0038      	movs	r0, r7
100014d8:	4a25      	ldr	r2, [pc, #148]	; (10001570 <stm32_erase+0xe8>)
100014da:	f7ff fe33 	bl	10001144 <swd_ap_write.isra.0>
100014de:	0038      	movs	r0, r7
100014e0:	2202      	movs	r2, #2
100014e2:	210c      	movs	r1, #12
100014e4:	f7ff fe2e 	bl	10001144 <swd_ap_write.isra.0>
100014e8:	686f      	ldr	r7, [r5, #4]
100014ea:	2104      	movs	r1, #4
100014ec:	0038      	movs	r0, r7
100014ee:	4a21      	ldr	r2, [pc, #132]	; (10001574 <stm32_erase+0xec>)
100014f0:	44d1      	add	r9, sl
100014f2:	f7ff fe27 	bl	10001144 <swd_ap_write.isra.0>
100014f6:	0038      	movs	r0, r7
100014f8:	464a      	mov	r2, r9
100014fa:	210c      	movs	r1, #12
100014fc:	f7ff fe22 	bl	10001144 <swd_ap_write.isra.0>
10001500:	686f      	ldr	r7, [r5, #4]
10001502:	2104      	movs	r1, #4
10001504:	0038      	movs	r0, r7
10001506:	4a1a      	ldr	r2, [pc, #104]	; (10001570 <stm32_erase+0xe8>)
10001508:	f7ff fe1c 	bl	10001144 <swd_ap_write.isra.0>
1000150c:	2242      	movs	r2, #66	; 0x42
1000150e:	210c      	movs	r1, #12
10001510:	0038      	movs	r0, r7
10001512:	f7ff fe17 	bl	10001144 <swd_ap_write.isra.0>
10001516:	21fa      	movs	r1, #250	; 0xfa
10001518:	6868      	ldr	r0, [r5, #4]
1000151a:	0089      	lsls	r1, r1, #2
1000151c:	f7ff febe 	bl	1000129c <flash_wait.isra.0>
10001520:	465b      	mov	r3, fp
10001522:	68db      	ldr	r3, [r3, #12]
10001524:	469c      	mov	ip, r3
10001526:	4643      	mov	r3, r8
10001528:	4464      	add	r4, ip
1000152a:	2b00      	cmp	r3, #0
1000152c:	d006      	beq.n	1000153c <stm32_erase+0xb4>
1000152e:	0030      	movs	r0, r6
10001530:	42a6      	cmp	r6, r4
10001532:	d900      	bls.n	10001536 <stm32_erase+0xae>
10001534:	0020      	movs	r0, r4
10001536:	0031      	movs	r1, r6
10001538:	9a0a      	ldr	r2, [sp, #40]	; 0x28
1000153a:	47c0      	blx	r8
1000153c:	42a6      	cmp	r6, r4
1000153e:	d8c7      	bhi.n	100014d0 <stm32_erase+0x48>
10001540:	686c      	ldr	r4, [r5, #4]
10001542:	2104      	movs	r1, #4
10001544:	0020      	movs	r0, r4
10001546:	4a0a      	ldr	r2, [pc, #40]	; (10001570 <stm32_erase+0xe8>)
10001548:	f7ff fdfc 	bl	10001144 <swd_ap_write.isra.0>
1000154c:	0020      	movs	r0, r4
1000154e:	2200      	movs	r2, #0
10001550:	210c      	movs	r1, #12
10001552:	f7ff fdf7 	bl	10001144 <swd_ap_write.isra.0>
10001556:	2000      	movs	r0, #0
10001558:	bcf0      	pop	{r4, r5, r6, r7}
1000155a:	46bb      	mov	fp, r7
1000155c:	46b2      	mov	sl, r6
1000155e:	46a9      	mov	r9, r5
10001560:	46a0      	mov	r8, r4
10001562:	bdf8      	pop	{r3, r4, r5, r6, r7, pc}
10001564:	40022004 	.word	0x40022004
10001568:	45670123 	.word	0x45670123
1000156c:	cdef89ab 	.word	0xcdef89ab
10001570:	40022010 	.word	0x40022010
10001574:	40022014 	.word	0x40022014

10001578 <stm32_write>:
10001578:	b5f8      	push	{r3, r4, r5, r6, r7, lr}
1000157a:	46de      	mov	lr, fp
1000157c:	464e      	mov	r6, r9
1000157e:	4645      	mov	r5, r8
10001580:	4657      	mov	r7, sl
10001582:	4698      	mov	r8, r3
10001584:	b5e0      	push	{r5, r6, r7, lr}
10001586:	9b0a      	ldr	r3, [sp, #40]	; 0x28
10001588:	6845      	ldr	r5, [r0, #4]
1000158a:	4699      	mov	r9, r3
1000158c:	9b0b      	ldr	r3, [sp, #44]	; 0x2c
1000158e:	0004      	movs	r4, r0
10001590:	468a      	mov	sl, r1
10001592:	0028      	movs	r0, r5
10001594:	2104      	movs	r1, #4
10001596:	0016      	movs	r6, r2
10001598:	4a35      	ldr	r2, [pc, #212]	; (10001670 <stm32_write+0xf8>)
1000159a:	469b      	mov	fp, r3
1000159c:	f7ff fdd2 	bl	10001144 <swd_ap_write.isra.0>
100015a0:	210c      	movs	r1, #12
100015a2:	0028      	movs	r0, r5
100015a4:	4a33      	ldr	r2, [pc, #204]	; (10001674 <stm32_write+0xfc>)
100015a6:	f7ff fdcd 	bl	10001144 <swd_ap_write.isra.0>
100015aa:	2104      	movs	r1, #4
100015ac:	0028      	movs	r0, r5
100015ae:	4a30      	ldr	r2, [pc, #192]	; (10001670 <stm32_write+0xf8>)
100015b0:	f7ff fdc8 	bl	10001144 <swd_ap_write.isra.0>
100015b4:	210c      	movs	r1, #12
100015b6:	0028      	movs	r0, r5
100015b8:	4a2f      	ldr	r2, [pc, #188]	; (10001678 <stm32_write+0x100>)
100015ba:	f7ff fdc3 	bl	10001144 <swd_ap_write.isra.0>
100015be:	4643      	mov	r3, r8
100015c0:	2b00      	cmp	r3, #0
100015c2:	d03c      	beq.n	1000163e <stm32_write+0xc6>
100015c4:	2500      	movs	r5, #0
100015c6:	e029      	b.n	1000161c <stm32_write+0xa4>
100015c8:	7873      	ldrb	r3, [r6, #1]
100015ca:	021b      	lsls	r3, r3, #8
100015cc:	431f      	orrs	r7, r3
100015ce:	2100      	movs	r1, #0
100015d0:	4a2a      	ldr	r2, [pc, #168]	; (1000167c <stm32_write+0x104>)
100015d2:	6860      	ldr	r0, [r4, #4]
100015d4:	f7ff fdb6 	bl	10001144 <swd_ap_write.isra.0>
100015d8:	4653      	mov	r3, sl
100015da:	2104      	movs	r1, #4
100015dc:	195a      	adds	r2, r3, r5
100015de:	6860      	ldr	r0, [r4, #4]
100015e0:	f7ff fdb0 	bl	10001144 <swd_ap_write.isra.0>
100015e4:	003a      	movs	r2, r7
100015e6:	210c      	movs	r1, #12
100015e8:	6860      	ldr	r0, [r4, #4]
100015ea:	f7ff fdab 	bl	10001144 <swd_ap_write.isra.0>
100015ee:	2164      	movs	r1, #100	; 0x64
100015f0:	6860      	ldr	r0, [r4, #4]
100015f2:	f7ff fe53 	bl	1000129c <flash_wait.isra.0>
100015f6:	2100      	movs	r1, #0
100015f8:	4a21      	ldr	r2, [pc, #132]	; (10001680 <stm32_write+0x108>)
100015fa:	6860      	ldr	r0, [r4, #4]
100015fc:	f7ff fda2 	bl	10001144 <swd_ap_write.isra.0>
10001600:	464b      	mov	r3, r9
10001602:	2b00      	cmp	r3, #0
10001604:	d006      	beq.n	10001614 <stm32_write+0x9c>
10001606:	23ff      	movs	r3, #255	; 0xff
10001608:	422b      	tst	r3, r5
1000160a:	d103      	bne.n	10001614 <stm32_write+0x9c>
1000160c:	465a      	mov	r2, fp
1000160e:	4641      	mov	r1, r8
10001610:	0028      	movs	r0, r5
10001612:	47c8      	blx	r9
10001614:	3502      	adds	r5, #2
10001616:	3602      	adds	r6, #2
10001618:	45a8      	cmp	r8, r5
1000161a:	d910      	bls.n	1000163e <stm32_write+0xc6>
1000161c:	6867      	ldr	r7, [r4, #4]
1000161e:	2104      	movs	r1, #4
10001620:	0038      	movs	r0, r7
10001622:	4a18      	ldr	r2, [pc, #96]	; (10001684 <stm32_write+0x10c>)
10001624:	f7ff fd8e 	bl	10001144 <swd_ap_write.isra.0>
10001628:	0038      	movs	r0, r7
1000162a:	2201      	movs	r2, #1
1000162c:	210c      	movs	r1, #12
1000162e:	f7ff fd89 	bl	10001144 <swd_ap_write.isra.0>
10001632:	1c6b      	adds	r3, r5, #1
10001634:	7837      	ldrb	r7, [r6, #0]
10001636:	4543      	cmp	r3, r8
10001638:	d3c6      	bcc.n	100015c8 <stm32_write+0x50>
1000163a:	b2bf      	uxth	r7, r7
1000163c:	e7c7      	b.n	100015ce <stm32_write+0x56>
1000163e:	6864      	ldr	r4, [r4, #4]
10001640:	2104      	movs	r1, #4
10001642:	0020      	movs	r0, r4
10001644:	4a0f      	ldr	r2, [pc, #60]	; (10001684 <stm32_write+0x10c>)
10001646:	f7ff fd7d 	bl	10001144 <swd_ap_write.isra.0>
1000164a:	2200      	movs	r2, #0
1000164c:	210c      	movs	r1, #12
1000164e:	0020      	movs	r0, r4
10001650:	f7ff fd78 	bl	10001144 <swd_ap_write.isra.0>
10001654:	464b      	mov	r3, r9
10001656:	2b00      	cmp	r3, #0
10001658:	d003      	beq.n	10001662 <stm32_write+0xea>
1000165a:	465a      	mov	r2, fp
1000165c:	4641      	mov	r1, r8
1000165e:	4640      	mov	r0, r8
10001660:	47c8      	blx	r9
10001662:	2000      	movs	r0, #0
10001664:	bcf0      	pop	{r4, r5, r6, r7}
10001666:	46bb      	mov	fp, r7
10001668:	46b2      	mov	sl, r6
1000166a:	46a9      	mov	r9, r5
1000166c:	46a0      	mov	r8, r4
1000166e:	bdf8      	pop	{r3, r4, r5, r6, r7, pc}
10001670:	40022004 	.word	0x40022004
10001674:	45670123 	.word	0x45670123
10001678:	cdef89ab 	.word	0xcdef89ab
1000167c:	23000051 	.word	0x23000051
10001680:	23000052 	.word	0x23000052
10001684:	40022010 	.word	0x40022010

10001688 <up_log_output>:
10001688:	b40c      	push	{r2, r3}
1000168a:	b5f0      	push	{r4, r5, r6, r7, lr}
1000168c:	0004      	movs	r4, r0
1000168e:	000e      	movs	r6, r1
10001690:	b083      	sub	sp, #12
10001692:	2804      	cmp	r0, #4
10001694:	d822      	bhi.n	100016dc <up_log_output+0x54>
10001696:	f000 fbc1 	bl	10001e1c <hal_timer_get_ms>
1000169a:	21fa      	movs	r1, #250	; 0xfa
1000169c:	0089      	lsls	r1, r1, #2
1000169e:	0005      	movs	r5, r0
100016a0:	f001 fb7a 	bl	10002d98 <__wrap___aeabi_uidiv>
100016a4:	000f      	movs	r7, r1
100016a6:	21fa      	movs	r1, #250	; 0xfa
100016a8:	0028      	movs	r0, r5
100016aa:	0089      	lsls	r1, r1, #2
100016ac:	f001 fb74 	bl	10002d98 <__wrap___aeabi_uidiv>
100016b0:	003a      	movs	r2, r7
100016b2:	0001      	movs	r1, r0
100016b4:	480c      	ldr	r0, [pc, #48]	; (100016e8 <up_log_output+0x60>)
100016b6:	f003 fd75 	bl	100051a4 <__wrap_printf>
100016ba:	4b0c      	ldr	r3, [pc, #48]	; (100016ec <up_log_output+0x64>)
100016bc:	00a4      	lsls	r4, r4, #2
100016be:	58e2      	ldr	r2, [r4, r3]
100016c0:	4b0b      	ldr	r3, [pc, #44]	; (100016f0 <up_log_output+0x68>)
100016c2:	480c      	ldr	r0, [pc, #48]	; (100016f4 <up_log_output+0x6c>)
100016c4:	58e1      	ldr	r1, [r4, r3]
100016c6:	0033      	movs	r3, r6
100016c8:	f003 fd6c 	bl	100051a4 <__wrap_printf>
100016cc:	a909      	add	r1, sp, #36	; 0x24
100016ce:	9808      	ldr	r0, [sp, #32]
100016d0:	9101      	str	r1, [sp, #4]
100016d2:	f003 fd25 	bl	10005120 <__wrap_vprintf>
100016d6:	200a      	movs	r0, #10
100016d8:	f003 fcfa 	bl	100050d0 <__wrap_putchar>
100016dc:	b003      	add	sp, #12
100016de:	bcf0      	pop	{r4, r5, r6, r7}
100016e0:	bc08      	pop	{r3}
100016e2:	b002      	add	sp, #8
100016e4:	4718      	bx	r3
100016e6:	46c0      	nop			; (mov r8, r8)
100016e8:	10005a28 	.word	0x10005a28
100016ec:	10005aac 	.word	0x10005aac
100016f0:	10005a98 	.word	0x10005a98
100016f4:	10005a38 	.word	0x10005a38

100016f8 <cli_init>:
100016f8:	2200      	movs	r2, #0
100016fa:	4b07      	ldr	r3, [pc, #28]	; (10001718 <cli_init+0x20>)
100016fc:	2000      	movs	r0, #0
100016fe:	601a      	str	r2, [r3, #0]
10001700:	4b06      	ldr	r3, [pc, #24]	; (1000171c <cli_init+0x24>)
10001702:	4a07      	ldr	r2, [pc, #28]	; (10001720 <cli_init+0x28>)
10001704:	0019      	movs	r1, r3
10001706:	6013      	str	r3, [r2, #0]
10001708:	3110      	adds	r1, #16
1000170a:	3320      	adds	r3, #32
1000170c:	6093      	str	r3, [r2, #8]
1000170e:	6051      	str	r1, [r2, #4]
10001710:	2203      	movs	r2, #3
10001712:	4b04      	ldr	r3, [pc, #16]	; (10001724 <cli_init+0x2c>)
10001714:	601a      	str	r2, [r3, #0]
10001716:	4770      	bx	lr
10001718:	20000c88 	.word	0x20000c88
1000171c:	10005d6c 	.word	0x10005d6c
10001720:	20000bf8 	.word	0x20000bf8
10001724:	20000bf4 	.word	0x20000bf4

10001728 <cli_register>:
10001728:	2800      	cmp	r0, #0
1000172a:	d00a      	beq.n	10001742 <cli_register+0x1a>
1000172c:	4a06      	ldr	r2, [pc, #24]	; (10001748 <cli_register+0x20>)
1000172e:	6813      	ldr	r3, [r2, #0]
10001730:	2b1f      	cmp	r3, #31
10001732:	d806      	bhi.n	10001742 <cli_register+0x1a>
10001734:	1c59      	adds	r1, r3, #1
10001736:	6011      	str	r1, [r2, #0]
10001738:	4a04      	ldr	r2, [pc, #16]	; (1000174c <cli_register+0x24>)
1000173a:	009b      	lsls	r3, r3, #2
1000173c:	5098      	str	r0, [r3, r2]
1000173e:	2000      	movs	r0, #0
10001740:	4770      	bx	lr
10001742:	200d      	movs	r0, #13
10001744:	4240      	negs	r0, r0
10001746:	e7fb      	b.n	10001740 <cli_register+0x18>
10001748:	20000bf4 	.word	0x20000bf4
1000174c:	20000bf8 	.word	0x20000bf8

10001750 <cli_printf>:
10001750:	b40f      	push	{r0, r1, r2, r3}
10001752:	b500      	push	{lr}
10001754:	b083      	sub	sp, #12
10001756:	a904      	add	r1, sp, #16
10001758:	c901      	ldmia	r1!, {r0}
1000175a:	9101      	str	r1, [sp, #4]
1000175c:	f003 fce0 	bl	10005120 <__wrap_vprintf>
10001760:	b003      	add	sp, #12
10001762:	bc08      	pop	{r3}
10001764:	b004      	add	sp, #16
10001766:	4718      	bx	r3

10001768 <cmd_version>:
10001768:	b510      	push	{r4, lr}
1000176a:	4a05      	ldr	r2, [pc, #20]	; (10001780 <cmd_version+0x18>)
1000176c:	4905      	ldr	r1, [pc, #20]	; (10001784 <cmd_version+0x1c>)
1000176e:	4806      	ldr	r0, [pc, #24]	; (10001788 <cmd_version+0x20>)
10001770:	f7ff ffee 	bl	10001750 <cli_printf>
10001774:	4805      	ldr	r0, [pc, #20]	; (1000178c <cmd_version+0x24>)
10001776:	4906      	ldr	r1, [pc, #24]	; (10001790 <cmd_version+0x28>)
10001778:	f7ff ffea 	bl	10001750 <cli_printf>
1000177c:	2000      	movs	r0, #0
1000177e:	bd10      	pop	{r4, pc}
10001780:	10005634 	.word	0x10005634
10001784:	10005610 	.word	0x10005610
10001788:	10005ac0 	.word	0x10005ac0
1000178c:	10005af8 	.word	0x10005af8
10001790:	10005acc 	.word	0x10005acc

10001794 <cmd_help>:
10001794:	b5f8      	push	{r3, r4, r5, r6, r7, lr}
10001796:	480c      	ldr	r0, [pc, #48]	; (100017c8 <cmd_help+0x34>)
10001798:	f7ff ffda 	bl	10001750 <cli_printf>
1000179c:	4e0b      	ldr	r6, [pc, #44]	; (100017cc <cmd_help+0x38>)
1000179e:	6833      	ldr	r3, [r6, #0]
100017a0:	2b00      	cmp	r3, #0
100017a2:	d00b      	beq.n	100017bc <cmd_help+0x28>
100017a4:	2400      	movs	r4, #0
100017a6:	4d0a      	ldr	r5, [pc, #40]	; (100017d0 <cmd_help+0x3c>)
100017a8:	4f0a      	ldr	r7, [pc, #40]	; (100017d4 <cmd_help+0x40>)
100017aa:	cd08      	ldmia	r5!, {r3}
100017ac:	0038      	movs	r0, r7
100017ae:	cb06      	ldmia	r3!, {r1, r2}
100017b0:	f7ff ffce 	bl	10001750 <cli_printf>
100017b4:	6833      	ldr	r3, [r6, #0]
100017b6:	3401      	adds	r4, #1
100017b8:	42a3      	cmp	r3, r4
100017ba:	d8f6      	bhi.n	100017aa <cmd_help+0x16>
100017bc:	4806      	ldr	r0, [pc, #24]	; (100017d8 <cmd_help+0x44>)
100017be:	f7ff ffc7 	bl	10001750 <cli_printf>
100017c2:	2000      	movs	r0, #0
100017c4:	bdf8      	pop	{r3, r4, r5, r6, r7, pc}
100017c6:	46c0      	nop			; (mov r8, r8)
100017c8:	10005b00 	.word	0x10005b00
100017cc:	20000bf4 	.word	0x20000bf4
100017d0:	20000bf8 	.word	0x20000bf8
100017d4:	10005b1c 	.word	0x10005b1c
100017d8:	10005dac 	.word	0x10005dac

100017dc <cli_process_line.part.0>:
100017dc:	b5f0      	push	{r4, r5, r6, r7, lr}
100017de:	46ce      	mov	lr, r9
100017e0:	4647      	mov	r7, r8
100017e2:	b580      	push	{r7, lr}
100017e4:	b0d1      	sub	sp, #324	; 0x144
100017e6:	0001      	movs	r1, r0
100017e8:	22ff      	movs	r2, #255	; 0xff
100017ea:	a810      	add	r0, sp, #64	; 0x40
100017ec:	f003 fdba 	bl	10005364 <strncpy>
100017f0:	4668      	mov	r0, sp
100017f2:	2140      	movs	r1, #64	; 0x40
100017f4:	23ff      	movs	r3, #255	; 0xff
100017f6:	2200      	movs	r2, #0
100017f8:	1840      	adds	r0, r0, r1
100017fa:	54c2      	strb	r2, [r0, r3]
100017fc:	7802      	ldrb	r2, [r0, #0]
100017fe:	0003      	movs	r3, r0
10001800:	2a00      	cmp	r2, #0
10001802:	d054      	beq.n	100018ae <cli_process_line.part.0+0xd2>
10001804:	466d      	mov	r5, sp
10001806:	2001      	movs	r0, #1
10001808:	2600      	movs	r6, #0
1000180a:	1e44      	subs	r4, r0, #1
1000180c:	e001      	b.n	10001812 <cli_process_line.part.0+0x36>
1000180e:	785a      	ldrb	r2, [r3, #1]
10001810:	3301      	adds	r3, #1
10001812:	2a20      	cmp	r2, #32
10001814:	d0fb      	beq.n	1000180e <cli_process_line.part.0+0x32>
10001816:	2a09      	cmp	r2, #9
10001818:	d0f9      	beq.n	1000180e <cli_process_line.part.0+0x32>
1000181a:	2a00      	cmp	r2, #0
1000181c:	d045      	beq.n	100018aa <cli_process_line.part.0+0xce>
1000181e:	2a22      	cmp	r2, #34	; 0x22
10001820:	d033      	beq.n	1000188a <cli_process_line.part.0+0xae>
10001822:	0004      	movs	r4, r0
10001824:	602b      	str	r3, [r5, #0]
10001826:	e001      	b.n	1000182c <cli_process_line.part.0+0x50>
10001828:	2a09      	cmp	r2, #9
1000182a:	d006      	beq.n	1000183a <cli_process_line.part.0+0x5e>
1000182c:	0019      	movs	r1, r3
1000182e:	785a      	ldrb	r2, [r3, #1]
10001830:	3301      	adds	r3, #1
10001832:	2a00      	cmp	r2, #0
10001834:	d00b      	beq.n	1000184e <cli_process_line.part.0+0x72>
10001836:	2a20      	cmp	r2, #32
10001838:	d1f6      	bne.n	10001828 <cli_process_line.part.0+0x4c>
1000183a:	701e      	strb	r6, [r3, #0]
1000183c:	1c8b      	adds	r3, r1, #2
1000183e:	781a      	ldrb	r2, [r3, #0]
10001840:	2a00      	cmp	r2, #0
10001842:	d004      	beq.n	1000184e <cli_process_line.part.0+0x72>
10001844:	3001      	adds	r0, #1
10001846:	3504      	adds	r5, #4
10001848:	2811      	cmp	r0, #17
1000184a:	d1de      	bne.n	1000180a <cli_process_line.part.0+0x2e>
1000184c:	2410      	movs	r4, #16
1000184e:	4b1d      	ldr	r3, [pc, #116]	; (100018c4 <cli_process_line.part.0+0xe8>)
10001850:	681b      	ldr	r3, [r3, #0]
10001852:	4699      	mov	r9, r3
10001854:	2b00      	cmp	r3, #0
10001856:	d02c      	beq.n	100018b2 <cli_process_line.part.0+0xd6>
10001858:	9b00      	ldr	r3, [sp, #0]
1000185a:	2600      	movs	r6, #0
1000185c:	4698      	mov	r8, r3
1000185e:	4d1a      	ldr	r5, [pc, #104]	; (100018c8 <cli_process_line.part.0+0xec>)
10001860:	e003      	b.n	1000186a <cli_process_line.part.0+0x8e>
10001862:	3601      	adds	r6, #1
10001864:	3504      	adds	r5, #4
10001866:	454e      	cmp	r6, r9
10001868:	d025      	beq.n	100018b6 <cli_process_line.part.0+0xda>
1000186a:	682f      	ldr	r7, [r5, #0]
1000186c:	4640      	mov	r0, r8
1000186e:	6839      	ldr	r1, [r7, #0]
10001870:	f003 fd06 	bl	10005280 <strcmp>
10001874:	2800      	cmp	r0, #0
10001876:	d1f4      	bne.n	10001862 <cli_process_line.part.0+0x86>
10001878:	4669      	mov	r1, sp
1000187a:	0020      	movs	r0, r4
1000187c:	68fb      	ldr	r3, [r7, #12]
1000187e:	4798      	blx	r3
10001880:	b051      	add	sp, #324	; 0x144
10001882:	bcc0      	pop	{r6, r7}
10001884:	46b9      	mov	r9, r7
10001886:	46b0      	mov	r8, r6
10001888:	bdf0      	pop	{r4, r5, r6, r7, pc}
1000188a:	1c5a      	adds	r2, r3, #1
1000188c:	785b      	ldrb	r3, [r3, #1]
1000188e:	0004      	movs	r4, r0
10001890:	602a      	str	r2, [r5, #0]
10001892:	2b00      	cmp	r3, #0
10001894:	d104      	bne.n	100018a0 <cli_process_line.part.0+0xc4>
10001896:	e7da      	b.n	1000184e <cli_process_line.part.0+0x72>
10001898:	7853      	ldrb	r3, [r2, #1]
1000189a:	3201      	adds	r2, #1
1000189c:	2b00      	cmp	r3, #0
1000189e:	d0d6      	beq.n	1000184e <cli_process_line.part.0+0x72>
100018a0:	2b22      	cmp	r3, #34	; 0x22
100018a2:	d1f9      	bne.n	10001898 <cli_process_line.part.0+0xbc>
100018a4:	1c53      	adds	r3, r2, #1
100018a6:	7016      	strb	r6, [r2, #0]
100018a8:	e7c9      	b.n	1000183e <cli_process_line.part.0+0x62>
100018aa:	2c00      	cmp	r4, #0
100018ac:	d1cf      	bne.n	1000184e <cli_process_line.part.0+0x72>
100018ae:	2000      	movs	r0, #0
100018b0:	e7e6      	b.n	10001880 <cli_process_line.part.0+0xa4>
100018b2:	9b00      	ldr	r3, [sp, #0]
100018b4:	4698      	mov	r8, r3
100018b6:	4805      	ldr	r0, [pc, #20]	; (100018cc <cli_process_line.part.0+0xf0>)
100018b8:	4641      	mov	r1, r8
100018ba:	f7ff ff49 	bl	10001750 <cli_printf>
100018be:	2006      	movs	r0, #6
100018c0:	4240      	negs	r0, r0
100018c2:	e7dd      	b.n	10001880 <cli_process_line.part.0+0xa4>
100018c4:	20000bf4 	.word	0x20000bf4
100018c8:	20000bf8 	.word	0x20000bf8
100018cc:	10005b28 	.word	0x10005b28

100018d0 <cli_run>:
100018d0:	b5f0      	push	{r4, r5, r6, r7, lr}
100018d2:	46de      	mov	lr, fp
100018d4:	464e      	mov	r6, r9
100018d6:	4645      	mov	r5, r8
100018d8:	4657      	mov	r7, sl
100018da:	b5e0      	push	{r5, r6, r7, lr}
100018dc:	4c38      	ldr	r4, [pc, #224]	; (100019c0 <cli_run+0xf0>)
100018de:	b0c1      	sub	sp, #260	; 0x104
100018e0:	0020      	movs	r0, r4
100018e2:	f7ff ff35 	bl	10001750 <cli_printf>
100018e6:	4837      	ldr	r0, [pc, #220]	; (100019c4 <cli_run+0xf4>)
100018e8:	f7ff ff32 	bl	10001750 <cli_printf>
100018ec:	4936      	ldr	r1, [pc, #216]	; (100019c8 <cli_run+0xf8>)
100018ee:	4837      	ldr	r0, [pc, #220]	; (100019cc <cli_run+0xfc>)
100018f0:	f7ff ff2e 	bl	10001750 <cli_printf>
100018f4:	4836      	ldr	r0, [pc, #216]	; (100019d0 <cli_run+0x100>)
100018f6:	f7ff ff2b 	bl	10001750 <cli_printf>
100018fa:	4836      	ldr	r0, [pc, #216]	; (100019d4 <cli_run+0x104>)
100018fc:	f7ff ff28 	bl	10001750 <cli_printf>
10001900:	4835      	ldr	r0, [pc, #212]	; (100019d8 <cli_run+0x108>)
10001902:	f7ff ff25 	bl	10001750 <cli_printf>
10001906:	0020      	movs	r0, r4
10001908:	f7ff ff22 	bl	10001750 <cli_printf>
1000190c:	4d33      	ldr	r5, [pc, #204]	; (100019dc <cli_run+0x10c>)
1000190e:	2400      	movs	r4, #0
10001910:	0028      	movs	r0, r5
10001912:	f003 fc47 	bl	100051a4 <__wrap_printf>
10001916:	4b32      	ldr	r3, [pc, #200]	; (100019e0 <cli_run+0x110>)
10001918:	2600      	movs	r6, #0
1000191a:	4699      	mov	r9, r3
1000191c:	4b31      	ldr	r3, [pc, #196]	; (100019e4 <cli_run+0x114>)
1000191e:	4f32      	ldr	r7, [pc, #200]	; (100019e8 <cli_run+0x118>)
10001920:	469b      	mov	fp, r3
10001922:	230f      	movs	r3, #15
10001924:	4698      	mov	r8, r3
10001926:	f003 fbc1 	bl	100050ac <__wrap_getchar>
1000192a:	1c43      	adds	r3, r0, #1
1000192c:	d0fb      	beq.n	10001926 <cli_run+0x56>
1000192e:	280d      	cmp	r0, #13
10001930:	d011      	beq.n	10001956 <cli_run+0x86>
10001932:	280a      	cmp	r0, #10
10001934:	d00f      	beq.n	10001956 <cli_run+0x86>
10001936:	2808      	cmp	r0, #8
10001938:	d019      	beq.n	1000196e <cli_run+0x9e>
1000193a:	287f      	cmp	r0, #127	; 0x7f
1000193c:	d017      	beq.n	1000196e <cli_run+0x9e>
1000193e:	2803      	cmp	r0, #3
10001940:	d03a      	beq.n	100019b8 <cli_run+0xe8>
10001942:	2cfe      	cmp	r4, #254	; 0xfe
10001944:	d8ef      	bhi.n	10001926 <cli_run+0x56>
10001946:	1c63      	adds	r3, r4, #1
10001948:	469a      	mov	sl, r3
1000194a:	466b      	mov	r3, sp
1000194c:	5518      	strb	r0, [r3, r4]
1000194e:	f003 fbbf 	bl	100050d0 <__wrap_putchar>
10001952:	4654      	mov	r4, sl
10001954:	e7e7      	b.n	10001926 <cli_run+0x56>
10001956:	200a      	movs	r0, #10
10001958:	f003 fbba 	bl	100050d0 <__wrap_putchar>
1000195c:	466b      	mov	r3, sp
1000195e:	551e      	strb	r6, [r3, r4]
10001960:	2c00      	cmp	r4, #0
10001962:	d10b      	bne.n	1000197c <cli_run+0xac>
10001964:	0028      	movs	r0, r5
10001966:	f003 fc1d 	bl	100051a4 <__wrap_printf>
1000196a:	2400      	movs	r4, #0
1000196c:	e7db      	b.n	10001926 <cli_run+0x56>
1000196e:	2c00      	cmp	r4, #0
10001970:	d0d9      	beq.n	10001926 <cli_run+0x56>
10001972:	4658      	mov	r0, fp
10001974:	3c01      	subs	r4, #1
10001976:	f003 fc15 	bl	100051a4 <__wrap_printf>
1000197a:	e7d4      	b.n	10001926 <cli_run+0x56>
1000197c:	781b      	ldrb	r3, [r3, #0]
1000197e:	2b00      	cmp	r3, #0
10001980:	d0f0      	beq.n	10001964 <cli_run+0x94>
10001982:	683c      	ldr	r4, [r7, #0]
10001984:	2c00      	cmp	r4, #0
10001986:	d009      	beq.n	1000199c <cli_run+0xcc>
10001988:	4643      	mov	r3, r8
1000198a:	1e60      	subs	r0, r4, #1
1000198c:	4018      	ands	r0, r3
1000198e:	0200      	lsls	r0, r0, #8
10001990:	4669      	mov	r1, sp
10001992:	4448      	add	r0, r9
10001994:	f003 fc74 	bl	10005280 <strcmp>
10001998:	2800      	cmp	r0, #0
1000199a:	d009      	beq.n	100019b0 <cli_run+0xe0>
1000199c:	4640      	mov	r0, r8
1000199e:	4020      	ands	r0, r4
100019a0:	0200      	lsls	r0, r0, #8
100019a2:	22ff      	movs	r2, #255	; 0xff
100019a4:	4669      	mov	r1, sp
100019a6:	4448      	add	r0, r9
100019a8:	3401      	adds	r4, #1
100019aa:	f003 fcdb 	bl	10005364 <strncpy>
100019ae:	603c      	str	r4, [r7, #0]
100019b0:	4668      	mov	r0, sp
100019b2:	f7ff ff13 	bl	100017dc <cli_process_line.part.0>
100019b6:	e7d5      	b.n	10001964 <cli_run+0x94>
100019b8:	480c      	ldr	r0, [pc, #48]	; (100019ec <cli_run+0x11c>)
100019ba:	f003 fb97 	bl	100050ec <__wrap_puts>
100019be:	e7d1      	b.n	10001964 <cli_run+0x94>
100019c0:	10005dac 	.word	0x10005dac
100019c4:	10005b58 	.word	0x10005b58
100019c8:	10005634 	.word	0x10005634
100019cc:	10005be4 	.word	0x10005be4
100019d0:	10005c14 	.word	0x10005c14
100019d4:	10005c4c 	.word	0x10005c4c
100019d8:	10005c84 	.word	0x10005c84
100019dc:	10005d10 	.word	0x10005d10
100019e0:	20000c8c 	.word	0x20000c8c
100019e4:	10005d20 	.word	0x10005d20
100019e8:	20000c88 	.word	0x20000c88
100019ec:	10005d24 	.word	0x10005d24

100019f0 <cmd_scan_i2c>:
100019f0:	b5f0      	push	{r4, r5, r6, r7, lr}
100019f2:	46d6      	mov	lr, sl
100019f4:	464f      	mov	r7, r9
100019f6:	4646      	mov	r6, r8
100019f8:	481d      	ldr	r0, [pc, #116]	; (10001a70 <cmd_scan_i2c+0x80>)
100019fa:	b5c0      	push	{r6, r7, lr}
100019fc:	f7ff fea8 	bl	10001750 <cli_printf>
10001a00:	481c      	ldr	r0, [pc, #112]	; (10001a74 <cmd_scan_i2c+0x84>)
10001a02:	f7ff fea5 	bl	10001750 <cli_printf>
10001a06:	2300      	movs	r3, #0
10001a08:	4698      	mov	r8, r3
10001a0a:	4b1b      	ldr	r3, [pc, #108]	; (10001a78 <cmd_scan_i2c+0x88>)
10001a0c:	2508      	movs	r5, #8
10001a0e:	469a      	mov	sl, r3
10001a10:	4b1a      	ldr	r3, [pc, #104]	; (10001a7c <cmd_scan_i2c+0x8c>)
10001a12:	4f1b      	ldr	r7, [pc, #108]	; (10001a80 <cmd_scan_i2c+0x90>)
10001a14:	4699      	mov	r9, r3
10001a16:	4e1b      	ldr	r6, [pc, #108]	; (10001a84 <cmd_scan_i2c+0x94>)
10001a18:	002c      	movs	r4, r5
10001a1a:	4641      	mov	r1, r8
10001a1c:	4650      	mov	r0, sl
10001a1e:	f7ff fe97 	bl	10001750 <cli_printf>
10001a22:	3c10      	subs	r4, #16
10001a24:	e005      	b.n	10001a32 <cmd_scan_i2c+0x42>
10001a26:	0030      	movs	r0, r6
10001a28:	3401      	adds	r4, #1
10001a2a:	f7ff fe91 	bl	10001750 <cli_printf>
10001a2e:	42ac      	cmp	r4, r5
10001a30:	d009      	beq.n	10001a46 <cmd_scan_i2c+0x56>
10001a32:	0021      	movs	r1, r4
10001a34:	3108      	adds	r1, #8
10001a36:	2c6f      	cmp	r4, #111	; 0x6f
10001a38:	d8f5      	bhi.n	10001a26 <cmd_scan_i2c+0x36>
10001a3a:	0038      	movs	r0, r7
10001a3c:	3401      	adds	r4, #1
10001a3e:	f7ff fe87 	bl	10001750 <cli_printf>
10001a42:	42ac      	cmp	r4, r5
10001a44:	d1f5      	bne.n	10001a32 <cmd_scan_i2c+0x42>
10001a46:	4648      	mov	r0, r9
10001a48:	f7ff fe82 	bl	10001750 <cli_printf>
10001a4c:	2301      	movs	r3, #1
10001a4e:	469c      	mov	ip, r3
10001a50:	44e0      	add	r8, ip
10001a52:	4643      	mov	r3, r8
10001a54:	3410      	adds	r4, #16
10001a56:	0025      	movs	r5, r4
10001a58:	2b08      	cmp	r3, #8
10001a5a:	d1dd      	bne.n	10001a18 <cmd_scan_i2c+0x28>
10001a5c:	4648      	mov	r0, r9
10001a5e:	f7ff fe77 	bl	10001750 <cli_printf>
10001a62:	2000      	movs	r0, #0
10001a64:	bce0      	pop	{r5, r6, r7}
10001a66:	46ba      	mov	sl, r7
10001a68:	46b1      	mov	r9, r6
10001a6a:	46a8      	mov	r8, r5
10001a6c:	bdf0      	pop	{r4, r5, r6, r7, pc}
10001a6e:	46c0      	nop			; (mov r8, r8)
10001a70:	10005d9c 	.word	0x10005d9c
10001a74:	10005db0 	.word	0x10005db0
10001a78:	10005de8 	.word	0x10005de8
10001a7c:	10005dac 	.word	0x10005dac
10001a80:	10005df4 	.word	0x10005df4
10001a84:	10005df0 	.word	0x10005df0

10001a88 <cmd_reset>:
10001a88:	b510      	push	{r4, lr}
10001a8a:	4804      	ldr	r0, [pc, #16]	; (10001a9c <cmd_reset+0x14>)
10001a8c:	f7ff fe60 	bl	10001750 <cli_printf>
10001a90:	2064      	movs	r0, #100	; 0x64
10001a92:	f000 f9bb 	bl	10001e0c <hal_timer_delay_ms>
10001a96:	f000 f941 	bl	10001d1c <hal_platform_reset>
10001a9a:	46c0      	nop			; (mov r8, r8)
10001a9c:	10005dfc 	.word	0x10005dfc

10001aa0 <cmd_pin>:
10001aa0:	b570      	push	{r4, r5, r6, lr}
10001aa2:	000c      	movs	r4, r1
10001aa4:	2802      	cmp	r0, #2
10001aa6:	dc00      	bgt.n	10001aaa <cmd_pin+0xa>
10001aa8:	e078      	b.n	10001b9c <cmd_pin+0xfc>
10001aaa:	6848      	ldr	r0, [r1, #4]
10001aac:	f003 fbb8 	bl	10005220 <atoi>
10001ab0:	68a4      	ldr	r4, [r4, #8]
10001ab2:	0005      	movs	r5, r0
10001ab4:	b2c6      	uxtb	r6, r0
10001ab6:	493c      	ldr	r1, [pc, #240]	; (10001ba8 <cmd_pin+0x108>)
10001ab8:	0020      	movs	r0, r4
10001aba:	f003 fbe1 	bl	10005280 <strcmp>
10001abe:	2800      	cmp	r0, #0
10001ac0:	d030      	beq.n	10001b24 <cmd_pin+0x84>
10001ac2:	0020      	movs	r0, r4
10001ac4:	4939      	ldr	r1, [pc, #228]	; (10001bac <cmd_pin+0x10c>)
10001ac6:	f003 fbdb 	bl	10005280 <strcmp>
10001aca:	2800      	cmp	r0, #0
10001acc:	d01a      	beq.n	10001b04 <cmd_pin+0x64>
10001ace:	0020      	movs	r0, r4
10001ad0:	4937      	ldr	r1, [pc, #220]	; (10001bb0 <cmd_pin+0x110>)
10001ad2:	f003 fbd5 	bl	10005280 <strcmp>
10001ad6:	2800      	cmp	r0, #0
10001ad8:	d046      	beq.n	10001b68 <cmd_pin+0xc8>
10001ada:	7823      	ldrb	r3, [r4, #0]
10001adc:	2b69      	cmp	r3, #105	; 0x69
10001ade:	d131      	bne.n	10001b44 <cmd_pin+0xa4>
10001ae0:	7863      	ldrb	r3, [r4, #1]
10001ae2:	2b6e      	cmp	r3, #110	; 0x6e
10001ae4:	d12e      	bne.n	10001b44 <cmd_pin+0xa4>
10001ae6:	78a3      	ldrb	r3, [r4, #2]
10001ae8:	2b00      	cmp	r3, #0
10001aea:	d12b      	bne.n	10001b44 <cmd_pin+0xa4>
10001aec:	2201      	movs	r2, #1
10001aee:	2100      	movs	r1, #0
10001af0:	0030      	movs	r0, r6
10001af2:	f000 f925 	bl	10001d40 <hal_gpio_init>
10001af6:	21ff      	movs	r1, #255	; 0xff
10001af8:	482e      	ldr	r0, [pc, #184]	; (10001bb4 <cmd_pin+0x114>)
10001afa:	4029      	ands	r1, r5
10001afc:	f7ff fe28 	bl	10001750 <cli_printf>
10001b00:	2000      	movs	r0, #0
10001b02:	e00e      	b.n	10001b22 <cmd_pin+0x82>
10001b04:	2200      	movs	r2, #0
10001b06:	2101      	movs	r1, #1
10001b08:	0030      	movs	r0, r6
10001b0a:	f000 f919 	bl	10001d40 <hal_gpio_init>
10001b0e:	2100      	movs	r1, #0
10001b10:	0030      	movs	r0, r6
10001b12:	f000 f943 	bl	10001d9c <hal_gpio_write>
10001b16:	21ff      	movs	r1, #255	; 0xff
10001b18:	4827      	ldr	r0, [pc, #156]	; (10001bb8 <cmd_pin+0x118>)
10001b1a:	4029      	ands	r1, r5
10001b1c:	f7ff fe18 	bl	10001750 <cli_printf>
10001b20:	2000      	movs	r0, #0
10001b22:	bd70      	pop	{r4, r5, r6, pc}
10001b24:	2200      	movs	r2, #0
10001b26:	2101      	movs	r1, #1
10001b28:	0030      	movs	r0, r6
10001b2a:	f000 f909 	bl	10001d40 <hal_gpio_init>
10001b2e:	2101      	movs	r1, #1
10001b30:	0030      	movs	r0, r6
10001b32:	f000 f933 	bl	10001d9c <hal_gpio_write>
10001b36:	21ff      	movs	r1, #255	; 0xff
10001b38:	4820      	ldr	r0, [pc, #128]	; (10001bbc <cmd_pin+0x11c>)
10001b3a:	4029      	ands	r1, r5
10001b3c:	f7ff fe08 	bl	10001750 <cli_printf>
10001b40:	2000      	movs	r0, #0
10001b42:	e7ee      	b.n	10001b22 <cmd_pin+0x82>
10001b44:	0020      	movs	r0, r4
10001b46:	491e      	ldr	r1, [pc, #120]	; (10001bc0 <cmd_pin+0x120>)
10001b48:	f003 fb9a 	bl	10005280 <strcmp>
10001b4c:	2800      	cmp	r0, #0
10001b4e:	d11d      	bne.n	10001b8c <cmd_pin+0xec>
10001b50:	2200      	movs	r2, #0
10001b52:	2101      	movs	r1, #1
10001b54:	0030      	movs	r0, r6
10001b56:	f000 f8f3 	bl	10001d40 <hal_gpio_init>
10001b5a:	21ff      	movs	r1, #255	; 0xff
10001b5c:	4819      	ldr	r0, [pc, #100]	; (10001bc4 <cmd_pin+0x124>)
10001b5e:	4029      	ands	r1, r5
10001b60:	f7ff fdf6 	bl	10001750 <cli_printf>
10001b64:	2000      	movs	r0, #0
10001b66:	e7dc      	b.n	10001b22 <cmd_pin+0x82>
10001b68:	2100      	movs	r1, #0
10001b6a:	2201      	movs	r2, #1
10001b6c:	0030      	movs	r0, r6
10001b6e:	f000 f8e7 	bl	10001d40 <hal_gpio_init>
10001b72:	0030      	movs	r0, r6
10001b74:	f000 f91c 	bl	10001db0 <hal_gpio_read>
10001b78:	21ff      	movs	r1, #255	; 0xff
10001b7a:	4029      	ands	r1, r5
10001b7c:	2800      	cmp	r0, #0
10001b7e:	d10b      	bne.n	10001b98 <cmd_pin+0xf8>
10001b80:	4a11      	ldr	r2, [pc, #68]	; (10001bc8 <cmd_pin+0x128>)
10001b82:	4812      	ldr	r0, [pc, #72]	; (10001bcc <cmd_pin+0x12c>)
10001b84:	f7ff fde4 	bl	10001750 <cli_printf>
10001b88:	2000      	movs	r0, #0
10001b8a:	e7ca      	b.n	10001b22 <cmd_pin+0x82>
10001b8c:	4810      	ldr	r0, [pc, #64]	; (10001bd0 <cmd_pin+0x130>)
10001b8e:	0021      	movs	r1, r4
10001b90:	f7ff fdde 	bl	10001750 <cli_printf>
10001b94:	2000      	movs	r0, #0
10001b96:	e7c4      	b.n	10001b22 <cmd_pin+0x82>
10001b98:	4a0e      	ldr	r2, [pc, #56]	; (10001bd4 <cmd_pin+0x134>)
10001b9a:	e7f2      	b.n	10001b82 <cmd_pin+0xe2>
10001b9c:	480e      	ldr	r0, [pc, #56]	; (10001bd8 <cmd_pin+0x138>)
10001b9e:	f7ff fdd7 	bl	10001750 <cli_printf>
10001ba2:	2005      	movs	r0, #5
10001ba4:	4240      	negs	r0, r0
10001ba6:	e7bc      	b.n	10001b22 <cmd_pin+0x82>
10001ba8:	10005e4c 	.word	0x10005e4c
10001bac:	10005e68 	.word	0x10005e68
10001bb0:	10005e80 	.word	0x10005e80
10001bb4:	10005e98 	.word	0x10005e98
10001bb8:	10005e6c 	.word	0x10005e6c
10001bbc:	10005e54 	.word	0x10005e54
10001bc0:	10005eac 	.word	0x10005eac
10001bc4:	10005eb0 	.word	0x10005eb0
10001bc8:	10005e1c 	.word	0x10005e1c
10001bcc:	10005e88 	.word	0x10005e88
10001bd0:	10005ec8 	.word	0x10005ec8
10001bd4:	10005e14 	.word	0x10005e14
10001bd8:	10005e20 	.word	0x10005e20

10001bdc <cmd_info>:
10001bdc:	b570      	push	{r4, r5, r6, lr}
10001bde:	4816      	ldr	r0, [pc, #88]	; (10001c38 <cmd_info+0x5c>)
10001be0:	b082      	sub	sp, #8
10001be2:	f7ff fdb5 	bl	10001750 <cli_printf>
10001be6:	f000 f879 	bl	10001cdc <hal_platform_name>
10001bea:	0001      	movs	r1, r0
10001bec:	4813      	ldr	r0, [pc, #76]	; (10001c3c <cmd_info+0x60>)
10001bee:	f7ff fdaf 	bl	10001750 <cli_printf>
10001bf2:	f000 f88d 	bl	10001d10 <hal_platform_get_clock_hz>
10001bf6:	4912      	ldr	r1, [pc, #72]	; (10001c40 <cmd_info+0x64>)
10001bf8:	f001 f8ce 	bl	10002d98 <__wrap___aeabi_uidiv>
10001bfc:	0001      	movs	r1, r0
10001bfe:	4811      	ldr	r0, [pc, #68]	; (10001c44 <cmd_info+0x68>)
10001c00:	f7ff fda6 	bl	10001750 <cli_printf>
10001c04:	2108      	movs	r1, #8
10001c06:	4668      	mov	r0, sp
10001c08:	f000 f86c 	bl	10001ce4 <hal_platform_get_chip_id>
10001c0c:	0005      	movs	r5, r0
10001c0e:	480e      	ldr	r0, [pc, #56]	; (10001c48 <cmd_info+0x6c>)
10001c10:	f7ff fd9e 	bl	10001750 <cli_printf>
10001c14:	2d00      	cmp	r5, #0
10001c16:	d009      	beq.n	10001c2c <cmd_info+0x50>
10001c18:	466c      	mov	r4, sp
10001c1a:	4e0c      	ldr	r6, [pc, #48]	; (10001c4c <cmd_info+0x70>)
10001c1c:	1965      	adds	r5, r4, r5
10001c1e:	7821      	ldrb	r1, [r4, #0]
10001c20:	0030      	movs	r0, r6
10001c22:	3401      	adds	r4, #1
10001c24:	f003 fabe 	bl	100051a4 <__wrap_printf>
10001c28:	42ac      	cmp	r4, r5
10001c2a:	d1f8      	bne.n	10001c1e <cmd_info+0x42>
10001c2c:	4808      	ldr	r0, [pc, #32]	; (10001c50 <cmd_info+0x74>)
10001c2e:	f7ff fd8f 	bl	10001750 <cli_printf>
10001c32:	2000      	movs	r0, #0
10001c34:	b002      	add	sp, #8
10001c36:	bd70      	pop	{r4, r5, r6, pc}
10001c38:	10005ee0 	.word	0x10005ee0
10001c3c:	10005ef8 	.word	0x10005ef8
10001c40:	000f4240 	.word	0x000f4240
10001c44:	10005f0c 	.word	0x10005f0c
10001c48:	10005f24 	.word	0x10005f24
10001c4c:	100056b0 	.word	0x100056b0
10001c50:	10005afc 	.word	0x10005afc

10001c54 <cmd_detect>:
10001c54:	b570      	push	{r4, r5, r6, lr}
10001c56:	480f      	ldr	r0, [pc, #60]	; (10001c94 <cmd_detect+0x40>)
10001c58:	f7ff fd7a 	bl	10001750 <cli_printf>
10001c5c:	f7fe fc28 	bl	100004b0 <up_device_count>
10001c60:	0005      	movs	r5, r0
10001c62:	0001      	movs	r1, r0
10001c64:	480c      	ldr	r0, [pc, #48]	; (10001c98 <cmd_detect+0x44>)
10001c66:	f7ff fd73 	bl	10001750 <cli_printf>
10001c6a:	2d00      	cmp	r5, #0
10001c6c:	d00d      	beq.n	10001c8a <cmd_detect+0x36>
10001c6e:	2400      	movs	r4, #0
10001c70:	4e0a      	ldr	r6, [pc, #40]	; (10001c9c <cmd_detect+0x48>)
10001c72:	0020      	movs	r0, r4
10001c74:	f7fe fc22 	bl	100004bc <up_device_get>
10001c78:	0021      	movs	r1, r4
10001c7a:	7903      	ldrb	r3, [r0, #4]
10001c7c:	6802      	ldr	r2, [r0, #0]
10001c7e:	3401      	adds	r4, #1
10001c80:	0030      	movs	r0, r6
10001c82:	f7ff fd65 	bl	10001750 <cli_printf>
10001c86:	42a5      	cmp	r5, r4
10001c88:	d1f3      	bne.n	10001c72 <cmd_detect+0x1e>
10001c8a:	4805      	ldr	r0, [pc, #20]	; (10001ca0 <cmd_detect+0x4c>)
10001c8c:	f7ff fd60 	bl	10001750 <cli_printf>
10001c90:	2000      	movs	r0, #0
10001c92:	bd70      	pop	{r4, r5, r6, pc}
10001c94:	10005f34 	.word	0x10005f34
10001c98:	10005f54 	.word	0x10005f54
10001c9c:	10005f70 	.word	0x10005f70
10001ca0:	10005dac 	.word	0x10005dac

10001ca4 <commands_register_all>:
10001ca4:	b570      	push	{r4, r5, r6, lr}
10001ca6:	4c05      	ldr	r4, [pc, #20]	; (10001cbc <commands_register_all+0x18>)
10001ca8:	0025      	movs	r5, r4
10001caa:	3550      	adds	r5, #80	; 0x50
10001cac:	0020      	movs	r0, r4
10001cae:	3410      	adds	r4, #16
10001cb0:	f7ff fd3a 	bl	10001728 <cli_register>
10001cb4:	42ac      	cmp	r4, r5
10001cb6:	d1f9      	bne.n	10001cac <commands_register_all+0x8>
10001cb8:	bd70      	pop	{r4, r5, r6, pc}
10001cba:	46c0      	nop			; (mov r8, r8)
10001cbc:	1000603c 	.word	0x1000603c

10001cc0 <hal_platform_init>:
10001cc0:	b510      	push	{r4, lr}
10001cc2:	f003 f9ef 	bl	100050a4 <stdio_init_all>
10001cc6:	2019      	movs	r0, #25
10001cc8:	f000 f8d0 	bl	10001e6c <gpio_init>
10001ccc:	23d0      	movs	r3, #208	; 0xd0
10001cce:	2280      	movs	r2, #128	; 0x80
10001cd0:	061b      	lsls	r3, r3, #24
10001cd2:	0492      	lsls	r2, r2, #18
10001cd4:	2000      	movs	r0, #0
10001cd6:	625a      	str	r2, [r3, #36]	; 0x24
10001cd8:	619a      	str	r2, [r3, #24]
10001cda:	bd10      	pop	{r4, pc}

10001cdc <hal_platform_name>:
10001cdc:	4800      	ldr	r0, [pc, #0]	; (10001ce0 <hal_platform_name+0x4>)
10001cde:	4770      	bx	lr
10001ce0:	1000608c 	.word	0x1000608c

10001ce4 <hal_platform_get_chip_id>:
10001ce4:	b570      	push	{r4, r5, r6, lr}
10001ce6:	000c      	movs	r4, r1
10001ce8:	b082      	sub	sp, #8
10001cea:	0005      	movs	r5, r0
10001cec:	4668      	mov	r0, sp
10001cee:	f003 fa6f 	bl	100051d0 <pico_get_unique_board_id>
10001cf2:	0026      	movs	r6, r4
10001cf4:	2c08      	cmp	r4, #8
10001cf6:	d900      	bls.n	10001cfa <hal_platform_get_chip_id+0x16>
10001cf8:	2608      	movs	r6, #8
10001cfa:	2c00      	cmp	r4, #0
10001cfc:	d004      	beq.n	10001d08 <hal_platform_get_chip_id+0x24>
10001cfe:	0032      	movs	r2, r6
10001d00:	4669      	mov	r1, sp
10001d02:	0028      	movs	r0, r5
10001d04:	f001 febc 	bl	10003a80 <__wrap___aeabi_memcpy>
10001d08:	0030      	movs	r0, r6
10001d0a:	b002      	add	sp, #8
10001d0c:	bd70      	pop	{r4, r5, r6, pc}
10001d0e:	46c0      	nop			; (mov r8, r8)

10001d10 <hal_platform_get_clock_hz>:
10001d10:	b510      	push	{r4, lr}
10001d12:	2005      	movs	r0, #5
10001d14:	f000 fe32 	bl	1000297c <clock_get_hz>
10001d18:	bd10      	pop	{r4, pc}
10001d1a:	46c0      	nop			; (mov r8, r8)

10001d1c <hal_platform_reset>:
10001d1c:	2200      	movs	r2, #0
10001d1e:	2100      	movs	r1, #0
10001d20:	2000      	movs	r0, #0
10001d22:	b510      	push	{r4, lr}
10001d24:	f000 fe80 	bl	10002a28 <watchdog_reboot>
10001d28:	bf30      	wfi
10001d2a:	e7fd      	b.n	10001d28 <hal_platform_reset+0xc>

10001d2c <hal_platform_led>:
10001d2c:	23d0      	movs	r3, #208	; 0xd0
10001d2e:	2280      	movs	r2, #128	; 0x80
10001d30:	061b      	lsls	r3, r3, #24
10001d32:	0492      	lsls	r2, r2, #18
10001d34:	2800      	cmp	r0, #0
10001d36:	d001      	beq.n	10001d3c <hal_platform_led+0x10>
10001d38:	615a      	str	r2, [r3, #20]
10001d3a:	4770      	bx	lr
10001d3c:	619a      	str	r2, [r3, #24]
10001d3e:	e7fc      	b.n	10001d3a <hal_platform_led+0xe>

10001d40 <hal_gpio_init>:
10001d40:	b570      	push	{r4, r5, r6, lr}
10001d42:	0004      	movs	r4, r0
10001d44:	000e      	movs	r6, r1
10001d46:	0015      	movs	r5, r2
10001d48:	281d      	cmp	r0, #29
10001d4a:	d824      	bhi.n	10001d96 <hal_gpio_init+0x56>
10001d4c:	f000 f88e 	bl	10001e6c <gpio_init>
10001d50:	2301      	movs	r3, #1
10001d52:	22d0      	movs	r2, #208	; 0xd0
10001d54:	40a3      	lsls	r3, r4
10001d56:	0612      	lsls	r2, r2, #24
10001d58:	2e01      	cmp	r6, #1
10001d5a:	d00b      	beq.n	10001d74 <hal_gpio_init+0x34>
10001d5c:	6293      	str	r3, [r2, #40]	; 0x28
10001d5e:	2d01      	cmp	r5, #1
10001d60:	d00b      	beq.n	10001d7a <hal_gpio_init+0x3a>
10001d62:	2d02      	cmp	r5, #2
10001d64:	d010      	beq.n	10001d88 <hal_gpio_init+0x48>
10001d66:	0020      	movs	r0, r4
10001d68:	2200      	movs	r2, #0
10001d6a:	2100      	movs	r1, #0
10001d6c:	f000 f866 	bl	10001e3c <gpio_set_pulls>
10001d70:	2000      	movs	r0, #0
10001d72:	bd70      	pop	{r4, r5, r6, pc}
10001d74:	6253      	str	r3, [r2, #36]	; 0x24
10001d76:	2d01      	cmp	r5, #1
10001d78:	d1f3      	bne.n	10001d62 <hal_gpio_init+0x22>
10001d7a:	0020      	movs	r0, r4
10001d7c:	2200      	movs	r2, #0
10001d7e:	2101      	movs	r1, #1
10001d80:	f000 f85c 	bl	10001e3c <gpio_set_pulls>
10001d84:	2000      	movs	r0, #0
10001d86:	e7f4      	b.n	10001d72 <hal_gpio_init+0x32>
10001d88:	0020      	movs	r0, r4
10001d8a:	2201      	movs	r2, #1
10001d8c:	2100      	movs	r1, #0
10001d8e:	f000 f855 	bl	10001e3c <gpio_set_pulls>
10001d92:	2000      	movs	r0, #0
10001d94:	e7ed      	b.n	10001d72 <hal_gpio_init+0x32>
10001d96:	2005      	movs	r0, #5
10001d98:	4240      	negs	r0, r0
10001d9a:	e7ea      	b.n	10001d72 <hal_gpio_init+0x32>

10001d9c <hal_gpio_write>:
10001d9c:	2301      	movs	r3, #1
10001d9e:	22d0      	movs	r2, #208	; 0xd0
10001da0:	4083      	lsls	r3, r0
10001da2:	0612      	lsls	r2, r2, #24
10001da4:	2901      	cmp	r1, #1
10001da6:	d101      	bne.n	10001dac <hal_gpio_write+0x10>
10001da8:	6153      	str	r3, [r2, #20]
10001daa:	4770      	bx	lr
10001dac:	6193      	str	r3, [r2, #24]
10001dae:	e7fc      	b.n	10001daa <hal_gpio_write+0xe>

10001db0 <hal_gpio_read>:
10001db0:	2201      	movs	r2, #1
10001db2:	23d0      	movs	r3, #208	; 0xd0
10001db4:	4082      	lsls	r2, r0
10001db6:	061b      	lsls	r3, r3, #24
10001db8:	685b      	ldr	r3, [r3, #4]
10001dba:	4013      	ands	r3, r2
10001dbc:	1e5a      	subs	r2, r3, #1
10001dbe:	4193      	sbcs	r3, r2
10001dc0:	b2d8      	uxtb	r0, r3
10001dc2:	4770      	bx	lr

10001dc4 <hal_spi_transfer>:
10001dc4:	b510      	push	{r4, lr}
10001dc6:	2800      	cmp	r0, #0
10001dc8:	d018      	beq.n	10001dfc <hal_spi_transfer+0x38>
10001dca:	2b00      	cmp	r3, #0
10001dcc:	d016      	beq.n	10001dfc <hal_spi_transfer+0x38>
10001dce:	2900      	cmp	r1, #0
10001dd0:	d00c      	beq.n	10001dec <hal_spi_transfer+0x28>
10001dd2:	6800      	ldr	r0, [r0, #0]
10001dd4:	2a00      	cmp	r2, #0
10001dd6:	d004      	beq.n	10001de2 <hal_spi_transfer+0x1e>
10001dd8:	f003 fbe6 	bl	100055a8 <__spi_write_read_blocking_veneer>
10001ddc:	2400      	movs	r4, #0
10001dde:	0020      	movs	r0, r4
10001de0:	bd10      	pop	{r4, pc}
10001de2:	001a      	movs	r2, r3
10001de4:	f003 fbd8 	bl	10005598 <__spi_write_blocking_veneer>
10001de8:	2400      	movs	r4, #0
10001dea:	e7f8      	b.n	10001dde <hal_spi_transfer+0x1a>
10001dec:	2400      	movs	r4, #0
10001dee:	2a00      	cmp	r2, #0
10001df0:	d0f5      	beq.n	10001dde <hal_spi_transfer+0x1a>
10001df2:	2100      	movs	r1, #0
10001df4:	6800      	ldr	r0, [r0, #0]
10001df6:	f003 fbaf 	bl	10005558 <__spi_read_blocking_veneer>
10001dfa:	e7f0      	b.n	10001dde <hal_spi_transfer+0x1a>
10001dfc:	2405      	movs	r4, #5
10001dfe:	4264      	negs	r4, r4
10001e00:	e7ed      	b.n	10001dde <hal_spi_transfer+0x1a>
10001e02:	46c0      	nop			; (mov r8, r8)

10001e04 <hal_timer_delay_us>:
10001e04:	b510      	push	{r4, lr}
10001e06:	f000 fcbd 	bl	10002784 <busy_wait_us_32>
10001e0a:	bd10      	pop	{r4, pc}

10001e0c <hal_timer_delay_ms>:
10001e0c:	b510      	push	{r4, lr}
10001e0e:	f000 fc05 	bl	1000261c <sleep_ms>
10001e12:	bd10      	pop	{r4, pc}

10001e14 <hal_timer_get_us>:
10001e14:	b510      	push	{r4, lr}
10001e16:	f000 fcab 	bl	10002770 <time_us_64>
10001e1a:	bd10      	pop	{r4, pc}

10001e1c <hal_timer_get_ms>:
10001e1c:	b510      	push	{r4, lr}
10001e1e:	f000 fca7 	bl	10002770 <time_us_64>
10001e22:	2900      	cmp	r1, #0
10001e24:	d005      	beq.n	10001e32 <hal_timer_get_ms+0x16>
10001e26:	22fa      	movs	r2, #250	; 0xfa
10001e28:	2300      	movs	r3, #0
10001e2a:	0092      	lsls	r2, r2, #2
10001e2c:	f000 fff2 	bl	10002e14 <__wrap___aeabi_uldivmod>
10001e30:	bd10      	pop	{r4, pc}
10001e32:	21fa      	movs	r1, #250	; 0xfa
10001e34:	0089      	lsls	r1, r1, #2
10001e36:	f000 ffaf 	bl	10002d98 <__wrap___aeabi_uidiv>
10001e3a:	e7f9      	b.n	10001e30 <hal_timer_get_ms+0x14>

10001e3c <gpio_set_pulls>:
10001e3c:	4b0a      	ldr	r3, [pc, #40]	; (10001e68 <gpio_set_pulls+0x2c>)
10001e3e:	0080      	lsls	r0, r0, #2
10001e40:	469c      	mov	ip, r3
10001e42:	1e4b      	subs	r3, r1, #1
10001e44:	4199      	sbcs	r1, r3
10001e46:	4460      	add	r0, ip
10001e48:	00c9      	lsls	r1, r1, #3
10001e4a:	2a00      	cmp	r2, #0
10001e4c:	d001      	beq.n	10001e52 <gpio_set_pulls+0x16>
10001e4e:	2304      	movs	r3, #4
10001e50:	4319      	orrs	r1, r3
10001e52:	6803      	ldr	r3, [r0, #0]
10001e54:	404b      	eors	r3, r1
10001e56:	210c      	movs	r1, #12
10001e58:	4019      	ands	r1, r3
10001e5a:	2380      	movs	r3, #128	; 0x80
10001e5c:	015b      	lsls	r3, r3, #5
10001e5e:	469c      	mov	ip, r3
10001e60:	4460      	add	r0, ip
10001e62:	6001      	str	r1, [r0, #0]
10001e64:	4770      	bx	lr
10001e66:	46c0      	nop			; (mov r8, r8)
10001e68:	4001c004 	.word	0x4001c004

10001e6c <gpio_init>:
10001e6c:	2301      	movs	r3, #1
10001e6e:	22d0      	movs	r2, #208	; 0xd0
10001e70:	4083      	lsls	r3, r0
10001e72:	2140      	movs	r1, #64	; 0x40
10001e74:	0612      	lsls	r2, r2, #24
10001e76:	6293      	str	r3, [r2, #40]	; 0x28
10001e78:	6193      	str	r3, [r2, #24]
10001e7a:	4a09      	ldr	r2, [pc, #36]	; (10001ea0 <gpio_init+0x34>)
10001e7c:	0083      	lsls	r3, r0, #2
10001e7e:	189a      	adds	r2, r3, r2
10001e80:	6812      	ldr	r2, [r2, #0]
10001e82:	00c0      	lsls	r0, r0, #3
10001e84:	4051      	eors	r1, r2
10001e86:	22c0      	movs	r2, #192	; 0xc0
10001e88:	400a      	ands	r2, r1
10001e8a:	4906      	ldr	r1, [pc, #24]	; (10001ea4 <gpio_init+0x38>)
10001e8c:	468c      	mov	ip, r1
10001e8e:	4463      	add	r3, ip
10001e90:	601a      	str	r2, [r3, #0]
10001e92:	4b05      	ldr	r3, [pc, #20]	; (10001ea8 <gpio_init+0x3c>)
10001e94:	469c      	mov	ip, r3
10001e96:	2305      	movs	r3, #5
10001e98:	4460      	add	r0, ip
10001e9a:	6043      	str	r3, [r0, #4]
10001e9c:	4770      	bx	lr
10001e9e:	46c0      	nop			; (mov r8, r8)
10001ea0:	4001c004 	.word	0x4001c004
10001ea4:	4001d004 	.word	0x4001d004
10001ea8:	40014000 	.word	0x40014000

10001eac <panic>:
10001eac:	b40f      	push	{r0, r1, r2, r3}
10001eae:	b500      	push	{lr}
10001eb0:	4808      	ldr	r0, [pc, #32]	; (10001ed4 <panic+0x28>)
10001eb2:	b083      	sub	sp, #12
10001eb4:	f003 f91a 	bl	100050ec <__wrap_puts>
10001eb8:	9b04      	ldr	r3, [sp, #16]
10001eba:	2b00      	cmp	r3, #0
10001ebc:	d007      	beq.n	10001ece <panic+0x22>
10001ebe:	a905      	add	r1, sp, #20
10001ec0:	0018      	movs	r0, r3
10001ec2:	9101      	str	r1, [sp, #4]
10001ec4:	f002 ff66 	bl	10004d94 <weak_raw_vprintf>
10001ec8:	4803      	ldr	r0, [pc, #12]	; (10001ed8 <panic+0x2c>)
10001eca:	f003 f90f 	bl	100050ec <__wrap_puts>
10001ece:	2001      	movs	r0, #1
10001ed0:	f002 ff78 	bl	10004dc4 <_exit>
10001ed4:	10006094 	.word	0x10006094
10001ed8:	10005dac 	.word	0x10005dac

10001edc <hw_claim_or_assert>:
10001edc:	b570      	push	{r4, r5, r6, lr}
10001ede:	f3ef 8c10 	mrs	ip, PRIMASK
10001ee2:	b672      	cpsid	i
10001ee4:	4d0d      	ldr	r5, [pc, #52]	; (10001f1c <hw_claim_or_assert+0x40>)
10001ee6:	682b      	ldr	r3, [r5, #0]
10001ee8:	2b00      	cmp	r3, #0
10001eea:	d0fc      	beq.n	10001ee6 <hw_claim_or_assert+0xa>
10001eec:	f3bf 8f5f 	dmb	sy
10001ef0:	2407      	movs	r4, #7
10001ef2:	08cb      	lsrs	r3, r1, #3
10001ef4:	18c6      	adds	r6, r0, r3
10001ef6:	5cc0      	ldrb	r0, [r0, r3]
10001ef8:	2301      	movs	r3, #1
10001efa:	400c      	ands	r4, r1
10001efc:	40a3      	lsls	r3, r4
10001efe:	001c      	movs	r4, r3
10001f00:	4004      	ands	r4, r0
10001f02:	4203      	tst	r3, r0
10001f04:	d107      	bne.n	10001f16 <hw_claim_or_assert+0x3a>
10001f06:	4303      	orrs	r3, r0
10001f08:	7033      	strb	r3, [r6, #0]
10001f0a:	f3bf 8f5f 	dmb	sy
10001f0e:	602c      	str	r4, [r5, #0]
10001f10:	f38c 8810 	msr	PRIMASK, ip
10001f14:	bd70      	pop	{r4, r5, r6, pc}
10001f16:	0010      	movs	r0, r2
10001f18:	f7ff ffc8 	bl	10001eac <panic>
10001f1c:	d000012c 	.word	0xd000012c

10001f20 <next_striped_spin_lock_num>:
10001f20:	4a04      	ldr	r2, [pc, #16]	; (10001f34 <next_striped_spin_lock_num+0x14>)
10001f22:	7810      	ldrb	r0, [r2, #0]
10001f24:	1c43      	adds	r3, r0, #1
10001f26:	b2db      	uxtb	r3, r3
10001f28:	2b17      	cmp	r3, #23
10001f2a:	d900      	bls.n	10001f2e <next_striped_spin_lock_num+0xe>
10001f2c:	2310      	movs	r3, #16
10001f2e:	7013      	strb	r3, [r2, #0]
10001f30:	4770      	bx	lr
10001f32:	46c0      	nop			; (mov r8, r8)
10001f34:	20000478 	.word	0x20000478

10001f38 <spin_locks_reset>:
10001f38:	2100      	movs	r1, #0
10001f3a:	4b04      	ldr	r3, [pc, #16]	; (10001f4c <spin_locks_reset+0x14>)
10001f3c:	4a04      	ldr	r2, [pc, #16]	; (10001f50 <spin_locks_reset+0x18>)
10001f3e:	f3bf 8f5f 	dmb	sy
10001f42:	c302      	stmia	r3!, {r1}
10001f44:	4293      	cmp	r3, r2
10001f46:	d1fa      	bne.n	10001f3e <spin_locks_reset+0x6>
10001f48:	4770      	bx	lr
10001f4a:	46c0      	nop			; (mov r8, r8)
10001f4c:	d0000100 	.word	0xd0000100
10001f50:	d0000180 	.word	0xd0000180

10001f54 <runtime_init_per_core_irq_priorities>:
10001f54:	4b05      	ldr	r3, [pc, #20]	; (10001f6c <runtime_init_per_core_irq_priorities+0x18>)
10001f56:	4a06      	ldr	r2, [pc, #24]	; (10001f70 <runtime_init_per_core_irq_priorities+0x1c>)
10001f58:	6013      	str	r3, [r2, #0]
10001f5a:	4a06      	ldr	r2, [pc, #24]	; (10001f74 <runtime_init_per_core_irq_priorities+0x20>)
10001f5c:	6013      	str	r3, [r2, #0]
10001f5e:	6053      	str	r3, [r2, #4]
10001f60:	6093      	str	r3, [r2, #8]
10001f62:	60d3      	str	r3, [r2, #12]
10001f64:	6113      	str	r3, [r2, #16]
10001f66:	6153      	str	r3, [r2, #20]
10001f68:	6193      	str	r3, [r2, #24]
10001f6a:	4770      	bx	lr
10001f6c:	80808080 	.word	0x80808080
10001f70:	e000e400 	.word	0xe000e400
10001f74:	e000e404 	.word	0xe000e404

10001f78 <irq_set_enabled>:
10001f78:	231f      	movs	r3, #31
10001f7a:	4018      	ands	r0, r3
10001f7c:	3b1e      	subs	r3, #30
10001f7e:	4083      	lsls	r3, r0
10001f80:	2900      	cmp	r1, #0
10001f82:	d005      	beq.n	10001f90 <irq_set_enabled+0x18>
10001f84:	21c0      	movs	r1, #192	; 0xc0
10001f86:	4a04      	ldr	r2, [pc, #16]	; (10001f98 <irq_set_enabled+0x20>)
10001f88:	0049      	lsls	r1, r1, #1
10001f8a:	5053      	str	r3, [r2, r1]
10001f8c:	6013      	str	r3, [r2, #0]
10001f8e:	4770      	bx	lr
10001f90:	2280      	movs	r2, #128	; 0x80
10001f92:	4901      	ldr	r1, [pc, #4]	; (10001f98 <irq_set_enabled+0x20>)
10001f94:	508b      	str	r3, [r1, r2]
10001f96:	e7fa      	b.n	10001f8e <irq_set_enabled+0x16>
10001f98:	e000e100 	.word	0xe000e100

10001f9c <irq_set_exclusive_handler>:
10001f9c:	b570      	push	{r4, r5, r6, lr}
10001f9e:	000d      	movs	r5, r1
10001fa0:	f3ef 8610 	mrs	r6, PRIMASK
10001fa4:	b672      	cpsid	i
10001fa6:	4a0f      	ldr	r2, [pc, #60]	; (10001fe4 <irq_set_exclusive_handler+0x48>)
10001fa8:	6813      	ldr	r3, [r2, #0]
10001faa:	2b00      	cmp	r3, #0
10001fac:	d0fc      	beq.n	10001fa8 <irq_set_exclusive_handler+0xc>
10001fae:	f3bf 8f5f 	dmb	sy
10001fb2:	4b0d      	ldr	r3, [pc, #52]	; (10001fe8 <irq_set_exclusive_handler+0x4c>)
10001fb4:	3010      	adds	r0, #16
10001fb6:	689b      	ldr	r3, [r3, #8]
10001fb8:	0084      	lsls	r4, r0, #2
10001fba:	591b      	ldr	r3, [r3, r4]
10001fbc:	4a0b      	ldr	r2, [pc, #44]	; (10001fec <irq_set_exclusive_handler+0x50>)
10001fbe:	4293      	cmp	r3, r2
10001fc0:	d003      	beq.n	10001fca <irq_set_exclusive_handler+0x2e>
10001fc2:	429d      	cmp	r5, r3
10001fc4:	d001      	beq.n	10001fca <irq_set_exclusive_handler+0x2e>
10001fc6:	f000 fdcb 	bl	10002b60 <hard_assertion_failure>
10001fca:	4b07      	ldr	r3, [pc, #28]	; (10001fe8 <irq_set_exclusive_handler+0x4c>)
10001fcc:	689b      	ldr	r3, [r3, #8]
10001fce:	511d      	str	r5, [r3, r4]
10001fd0:	f3bf 8f5f 	dmb	sy
10001fd4:	f3bf 8f5f 	dmb	sy
10001fd8:	2200      	movs	r2, #0
10001fda:	4b02      	ldr	r3, [pc, #8]	; (10001fe4 <irq_set_exclusive_handler+0x48>)
10001fdc:	601a      	str	r2, [r3, #0]
10001fde:	f386 8810 	msr	PRIMASK, r6
10001fe2:	bd70      	pop	{r4, r5, r6, pc}
10001fe4:	d0000124 	.word	0xd0000124
10001fe8:	e000ed00 	.word	0xe000ed00
10001fec:	100001c1 	.word	0x100001c1

10001ff0 <lock_init>:
10001ff0:	4b02      	ldr	r3, [pc, #8]	; (10001ffc <lock_init+0xc>)
10001ff2:	469c      	mov	ip, r3
10001ff4:	4461      	add	r1, ip
10001ff6:	0089      	lsls	r1, r1, #2
10001ff8:	6001      	str	r1, [r0, #0]
10001ffa:	4770      	bx	lr
10001ffc:	34000040 	.word	0x34000040

10002000 <runtime_init_mutex>:
10002000:	b5f8      	push	{r3, r4, r5, r6, r7, lr}
10002002:	4d12      	ldr	r5, [pc, #72]	; (1000204c <runtime_init_mutex+0x4c>)
10002004:	4e12      	ldr	r6, [pc, #72]	; (10002050 <runtime_init_mutex+0x50>)
10002006:	002c      	movs	r4, r5
10002008:	27ff      	movs	r7, #255	; 0xff
1000200a:	42b5      	cmp	r5, r6
1000200c:	d30d      	bcc.n	1000202a <runtime_init_mutex+0x2a>
1000200e:	e01b      	b.n	10002048 <runtime_init_mutex+0x48>
10002010:	f7ff ff86 	bl	10001f20 <next_striped_spin_lock_num>
10002014:	0001      	movs	r1, r0
10002016:	0028      	movs	r0, r5
10002018:	f7ff ffea 	bl	10001ff0 <lock_init>
1000201c:	80a7      	strh	r7, [r4, #4]
1000201e:	f3bf 8f5f 	dmb	sy
10002022:	3408      	adds	r4, #8
10002024:	42b4      	cmp	r4, r6
10002026:	d20f      	bcs.n	10002048 <runtime_init_mutex+0x48>
10002028:	0025      	movs	r5, r4
1000202a:	6823      	ldr	r3, [r4, #0]
1000202c:	2b00      	cmp	r3, #0
1000202e:	d1ef      	bne.n	10002010 <runtime_init_mutex+0x10>
10002030:	f7ff ff76 	bl	10001f20 <next_striped_spin_lock_num>
10002034:	0001      	movs	r1, r0
10002036:	0028      	movs	r0, r5
10002038:	f7ff ffda 	bl	10001ff0 <lock_init>
1000203c:	7127      	strb	r7, [r4, #4]
1000203e:	f3bf 8f5f 	dmb	sy
10002042:	3408      	adds	r4, #8
10002044:	42b4      	cmp	r4, r6
10002046:	d3ef      	bcc.n	10002028 <runtime_init_mutex+0x28>
10002048:	bdf8      	pop	{r3, r4, r5, r6, r7, pc}
1000204a:	46c0      	nop			; (mov r8, r8)
1000204c:	200008f0 	.word	0x200008f0
10002050:	200008f8 	.word	0x200008f8

10002054 <sleep_until_callback>:
10002054:	4b0a      	ldr	r3, [pc, #40]	; (10002080 <sleep_until_callback+0x2c>)
10002056:	6819      	ldr	r1, [r3, #0]
10002058:	f3ef 8010 	mrs	r0, PRIMASK
1000205c:	b672      	cpsid	i
1000205e:	680a      	ldr	r2, [r1, #0]
10002060:	2a00      	cmp	r2, #0
10002062:	d0fc      	beq.n	1000205e <sleep_until_callback+0xa>
10002064:	f3bf 8f5f 	dmb	sy
10002068:	681b      	ldr	r3, [r3, #0]
1000206a:	f3bf 8f5f 	dmb	sy
1000206e:	2200      	movs	r2, #0
10002070:	601a      	str	r2, [r3, #0]
10002072:	f380 8810 	msr	PRIMASK, r0
10002076:	bf40      	sev
10002078:	2000      	movs	r0, #0
1000207a:	2100      	movs	r1, #0
1000207c:	4770      	bx	lr
1000207e:	46c0      	nop			; (mov r8, r8)
10002080:	20001f20 	.word	0x20001f20

10002084 <alarm_pool_irq_handler>:
10002084:	b5f0      	push	{r4, r5, r6, r7, lr}
10002086:	46de      	mov	lr, fp
10002088:	4657      	mov	r7, sl
1000208a:	464e      	mov	r6, r9
1000208c:	4645      	mov	r5, r8
1000208e:	b5e0      	push	{r5, r6, r7, lr}
10002090:	b085      	sub	sp, #20
10002092:	f3ef 8205 	mrs	r2, IPSR
10002096:	2303      	movs	r3, #3
10002098:	4013      	ands	r3, r2
1000209a:	009a      	lsls	r2, r3, #2
1000209c:	0011      	movs	r1, r2
1000209e:	9203      	str	r2, [sp, #12]
100020a0:	4ab4      	ldr	r2, [pc, #720]	; (10002374 <alarm_pool_irq_handler+0x2f0>)
100020a2:	5852      	ldr	r2, [r2, r1]
100020a4:	4690      	mov	r8, r2
100020a6:	2201      	movs	r2, #1
100020a8:	409a      	lsls	r2, r3
100020aa:	4691      	mov	r9, r2
100020ac:	4bb2      	ldr	r3, [pc, #712]	; (10002378 <alarm_pool_irq_handler+0x2f4>)
100020ae:	601a      	str	r2, [r3, #0]
100020b0:	464b      	mov	r3, r9
100020b2:	48b2      	ldr	r0, [pc, #712]	; (1000237c <alarm_pool_irq_handler+0x2f8>)
100020b4:	6343      	str	r3, [r0, #52]	; 0x34
100020b6:	4643      	mov	r3, r8
100020b8:	2208      	movs	r2, #8
100020ba:	5e9b      	ldrsh	r3, [r3, r2]
100020bc:	469a      	mov	sl, r3
100020be:	2b00      	cmp	r3, #0
100020c0:	da3e      	bge.n	10002140 <alarm_pool_irq_handler+0xbc>
100020c2:	4643      	mov	r3, r8
100020c4:	889b      	ldrh	r3, [r3, #4]
100020c6:	b21b      	sxth	r3, r3
100020c8:	2b00      	cmp	r3, #0
100020ca:	db00      	blt.n	100020ce <alarm_pool_irq_handler+0x4a>
100020cc:	e0a2      	b.n	10002214 <alarm_pool_irq_handler+0x190>
100020ce:	4643      	mov	r3, r8
100020d0:	799b      	ldrb	r3, [r3, #6]
100020d2:	2b00      	cmp	r3, #0
100020d4:	d000      	beq.n	100020d8 <alarm_pool_irq_handler+0x54>
100020d6:	e0f4      	b.n	100022c2 <alarm_pool_irq_handler+0x23e>
100020d8:	4643      	mov	r3, r8
100020da:	2408      	movs	r4, #8
100020dc:	5f1c      	ldrsh	r4, [r3, r4]
100020de:	2c00      	cmp	r4, #0
100020e0:	db24      	blt.n	1000212c <alarm_pool_irq_handler+0xa8>
100020e2:	4642      	mov	r2, r8
100020e4:	6952      	ldr	r2, [r2, #20]
100020e6:	0063      	lsls	r3, r4, #1
100020e8:	4694      	mov	ip, r2
100020ea:	191b      	adds	r3, r3, r4
100020ec:	00db      	lsls	r3, r3, #3
100020ee:	4463      	add	r3, ip
100020f0:	689c      	ldr	r4, [r3, #8]
100020f2:	68dd      	ldr	r5, [r3, #12]
100020f4:	1c63      	adds	r3, r4, #1
100020f6:	d101      	bne.n	100020fc <alarm_pool_irq_handler+0x78>
100020f8:	1c6b      	adds	r3, r5, #1
100020fa:	d00d      	beq.n	10002118 <alarm_pool_irq_handler+0x94>
100020fc:	489f      	ldr	r0, [pc, #636]	; (1000237c <alarm_pool_irq_handler+0x2f8>)
100020fe:	9903      	ldr	r1, [sp, #12]
10002100:	4684      	mov	ip, r0
10002102:	4461      	add	r1, ip
10002104:	6a82      	ldr	r2, [r0, #40]	; 0x28
10002106:	690b      	ldr	r3, [r1, #16]
10002108:	1aa6      	subs	r6, r4, r2
1000210a:	1a9b      	subs	r3, r3, r2
1000210c:	429e      	cmp	r6, r3
1000210e:	d315      	bcc.n	1000213c <alarm_pool_irq_handler+0xb8>
10002110:	464a      	mov	r2, r9
10002112:	6a03      	ldr	r3, [r0, #32]
10002114:	421a      	tst	r2, r3
10002116:	d011      	beq.n	1000213c <alarm_pool_irq_handler+0xb8>
10002118:	4898      	ldr	r0, [pc, #608]	; (1000237c <alarm_pool_irq_handler+0x2f8>)
1000211a:	f000 fb21 	bl	10002760 <timer_time_us_64>
1000211e:	1a24      	subs	r4, r4, r0
10002120:	418d      	sbcs	r5, r1
10002122:	2d00      	cmp	r5, #0
10002124:	dc02      	bgt.n	1000212c <alarm_pool_irq_handler+0xa8>
10002126:	d1c3      	bne.n	100020b0 <alarm_pool_irq_handler+0x2c>
10002128:	2c00      	cmp	r4, #0
1000212a:	d0c1      	beq.n	100020b0 <alarm_pool_irq_handler+0x2c>
1000212c:	bf40      	sev
1000212e:	b005      	add	sp, #20
10002130:	bcf0      	pop	{r4, r5, r6, r7}
10002132:	46bb      	mov	fp, r7
10002134:	46b2      	mov	sl, r6
10002136:	46a9      	mov	r9, r5
10002138:	46a0      	mov	r8, r4
1000213a:	bdf0      	pop	{r4, r5, r6, r7, pc}
1000213c:	610c      	str	r4, [r1, #16]
1000213e:	e7eb      	b.n	10002118 <alarm_pool_irq_handler+0x94>
10002140:	4642      	mov	r2, r8
10002142:	6952      	ldr	r2, [r2, #20]
10002144:	005b      	lsls	r3, r3, #1
10002146:	4693      	mov	fp, r2
10002148:	4453      	add	r3, sl
1000214a:	00db      	lsls	r3, r3, #3
1000214c:	449b      	add	fp, r3
1000214e:	465b      	mov	r3, fp
10002150:	689e      	ldr	r6, [r3, #8]
10002152:	68df      	ldr	r7, [r3, #12]
10002154:	f000 fb04 	bl	10002760 <timer_time_us_64>
10002158:	1b80      	subs	r0, r0, r6
1000215a:	41b9      	sbcs	r1, r7
1000215c:	2900      	cmp	r1, #0
1000215e:	dbb0      	blt.n	100020c2 <alarm_pool_irq_handler+0x3e>
10002160:	2f00      	cmp	r7, #0
10002162:	da00      	bge.n	10002166 <alarm_pool_irq_handler+0xe2>
10002164:	e0e1      	b.n	1000232a <alarm_pool_irq_handler+0x2a6>
10002166:	465b      	mov	r3, fp
10002168:	4a85      	ldr	r2, [pc, #532]	; (10002380 <alarm_pool_irq_handler+0x2fc>)
1000216a:	691b      	ldr	r3, [r3, #16]
1000216c:	4293      	cmp	r3, r2
1000216e:	d100      	bne.n	10002172 <alarm_pool_irq_handler+0xee>
10002170:	e0d4      	b.n	1000231c <alarm_pool_irq_handler+0x298>
10002172:	4641      	mov	r1, r8
10002174:	465a      	mov	r2, fp
10002176:	2008      	movs	r0, #8
10002178:	5e08      	ldrsh	r0, [r1, r0]
1000217a:	8852      	ldrh	r2, [r2, #2]
1000217c:	0400      	lsls	r0, r0, #16
1000217e:	4310      	orrs	r0, r2
10002180:	465a      	mov	r2, fp
10002182:	6951      	ldr	r1, [r2, #20]
10002184:	4798      	blx	r3
10002186:	0004      	movs	r4, r0
10002188:	000d      	movs	r5, r1
1000218a:	0023      	movs	r3, r4
1000218c:	432b      	orrs	r3, r5
1000218e:	d100      	bne.n	10002192 <alarm_pool_irq_handler+0x10e>
10002190:	e0cb      	b.n	1000232a <alarm_pool_irq_handler+0x2a6>
10002192:	2d00      	cmp	r5, #0
10002194:	db00      	blt.n	10002198 <alarm_pool_irq_handler+0x114>
10002196:	e0e4      	b.n	10002362 <alarm_pool_irq_handler+0x2de>
10002198:	1b36      	subs	r6, r6, r4
1000219a:	41af      	sbcs	r7, r5
1000219c:	0034      	movs	r4, r6
1000219e:	003d      	movs	r5, r7
100021a0:	465b      	mov	r3, fp
100021a2:	609c      	str	r4, [r3, #8]
100021a4:	60dd      	str	r5, [r3, #12]
100021a6:	2100      	movs	r1, #0
100021a8:	5e59      	ldrsh	r1, [r3, r1]
100021aa:	2900      	cmp	r1, #0
100021ac:	da00      	bge.n	100021b0 <alarm_pool_irq_handler+0x12c>
100021ae:	e788      	b.n	100020c2 <alarm_pool_irq_handler+0x3e>
100021b0:	4643      	mov	r3, r8
100021b2:	695b      	ldr	r3, [r3, #20]
100021b4:	0022      	movs	r2, r4
100021b6:	469c      	mov	ip, r3
100021b8:	002b      	movs	r3, r5
100021ba:	0048      	lsls	r0, r1, #1
100021bc:	1840      	adds	r0, r0, r1
100021be:	00c0      	lsls	r0, r0, #3
100021c0:	4460      	add	r0, ip
100021c2:	6886      	ldr	r6, [r0, #8]
100021c4:	68c7      	ldr	r7, [r0, #12]
100021c6:	1b92      	subs	r2, r2, r6
100021c8:	41bb      	sbcs	r3, r7
100021ca:	2b00      	cmp	r3, #0
100021cc:	da00      	bge.n	100021d0 <alarm_pool_irq_handler+0x14c>
100021ce:	e778      	b.n	100020c2 <alarm_pool_irq_handler+0x3e>
100021d0:	4643      	mov	r3, r8
100021d2:	4666      	mov	r6, ip
100021d4:	0002      	movs	r2, r0
100021d6:	9400      	str	r4, [sp, #0]
100021d8:	9501      	str	r5, [sp, #4]
100021da:	8119      	strh	r1, [r3, #8]
100021dc:	e00c      	b.n	100021f8 <alarm_pool_irq_handler+0x174>
100021de:	007b      	lsls	r3, r7, #1
100021e0:	19db      	adds	r3, r3, r7
100021e2:	00db      	lsls	r3, r3, #3
100021e4:	18f3      	adds	r3, r6, r3
100021e6:	9800      	ldr	r0, [sp, #0]
100021e8:	9901      	ldr	r1, [sp, #4]
100021ea:	689c      	ldr	r4, [r3, #8]
100021ec:	68dd      	ldr	r5, [r3, #12]
100021ee:	1b00      	subs	r0, r0, r4
100021f0:	41a9      	sbcs	r1, r5
100021f2:	2900      	cmp	r1, #0
100021f4:	db04      	blt.n	10002200 <alarm_pool_irq_handler+0x17c>
100021f6:	001a      	movs	r2, r3
100021f8:	2300      	movs	r3, #0
100021fa:	5ed7      	ldrsh	r7, [r2, r3]
100021fc:	2f00      	cmp	r7, #0
100021fe:	daee      	bge.n	100021de <alarm_pool_irq_handler+0x15a>
10002200:	465b      	mov	r3, fp
10002202:	801f      	strh	r7, [r3, #0]
10002204:	4653      	mov	r3, sl
10002206:	8013      	strh	r3, [r2, #0]
10002208:	4643      	mov	r3, r8
1000220a:	889b      	ldrh	r3, [r3, #4]
1000220c:	b21b      	sxth	r3, r3
1000220e:	2b00      	cmp	r3, #0
10002210:	da00      	bge.n	10002214 <alarm_pool_irq_handler+0x190>
10002212:	e75c      	b.n	100020ce <alarm_pool_irq_handler+0x4a>
10002214:	4643      	mov	r3, r8
10002216:	691a      	ldr	r2, [r3, #16]
10002218:	f3ef 8110 	mrs	r1, PRIMASK
1000221c:	b672      	cpsid	i
1000221e:	6813      	ldr	r3, [r2, #0]
10002220:	2b00      	cmp	r3, #0
10002222:	d0fc      	beq.n	1000221e <alarm_pool_irq_handler+0x19a>
10002224:	f3bf 8f5f 	dmb	sy
10002228:	4643      	mov	r3, r8
1000222a:	889b      	ldrh	r3, [r3, #4]
1000222c:	4642      	mov	r2, r8
1000222e:	b21b      	sxth	r3, r3
10002230:	469a      	mov	sl, r3
10002232:	2301      	movs	r3, #1
10002234:	425b      	negs	r3, r3
10002236:	8093      	strh	r3, [r2, #4]
10002238:	6913      	ldr	r3, [r2, #16]
1000223a:	f3bf 8f5f 	dmb	sy
1000223e:	2200      	movs	r2, #0
10002240:	601a      	str	r2, [r3, #0]
10002242:	f381 8810 	msr	PRIMASK, r1
10002246:	4653      	mov	r3, sl
10002248:	2b00      	cmp	r3, #0
1000224a:	da00      	bge.n	1000224e <alarm_pool_irq_handler+0x1ca>
1000224c:	e73f      	b.n	100020ce <alarm_pool_irq_handler+0x4a>
1000224e:	4643      	mov	r3, r8
10002250:	695b      	ldr	r3, [r3, #20]
10002252:	469c      	mov	ip, r3
10002254:	2308      	movs	r3, #8
10002256:	4443      	add	r3, r8
10002258:	469b      	mov	fp, r3
1000225a:	4653      	mov	r3, sl
1000225c:	005f      	lsls	r7, r3, #1
1000225e:	4643      	mov	r3, r8
10002260:	4457      	add	r7, sl
10002262:	00ff      	lsls	r7, r7, #3
10002264:	2208      	movs	r2, #8
10002266:	5e9a      	ldrsh	r2, [r3, r2]
10002268:	4467      	add	r7, ip
1000226a:	465e      	mov	r6, fp
1000226c:	68bc      	ldr	r4, [r7, #8]
1000226e:	68fd      	ldr	r5, [r7, #12]
10002270:	2a00      	cmp	r2, #0
10002272:	db19      	blt.n	100022a8 <alarm_pool_irq_handler+0x224>
10002274:	003b      	movs	r3, r7
10002276:	9400      	str	r4, [sp, #0]
10002278:	9501      	str	r5, [sp, #4]
1000227a:	4667      	mov	r7, ip
1000227c:	469c      	mov	ip, r3
1000227e:	e004      	b.n	1000228a <alarm_pool_irq_handler+0x206>
10002280:	001e      	movs	r6, r3
10002282:	2300      	movs	r3, #0
10002284:	5ef2      	ldrsh	r2, [r6, r3]
10002286:	2a00      	cmp	r2, #0
10002288:	db0b      	blt.n	100022a2 <alarm_pool_irq_handler+0x21e>
1000228a:	9800      	ldr	r0, [sp, #0]
1000228c:	9901      	ldr	r1, [sp, #4]
1000228e:	0053      	lsls	r3, r2, #1
10002290:	189b      	adds	r3, r3, r2
10002292:	00db      	lsls	r3, r3, #3
10002294:	18fb      	adds	r3, r7, r3
10002296:	689c      	ldr	r4, [r3, #8]
10002298:	68dd      	ldr	r5, [r3, #12]
1000229a:	1b00      	subs	r0, r0, r4
1000229c:	41a9      	sbcs	r1, r5
1000229e:	2900      	cmp	r1, #0
100022a0:	daee      	bge.n	10002280 <alarm_pool_irq_handler+0x1fc>
100022a2:	4663      	mov	r3, ip
100022a4:	46bc      	mov	ip, r7
100022a6:	001f      	movs	r7, r3
100022a8:	4653      	mov	r3, sl
100022aa:	8033      	strh	r3, [r6, #0]
100022ac:	2100      	movs	r1, #0
100022ae:	5e7b      	ldrsh	r3, [r7, r1]
100022b0:	803a      	strh	r2, [r7, #0]
100022b2:	469a      	mov	sl, r3
100022b4:	2b00      	cmp	r3, #0
100022b6:	dad0      	bge.n	1000225a <alarm_pool_irq_handler+0x1d6>
100022b8:	4643      	mov	r3, r8
100022ba:	799b      	ldrb	r3, [r3, #6]
100022bc:	2b00      	cmp	r3, #0
100022be:	d100      	bne.n	100022c2 <alarm_pool_irq_handler+0x23e>
100022c0:	e70a      	b.n	100020d8 <alarm_pool_irq_handler+0x54>
100022c2:	2300      	movs	r3, #0
100022c4:	4642      	mov	r2, r8
100022c6:	7193      	strb	r3, [r2, #6]
100022c8:	4643      	mov	r3, r8
100022ca:	4646      	mov	r6, r8
100022cc:	2108      	movs	r1, #8
100022ce:	5e59      	ldrsh	r1, [r3, r1]
100022d0:	3608      	adds	r6, #8
100022d2:	1c4b      	adds	r3, r1, #1
100022d4:	d100      	bne.n	100022d8 <alarm_pool_irq_handler+0x254>
100022d6:	e729      	b.n	1000212c <alarm_pool_irq_handler+0xa8>
100022d8:	4647      	mov	r7, r8
100022da:	468c      	mov	ip, r1
100022dc:	6955      	ldr	r5, [r2, #20]
100022de:	e002      	b.n	100022e6 <alarm_pool_irq_handler+0x262>
100022e0:	0006      	movs	r6, r0
100022e2:	1c4b      	adds	r3, r1, #1
100022e4:	d017      	beq.n	10002316 <alarm_pool_irq_handler+0x292>
100022e6:	004b      	lsls	r3, r1, #1
100022e8:	185b      	adds	r3, r3, r1
100022ea:	00db      	lsls	r3, r3, #3
100022ec:	18e8      	adds	r0, r5, r3
100022ee:	000a      	movs	r2, r1
100022f0:	5ee9      	ldrsh	r1, [r5, r3]
100022f2:	8843      	ldrh	r3, [r0, #2]
100022f4:	b21b      	sxth	r3, r3
100022f6:	2b00      	cmp	r3, #0
100022f8:	daf2      	bge.n	100022e0 <alarm_pool_irq_handler+0x25c>
100022fa:	2301      	movs	r3, #1
100022fc:	425b      	negs	r3, r3
100022fe:	17dc      	asrs	r4, r3, #31
10002300:	6083      	str	r3, [r0, #8]
10002302:	60c4      	str	r4, [r0, #12]
10002304:	4562      	cmp	r2, ip
10002306:	d0ec      	beq.n	100022e2 <alarm_pool_irq_handler+0x25e>
10002308:	8031      	strh	r1, [r6, #0]
1000230a:	893b      	ldrh	r3, [r7, #8]
1000230c:	4694      	mov	ip, r2
1000230e:	8003      	strh	r3, [r0, #0]
10002310:	813a      	strh	r2, [r7, #8]
10002312:	1c4b      	adds	r3, r1, #1
10002314:	d1e7      	bne.n	100022e6 <alarm_pool_irq_handler+0x262>
10002316:	46b8      	mov	r8, r7
10002318:	4664      	mov	r4, ip
1000231a:	e6e0      	b.n	100020de <alarm_pool_irq_handler+0x5a>
1000231c:	465b      	mov	r3, fp
1000231e:	695c      	ldr	r4, [r3, #20]
10002320:	0020      	movs	r0, r4
10002322:	6923      	ldr	r3, [r4, #16]
10002324:	4798      	blx	r3
10002326:	2800      	cmp	r0, #0
10002328:	d121      	bne.n	1000236e <alarm_pool_irq_handler+0x2ea>
1000232a:	465b      	mov	r3, fp
1000232c:	4642      	mov	r2, r8
1000232e:	881b      	ldrh	r3, [r3, #0]
10002330:	8113      	strh	r3, [r2, #8]
10002332:	6912      	ldr	r2, [r2, #16]
10002334:	f3ef 8310 	mrs	r3, PRIMASK
10002338:	b672      	cpsid	i
1000233a:	6811      	ldr	r1, [r2, #0]
1000233c:	2900      	cmp	r1, #0
1000233e:	d0fc      	beq.n	1000233a <alarm_pool_irq_handler+0x2b6>
10002340:	f3bf 8f5f 	dmb	sy
10002344:	4642      	mov	r2, r8
10002346:	4659      	mov	r1, fp
10002348:	8852      	ldrh	r2, [r2, #2]
1000234a:	800a      	strh	r2, [r1, #0]
1000234c:	4642      	mov	r2, r8
1000234e:	4651      	mov	r1, sl
10002350:	8051      	strh	r1, [r2, #2]
10002352:	6912      	ldr	r2, [r2, #16]
10002354:	f3bf 8f5f 	dmb	sy
10002358:	2100      	movs	r1, #0
1000235a:	6011      	str	r1, [r2, #0]
1000235c:	f383 8810 	msr	PRIMASK, r3
10002360:	e6af      	b.n	100020c2 <alarm_pool_irq_handler+0x3e>
10002362:	4806      	ldr	r0, [pc, #24]	; (1000237c <alarm_pool_irq_handler+0x2f8>)
10002364:	f000 f9fc 	bl	10002760 <timer_time_us_64>
10002368:	1824      	adds	r4, r4, r0
1000236a:	414d      	adcs	r5, r1
1000236c:	e718      	b.n	100021a0 <alarm_pool_irq_handler+0x11c>
1000236e:	6865      	ldr	r5, [r4, #4]
10002370:	6824      	ldr	r4, [r4, #0]
10002372:	e70a      	b.n	1000218a <alarm_pool_irq_handler+0x106>
10002374:	20000bd0 	.word	0x20000bd0
10002378:	4005703c 	.word	0x4005703c
1000237c:	40054000 	.word	0x40054000
10002380:	10002085 	.word	0x10002085

10002384 <runtime_init_default_alarm_pool>:
10002384:	b570      	push	{r4, r5, r6, lr}
10002386:	4c1d      	ldr	r4, [pc, #116]	; (100023fc <runtime_init_default_alarm_pool+0x78>)
10002388:	6923      	ldr	r3, [r4, #16]
1000238a:	2b00      	cmp	r3, #0
1000238c:	d004      	beq.n	10002398 <runtime_init_default_alarm_pool+0x14>
1000238e:	210a      	movs	r1, #10
10002390:	481b      	ldr	r0, [pc, #108]	; (10002400 <runtime_init_default_alarm_pool+0x7c>)
10002392:	f7ff fe2d 	bl	10001ff0 <lock_init>
10002396:	bd70      	pop	{r4, r5, r6, pc}
10002398:	4d1a      	ldr	r5, [pc, #104]	; (10002404 <runtime_init_default_alarm_pool+0x80>)
1000239a:	2103      	movs	r1, #3
1000239c:	0028      	movs	r0, r5
1000239e:	f000 f9d5 	bl	1000274c <timer_hardware_alarm_claim>
100023a2:	60e5      	str	r5, [r4, #12]
100023a4:	f7ff fdbc 	bl	10001f20 <next_striped_spin_lock_num>
100023a8:	4b17      	ldr	r3, [pc, #92]	; (10002408 <runtime_init_default_alarm_pool+0x84>)
100023aa:	6962      	ldr	r2, [r4, #20]
100023ac:	469c      	mov	ip, r3
100023ae:	2303      	movs	r3, #3
100023b0:	7023      	strb	r3, [r4, #0]
100023b2:	23d0      	movs	r3, #208	; 0xd0
100023b4:	061b      	lsls	r3, r3, #24
100023b6:	681b      	ldr	r3, [r3, #0]
100023b8:	4460      	add	r0, ip
100023ba:	7063      	strb	r3, [r4, #1]
100023bc:	4b13      	ldr	r3, [pc, #76]	; (1000240c <runtime_init_default_alarm_pool+0x88>)
100023be:	0080      	lsls	r0, r0, #2
100023c0:	60a3      	str	r3, [r4, #8]
100023c2:	2301      	movs	r3, #1
100023c4:	425b      	negs	r3, r3
100023c6:	80a3      	strh	r3, [r4, #4]
100023c8:	3310      	adds	r3, #16
100023ca:	8063      	strh	r3, [r4, #2]
100023cc:	4b10      	ldr	r3, [pc, #64]	; (10002410 <runtime_init_default_alarm_pool+0x8c>)
100023ce:	6120      	str	r0, [r4, #16]
100023d0:	8013      	strh	r3, [r2, #0]
100023d2:	3301      	adds	r3, #1
100023d4:	b29b      	uxth	r3, r3
100023d6:	3218      	adds	r2, #24
100023d8:	2b0f      	cmp	r3, #15
100023da:	d1f9      	bne.n	100023d0 <runtime_init_default_alarm_pool+0x4c>
100023dc:	4b0d      	ldr	r3, [pc, #52]	; (10002414 <runtime_init_default_alarm_pool+0x90>)
100023de:	2003      	movs	r0, #3
100023e0:	60dc      	str	r4, [r3, #12]
100023e2:	2408      	movs	r4, #8
100023e4:	4b07      	ldr	r3, [pc, #28]	; (10002404 <runtime_init_default_alarm_pool+0x80>)
100023e6:	490c      	ldr	r1, [pc, #48]	; (10002418 <runtime_init_default_alarm_pool+0x94>)
100023e8:	621c      	str	r4, [r3, #32]
100023ea:	f7ff fdd7 	bl	10001f9c <irq_set_exclusive_handler>
100023ee:	2101      	movs	r1, #1
100023f0:	2003      	movs	r0, #3
100023f2:	f7ff fdc1 	bl	10001f78 <irq_set_enabled>
100023f6:	4b09      	ldr	r3, [pc, #36]	; (1000241c <runtime_init_default_alarm_pool+0x98>)
100023f8:	601c      	str	r4, [r3, #0]
100023fa:	e7c8      	b.n	1000238e <runtime_init_default_alarm_pool+0xa>
100023fc:	2000047c 	.word	0x2000047c
10002400:	20001f20 	.word	0x20001f20
10002404:	40054000 	.word	0x40054000
10002408:	34000040 	.word	0x34000040
1000240c:	0010ffff 	.word	0x0010ffff
10002410:	0000ffff 	.word	0x0000ffff
10002414:	20000bd0 	.word	0x20000bd0
10002418:	10002085 	.word	0x10002085
1000241c:	40056038 	.word	0x40056038

10002420 <alarm_pool_add_alarm_at_force_in_context>:
10002420:	b570      	push	{r4, r5, r6, lr}
10002422:	46c6      	mov	lr, r8
10002424:	0001      	movs	r1, r0
10002426:	b500      	push	{lr}
10002428:	6904      	ldr	r4, [r0, #16]
1000242a:	f3ef 8c10 	mrs	ip, PRIMASK
1000242e:	b672      	cpsid	i
10002430:	6820      	ldr	r0, [r4, #0]
10002432:	2800      	cmp	r0, #0
10002434:	d0fc      	beq.n	10002430 <alarm_pool_add_alarm_at_force_in_context+0x10>
10002436:	f3bf 8f5f 	dmb	sy
1000243a:	2002      	movs	r0, #2
1000243c:	5e0d      	ldrsh	r5, [r1, r0]
1000243e:	6948      	ldr	r0, [r1, #20]
10002440:	006c      	lsls	r4, r5, #1
10002442:	4680      	mov	r8, r0
10002444:	1964      	adds	r4, r4, r5
10002446:	00e4      	lsls	r4, r4, #3
10002448:	4444      	add	r4, r8
1000244a:	2d00      	cmp	r5, #0
1000244c:	db01      	blt.n	10002452 <alarm_pool_add_alarm_at_force_in_context+0x32>
1000244e:	8820      	ldrh	r0, [r4, #0]
10002450:	8048      	strh	r0, [r1, #2]
10002452:	6908      	ldr	r0, [r1, #16]
10002454:	f3bf 8f5f 	dmb	sy
10002458:	2600      	movs	r6, #0
1000245a:	6006      	str	r6, [r0, #0]
1000245c:	f38c 8810 	msr	PRIMASK, ip
10002460:	2d00      	cmp	r5, #0
10002462:	db30      	blt.n	100024c6 <alarm_pool_add_alarm_at_force_in_context+0xa6>
10002464:	60e3      	str	r3, [r4, #12]
10002466:	8863      	ldrh	r3, [r4, #2]
10002468:	9805      	ldr	r0, [sp, #20]
1000246a:	3301      	adds	r3, #1
1000246c:	6120      	str	r0, [r4, #16]
1000246e:	045b      	lsls	r3, r3, #17
10002470:	9806      	ldr	r0, [sp, #24]
10002472:	0c5b      	lsrs	r3, r3, #17
10002474:	60a2      	str	r2, [r4, #8]
10002476:	6160      	str	r0, [r4, #20]
10002478:	1c1a      	adds	r2, r3, #0
1000247a:	2b00      	cmp	r3, #0
1000247c:	d021      	beq.n	100024c2 <alarm_pool_add_alarm_at_force_in_context+0xa2>
1000247e:	b290      	uxth	r0, r2
10002480:	042b      	lsls	r3, r5, #16
10002482:	8062      	strh	r2, [r4, #2]
10002484:	4318      	orrs	r0, r3
10002486:	690a      	ldr	r2, [r1, #16]
10002488:	f3ef 8610 	mrs	r6, PRIMASK
1000248c:	b672      	cpsid	i
1000248e:	6813      	ldr	r3, [r2, #0]
10002490:	2b00      	cmp	r3, #0
10002492:	d0fc      	beq.n	1000248e <alarm_pool_add_alarm_at_force_in_context+0x6e>
10002494:	f3bf 8f5f 	dmb	sy
10002498:	888b      	ldrh	r3, [r1, #4]
1000249a:	8023      	strh	r3, [r4, #0]
1000249c:	808d      	strh	r5, [r1, #4]
1000249e:	690b      	ldr	r3, [r1, #16]
100024a0:	f3bf 8f5f 	dmb	sy
100024a4:	2200      	movs	r2, #0
100024a6:	601a      	str	r2, [r3, #0]
100024a8:	f386 8810 	msr	PRIMASK, r6
100024ac:	780b      	ldrb	r3, [r1, #0]
100024ae:	3201      	adds	r2, #1
100024b0:	409a      	lsls	r2, r3
100024b2:	68cb      	ldr	r3, [r1, #12]
100024b4:	4905      	ldr	r1, [pc, #20]	; (100024cc <alarm_pool_add_alarm_at_force_in_context+0xac>)
100024b6:	468c      	mov	ip, r1
100024b8:	4463      	add	r3, ip
100024ba:	601a      	str	r2, [r3, #0]
100024bc:	bc40      	pop	{r6}
100024be:	46b0      	mov	r8, r6
100024c0:	bd70      	pop	{r4, r5, r6, pc}
100024c2:	2201      	movs	r2, #1
100024c4:	e7db      	b.n	1000247e <alarm_pool_add_alarm_at_force_in_context+0x5e>
100024c6:	2001      	movs	r0, #1
100024c8:	4240      	negs	r0, r0
100024ca:	e7f7      	b.n	100024bc <alarm_pool_add_alarm_at_force_in_context+0x9c>
100024cc:	0000203c 	.word	0x0000203c

100024d0 <alarm_pool_cancel_alarm>:
100024d0:	b510      	push	{r4, lr}
100024d2:	8943      	ldrh	r3, [r0, #10]
100024d4:	140a      	asrs	r2, r1, #16
100024d6:	4293      	cmp	r3, r2
100024d8:	dd33      	ble.n	10002542 <alarm_pool_cancel_alarm+0x72>
100024da:	0053      	lsls	r3, r2, #1
100024dc:	189b      	adds	r3, r3, r2
100024de:	6942      	ldr	r2, [r0, #20]
100024e0:	00db      	lsls	r3, r3, #3
100024e2:	4694      	mov	ip, r2
100024e4:	6904      	ldr	r4, [r0, #16]
100024e6:	4463      	add	r3, ip
100024e8:	f3ef 8c10 	mrs	ip, PRIMASK
100024ec:	b672      	cpsid	i
100024ee:	6822      	ldr	r2, [r4, #0]
100024f0:	2a00      	cmp	r2, #0
100024f2:	d0fc      	beq.n	100024ee <alarm_pool_cancel_alarm+0x1e>
100024f4:	f3bf 8f5f 	dmb	sy
100024f8:	885a      	ldrh	r2, [r3, #2]
100024fa:	0409      	lsls	r1, r1, #16
100024fc:	b294      	uxth	r4, r2
100024fe:	0c09      	lsrs	r1, r1, #16
10002500:	428a      	cmp	r2, r1
10002502:	d008      	beq.n	10002516 <alarm_pool_cancel_alarm+0x46>
10002504:	6903      	ldr	r3, [r0, #16]
10002506:	f3bf 8f5f 	dmb	sy
1000250a:	2200      	movs	r2, #0
1000250c:	601a      	str	r2, [r3, #0]
1000250e:	f38c 8810 	msr	PRIMASK, ip
10002512:	2000      	movs	r0, #0
10002514:	bd10      	pop	{r4, pc}
10002516:	2280      	movs	r2, #128	; 0x80
10002518:	0212      	lsls	r2, r2, #8
1000251a:	4314      	orrs	r4, r2
1000251c:	805c      	strh	r4, [r3, #2]
1000251e:	2301      	movs	r3, #1
10002520:	6902      	ldr	r2, [r0, #16]
10002522:	7183      	strb	r3, [r0, #6]
10002524:	f3bf 8f5f 	dmb	sy
10002528:	2100      	movs	r1, #0
1000252a:	6011      	str	r1, [r2, #0]
1000252c:	f38c 8810 	msr	PRIMASK, ip
10002530:	4905      	ldr	r1, [pc, #20]	; (10002548 <alarm_pool_cancel_alarm+0x78>)
10002532:	7802      	ldrb	r2, [r0, #0]
10002534:	468c      	mov	ip, r1
10002536:	4093      	lsls	r3, r2
10002538:	68c2      	ldr	r2, [r0, #12]
1000253a:	2001      	movs	r0, #1
1000253c:	4462      	add	r2, ip
1000253e:	6013      	str	r3, [r2, #0]
10002540:	e7e8      	b.n	10002514 <alarm_pool_cancel_alarm+0x44>
10002542:	2000      	movs	r0, #0
10002544:	e7e6      	b.n	10002514 <alarm_pool_cancel_alarm+0x44>
10002546:	46c0      	nop			; (mov r8, r8)
10002548:	0000203c 	.word	0x0000203c

1000254c <sleep_until>:
1000254c:	b5f0      	push	{r4, r5, r6, r7, lr}
1000254e:	0004      	movs	r4, r0
10002550:	000d      	movs	r5, r1
10002552:	2606      	movs	r6, #6
10002554:	4276      	negs	r6, r6
10002556:	17f7      	asrs	r7, r6, #31
10002558:	46c6      	mov	lr, r8
1000255a:	1936      	adds	r6, r6, r4
1000255c:	416f      	adcs	r7, r5
1000255e:	b500      	push	{lr}
10002560:	b082      	sub	sp, #8
10002562:	428f      	cmp	r7, r1
10002564:	d814      	bhi.n	10002590 <sleep_until+0x44>
10002566:	d011      	beq.n	1000258c <sleep_until+0x40>
10002568:	f000 f902 	bl	10002770 <time_us_64>
1000256c:	0032      	movs	r2, r6
1000256e:	003b      	movs	r3, r7
10002570:	1a12      	subs	r2, r2, r0
10002572:	418b      	sbcs	r3, r1
10002574:	2b00      	cmp	r3, #0
10002576:	dc15      	bgt.n	100025a4 <sleep_until+0x58>
10002578:	2b00      	cmp	r3, #0
1000257a:	d044      	beq.n	10002606 <sleep_until+0xba>
1000257c:	0020      	movs	r0, r4
1000257e:	0029      	movs	r1, r5
10002580:	f000 f95e 	bl	10002840 <busy_wait_until>
10002584:	b002      	add	sp, #8
10002586:	bc80      	pop	{r7}
10002588:	46b8      	mov	r8, r7
1000258a:	bdf0      	pop	{r4, r5, r6, r7, pc}
1000258c:	4286      	cmp	r6, r0
1000258e:	d9eb      	bls.n	10002568 <sleep_until+0x1c>
10002590:	2600      	movs	r6, #0
10002592:	2700      	movs	r7, #0
10002594:	f000 f8ec 	bl	10002770 <time_us_64>
10002598:	0032      	movs	r2, r6
1000259a:	003b      	movs	r3, r7
1000259c:	1a12      	subs	r2, r2, r0
1000259e:	418b      	sbcs	r3, r1
100025a0:	2b00      	cmp	r3, #0
100025a2:	dde9      	ble.n	10002578 <sleep_until+0x2c>
100025a4:	f000 f8e4 	bl	10002770 <time_us_64>
100025a8:	0032      	movs	r2, r6
100025aa:	003b      	movs	r3, r7
100025ac:	1a12      	subs	r2, r2, r0
100025ae:	418b      	sbcs	r3, r1
100025b0:	2b00      	cmp	r3, #0
100025b2:	db0a      	blt.n	100025ca <sleep_until+0x7e>
100025b4:	2300      	movs	r3, #0
100025b6:	9301      	str	r3, [sp, #4]
100025b8:	4b14      	ldr	r3, [pc, #80]	; (1000260c <sleep_until+0xc0>)
100025ba:	0032      	movs	r2, r6
100025bc:	9300      	str	r3, [sp, #0]
100025be:	4814      	ldr	r0, [pc, #80]	; (10002610 <sleep_until+0xc4>)
100025c0:	003b      	movs	r3, r7
100025c2:	f7ff ff2d 	bl	10002420 <alarm_pool_add_alarm_at_force_in_context>
100025c6:	2800      	cmp	r0, #0
100025c8:	dbd8      	blt.n	1000257c <sleep_until+0x30>
100025ca:	46b0      	mov	r8, r6
100025cc:	2600      	movs	r6, #0
100025ce:	46bc      	mov	ip, r7
100025d0:	4a10      	ldr	r2, [pc, #64]	; (10002614 <sleep_until+0xc8>)
100025d2:	4f11      	ldr	r7, [pc, #68]	; (10002618 <sleep_until+0xcc>)
100025d4:	6a7b      	ldr	r3, [r7, #36]	; 0x24
100025d6:	459c      	cmp	ip, r3
100025d8:	d804      	bhi.n	100025e4 <sleep_until+0x98>
100025da:	6ab9      	ldr	r1, [r7, #40]	; 0x28
100025dc:	4541      	cmp	r1, r8
100025de:	d2cd      	bcs.n	1000257c <sleep_until+0x30>
100025e0:	459c      	cmp	ip, r3
100025e2:	d1cb      	bne.n	1000257c <sleep_until+0x30>
100025e4:	6811      	ldr	r1, [r2, #0]
100025e6:	f3ef 8010 	mrs	r0, PRIMASK
100025ea:	b672      	cpsid	i
100025ec:	680b      	ldr	r3, [r1, #0]
100025ee:	2b00      	cmp	r3, #0
100025f0:	d0fc      	beq.n	100025ec <sleep_until+0xa0>
100025f2:	f3bf 8f5f 	dmb	sy
100025f6:	6813      	ldr	r3, [r2, #0]
100025f8:	f3bf 8f5f 	dmb	sy
100025fc:	601e      	str	r6, [r3, #0]
100025fe:	f380 8810 	msr	PRIMASK, r0
10002602:	bf20      	wfe
10002604:	e7e6      	b.n	100025d4 <sleep_until+0x88>
10002606:	2a00      	cmp	r2, #0
10002608:	d0b8      	beq.n	1000257c <sleep_until+0x30>
1000260a:	e7cb      	b.n	100025a4 <sleep_until+0x58>
1000260c:	10002055 	.word	0x10002055
10002610:	2000047c 	.word	0x2000047c
10002614:	20001f20 	.word	0x20001f20
10002618:	40054000 	.word	0x40054000

1000261c <sleep_ms>:
1000261c:	b570      	push	{r4, r5, r6, lr}
1000261e:	0006      	movs	r6, r0
10002620:	f000 f8a6 	bl	10002770 <time_us_64>
10002624:	22fa      	movs	r2, #250	; 0xfa
10002626:	0004      	movs	r4, r0
10002628:	000d      	movs	r5, r1
1000262a:	2300      	movs	r3, #0
1000262c:	0030      	movs	r0, r6
1000262e:	2100      	movs	r1, #0
10002630:	0092      	lsls	r2, r2, #2
10002632:	f001 f9b9 	bl	100039a8 <__wrap___aeabi_lmul>
10002636:	1900      	adds	r0, r0, r4
10002638:	4169      	adcs	r1, r5
1000263a:	2900      	cmp	r1, #0
1000263c:	db02      	blt.n	10002644 <sleep_ms+0x28>
1000263e:	f7ff ff85 	bl	1000254c <sleep_until>
10002642:	bd70      	pop	{r4, r5, r6, pc}
10002644:	2001      	movs	r0, #1
10002646:	4901      	ldr	r1, [pc, #4]	; (1000264c <sleep_ms+0x30>)
10002648:	4240      	negs	r0, r0
1000264a:	e7f8      	b.n	1000263e <sleep_ms+0x22>
1000264c:	7fffffff 	.word	0x7fffffff

10002650 <best_effort_wfe_or_timeout>:
10002650:	b5f0      	push	{r4, r5, r6, r7, lr}
10002652:	46ce      	mov	lr, r9
10002654:	4647      	mov	r7, r8
10002656:	b580      	push	{r7, lr}
10002658:	0004      	movs	r4, r0
1000265a:	000d      	movs	r5, r1
1000265c:	b083      	sub	sp, #12
1000265e:	f3ef 8705 	mrs	r7, IPSR
10002662:	2f00      	cmp	r7, #0
10002664:	d00d      	beq.n	10002682 <best_effort_wfe_or_timeout+0x32>
10002666:	4a36      	ldr	r2, [pc, #216]	; (10002740 <best_effort_wfe_or_timeout+0xf0>)
10002668:	2000      	movs	r0, #0
1000266a:	6a53      	ldr	r3, [r2, #36]	; 0x24
1000266c:	428b      	cmp	r3, r1
1000266e:	d303      	bcc.n	10002678 <best_effort_wfe_or_timeout+0x28>
10002670:	6a92      	ldr	r2, [r2, #40]	; 0x28
10002672:	3001      	adds	r0, #1
10002674:	42a2      	cmp	r2, r4
10002676:	d350      	bcc.n	1000271a <best_effort_wfe_or_timeout+0xca>
10002678:	b003      	add	sp, #12
1000267a:	bcc0      	pop	{r6, r7}
1000267c:	46b9      	mov	r9, r7
1000267e:	46b0      	mov	r8, r6
10002680:	bdf0      	pop	{r4, r5, r6, r7, pc}
10002682:	4b30      	ldr	r3, [pc, #192]	; (10002744 <best_effort_wfe_or_timeout+0xf4>)
10002684:	4698      	mov	r8, r3
10002686:	68db      	ldr	r3, [r3, #12]
10002688:	4699      	mov	r9, r3
1000268a:	4643      	mov	r3, r8
1000268c:	4648      	mov	r0, r9
1000268e:	781e      	ldrb	r6, [r3, #0]
10002690:	f000 f866 	bl	10002760 <timer_time_us_64>
10002694:	000b      	movs	r3, r1
10002696:	4649      	mov	r1, r9
10002698:	0002      	movs	r2, r0
1000269a:	3604      	adds	r6, #4
1000269c:	00b6      	lsls	r6, r6, #2
1000269e:	5871      	ldr	r1, [r6, r1]
100026a0:	0020      	movs	r0, r4
100026a2:	1a8e      	subs	r6, r1, r2
100026a4:	0029      	movs	r1, r5
100026a6:	1a80      	subs	r0, r0, r2
100026a8:	4199      	sbcs	r1, r3
100026aa:	428f      	cmp	r7, r1
100026ac:	dc11      	bgt.n	100026d2 <best_effort_wfe_or_timeout+0x82>
100026ae:	d00e      	beq.n	100026ce <best_effort_wfe_or_timeout+0x7e>
100026b0:	bf20      	wfe
100026b2:	4a23      	ldr	r2, [pc, #140]	; (10002740 <best_effort_wfe_or_timeout+0xf0>)
100026b4:	2000      	movs	r0, #0
100026b6:	6a53      	ldr	r3, [r2, #36]	; 0x24
100026b8:	42ab      	cmp	r3, r5
100026ba:	d3dd      	bcc.n	10002678 <best_effort_wfe_or_timeout+0x28>
100026bc:	6a92      	ldr	r2, [r2, #40]	; 0x28
100026be:	3001      	adds	r0, #1
100026c0:	42a2      	cmp	r2, r4
100026c2:	d2d9      	bcs.n	10002678 <best_effort_wfe_or_timeout+0x28>
100026c4:	1ae8      	subs	r0, r5, r3
100026c6:	1e42      	subs	r2, r0, #1
100026c8:	4190      	sbcs	r0, r2
100026ca:	b2c0      	uxtb	r0, r0
100026cc:	e7d4      	b.n	10002678 <best_effort_wfe_or_timeout+0x28>
100026ce:	4286      	cmp	r6, r0
100026d0:	d9ee      	bls.n	100026b0 <best_effort_wfe_or_timeout+0x60>
100026d2:	f000 f84d 	bl	10002770 <time_us_64>
100026d6:	0022      	movs	r2, r4
100026d8:	002b      	movs	r3, r5
100026da:	1a12      	subs	r2, r2, r0
100026dc:	418b      	sbcs	r3, r1
100026de:	2b00      	cmp	r3, #0
100026e0:	db20      	blt.n	10002724 <best_effort_wfe_or_timeout+0xd4>
100026e2:	2300      	movs	r3, #0
100026e4:	9301      	str	r3, [sp, #4]
100026e6:	4b18      	ldr	r3, [pc, #96]	; (10002748 <best_effort_wfe_or_timeout+0xf8>)
100026e8:	0022      	movs	r2, r4
100026ea:	9300      	str	r3, [sp, #0]
100026ec:	4640      	mov	r0, r8
100026ee:	002b      	movs	r3, r5
100026f0:	f7ff fe96 	bl	10002420 <alarm_pool_add_alarm_at_force_in_context>
100026f4:	1e01      	subs	r1, r0, #0
100026f6:	dd15      	ble.n	10002724 <best_effort_wfe_or_timeout+0xd4>
100026f8:	4b11      	ldr	r3, [pc, #68]	; (10002740 <best_effort_wfe_or_timeout+0xf0>)
100026fa:	002e      	movs	r6, r5
100026fc:	6a5a      	ldr	r2, [r3, #36]	; 0x24
100026fe:	4295      	cmp	r5, r2
10002700:	d81c      	bhi.n	1000273c <best_effort_wfe_or_timeout+0xec>
10002702:	6a9b      	ldr	r3, [r3, #40]	; 0x28
10002704:	42a3      	cmp	r3, r4
10002706:	d317      	bcc.n	10002738 <best_effort_wfe_or_timeout+0xe8>
10002708:	4640      	mov	r0, r8
1000270a:	f7ff fee1 	bl	100024d0 <alarm_pool_cancel_alarm>
1000270e:	4a0c      	ldr	r2, [pc, #48]	; (10002740 <best_effort_wfe_or_timeout+0xf0>)
10002710:	2000      	movs	r0, #0
10002712:	6a53      	ldr	r3, [r2, #36]	; 0x24
10002714:	429e      	cmp	r6, r3
10002716:	d8af      	bhi.n	10002678 <best_effort_wfe_or_timeout+0x28>
10002718:	e7d0      	b.n	100026bc <best_effort_wfe_or_timeout+0x6c>
1000271a:	1a58      	subs	r0, r3, r1
1000271c:	1e42      	subs	r2, r0, #1
1000271e:	4190      	sbcs	r0, r2
10002720:	b2c0      	uxtb	r0, r0
10002722:	e7a9      	b.n	10002678 <best_effort_wfe_or_timeout+0x28>
10002724:	4a06      	ldr	r2, [pc, #24]	; (10002740 <best_effort_wfe_or_timeout+0xf0>)
10002726:	2000      	movs	r0, #0
10002728:	6a53      	ldr	r3, [r2, #36]	; 0x24
1000272a:	42ab      	cmp	r3, r5
1000272c:	d3a4      	bcc.n	10002678 <best_effort_wfe_or_timeout+0x28>
1000272e:	6a92      	ldr	r2, [r2, #40]	; 0x28
10002730:	2001      	movs	r0, #1
10002732:	42a2      	cmp	r2, r4
10002734:	d2a0      	bcs.n	10002678 <best_effort_wfe_or_timeout+0x28>
10002736:	e7c5      	b.n	100026c4 <best_effort_wfe_or_timeout+0x74>
10002738:	4295      	cmp	r5, r2
1000273a:	d1e5      	bne.n	10002708 <best_effort_wfe_or_timeout+0xb8>
1000273c:	bf20      	wfe
1000273e:	e7e3      	b.n	10002708 <best_effort_wfe_or_timeout+0xb8>
10002740:	40054000 	.word	0x40054000
10002744:	2000047c 	.word	0x2000047c
10002748:	10002055 	.word	0x10002055

1000274c <timer_hardware_alarm_claim>:
1000274c:	b510      	push	{r4, lr}
1000274e:	4a02      	ldr	r2, [pc, #8]	; (10002758 <timer_hardware_alarm_claim+0xc>)
10002750:	4802      	ldr	r0, [pc, #8]	; (1000275c <timer_hardware_alarm_claim+0x10>)
10002752:	f7ff fbc3 	bl	10001edc <hw_claim_or_assert>
10002756:	bd10      	pop	{r4, pc}
10002758:	100060b0 	.word	0x100060b0
1000275c:	20000b94 	.word	0x20000b94

10002760 <timer_time_us_64>:
10002760:	0003      	movs	r3, r0
10002762:	6a41      	ldr	r1, [r0, #36]	; 0x24
10002764:	000a      	movs	r2, r1
10002766:	6a98      	ldr	r0, [r3, #40]	; 0x28
10002768:	6a59      	ldr	r1, [r3, #36]	; 0x24
1000276a:	428a      	cmp	r2, r1
1000276c:	d1fa      	bne.n	10002764 <timer_time_us_64+0x4>
1000276e:	4770      	bx	lr

10002770 <time_us_64>:
10002770:	4b03      	ldr	r3, [pc, #12]	; (10002780 <time_us_64+0x10>)
10002772:	6a59      	ldr	r1, [r3, #36]	; 0x24
10002774:	000a      	movs	r2, r1
10002776:	6a98      	ldr	r0, [r3, #40]	; 0x28
10002778:	6a59      	ldr	r1, [r3, #36]	; 0x24
1000277a:	4291      	cmp	r1, r2
1000277c:	d1fa      	bne.n	10002774 <time_us_64+0x4>
1000277e:	4770      	bx	lr
10002780:	40054000 	.word	0x40054000

10002784 <busy_wait_us_32>:
10002784:	b570      	push	{r4, r5, r6, lr}
10002786:	2800      	cmp	r0, #0
10002788:	db06      	blt.n	10002798 <busy_wait_us_32+0x14>
1000278a:	4a17      	ldr	r2, [pc, #92]	; (100027e8 <busy_wait_us_32+0x64>)
1000278c:	6a91      	ldr	r1, [r2, #40]	; 0x28
1000278e:	6a93      	ldr	r3, [r2, #40]	; 0x28
10002790:	1a5b      	subs	r3, r3, r1
10002792:	4298      	cmp	r0, r3
10002794:	d8fb      	bhi.n	1000278e <busy_wait_us_32+0xa>
10002796:	bd70      	pop	{r4, r5, r6, pc}
10002798:	0004      	movs	r4, r0
1000279a:	2500      	movs	r5, #0
1000279c:	4a12      	ldr	r2, [pc, #72]	; (100027e8 <busy_wait_us_32+0x64>)
1000279e:	6a53      	ldr	r3, [r2, #36]	; 0x24
100027a0:	0019      	movs	r1, r3
100027a2:	6a96      	ldr	r6, [r2, #40]	; 0x28
100027a4:	6a53      	ldr	r3, [r2, #36]	; 0x24
100027a6:	428b      	cmp	r3, r1
100027a8:	d1fa      	bne.n	100027a0 <busy_wait_us_32+0x1c>
100027aa:	0030      	movs	r0, r6
100027ac:	0019      	movs	r1, r3
100027ae:	1824      	adds	r4, r4, r0
100027b0:	414d      	adcs	r5, r1
100027b2:	42ab      	cmp	r3, r5
100027b4:	d802      	bhi.n	100027bc <busy_wait_us_32+0x38>
100027b6:	d114      	bne.n	100027e2 <busy_wait_us_32+0x5e>
100027b8:	42a6      	cmp	r6, r4
100027ba:	d912      	bls.n	100027e2 <busy_wait_us_32+0x5e>
100027bc:	2301      	movs	r3, #1
100027be:	2401      	movs	r4, #1
100027c0:	4264      	negs	r4, r4
100027c2:	17e5      	asrs	r5, r4, #31
100027c4:	425b      	negs	r3, r3
100027c6:	4908      	ldr	r1, [pc, #32]	; (100027e8 <busy_wait_us_32+0x64>)
100027c8:	6a4a      	ldr	r2, [r1, #36]	; 0x24
100027ca:	429a      	cmp	r2, r3
100027cc:	d3fc      	bcc.n	100027c8 <busy_wait_us_32+0x44>
100027ce:	d1e2      	bne.n	10002796 <busy_wait_us_32+0x12>
100027d0:	4a05      	ldr	r2, [pc, #20]	; (100027e8 <busy_wait_us_32+0x64>)
100027d2:	e002      	b.n	100027da <busy_wait_us_32+0x56>
100027d4:	6a51      	ldr	r1, [r2, #36]	; 0x24
100027d6:	4299      	cmp	r1, r3
100027d8:	d1dd      	bne.n	10002796 <busy_wait_us_32+0x12>
100027da:	6a91      	ldr	r1, [r2, #40]	; 0x28
100027dc:	42a1      	cmp	r1, r4
100027de:	d3f9      	bcc.n	100027d4 <busy_wait_us_32+0x50>
100027e0:	e7d9      	b.n	10002796 <busy_wait_us_32+0x12>
100027e2:	002b      	movs	r3, r5
100027e4:	e7ef      	b.n	100027c6 <busy_wait_us_32+0x42>
100027e6:	46c0      	nop			; (mov r8, r8)
100027e8:	40054000 	.word	0x40054000

100027ec <busy_wait_us>:
100027ec:	b570      	push	{r4, r5, r6, lr}
100027ee:	0004      	movs	r4, r0
100027f0:	000d      	movs	r5, r1
100027f2:	4a12      	ldr	r2, [pc, #72]	; (1000283c <busy_wait_us+0x50>)
100027f4:	6a53      	ldr	r3, [r2, #36]	; 0x24
100027f6:	0019      	movs	r1, r3
100027f8:	6a96      	ldr	r6, [r2, #40]	; 0x28
100027fa:	6a53      	ldr	r3, [r2, #36]	; 0x24
100027fc:	428b      	cmp	r3, r1
100027fe:	d1fa      	bne.n	100027f6 <busy_wait_us+0xa>
10002800:	0030      	movs	r0, r6
10002802:	0019      	movs	r1, r3
10002804:	1824      	adds	r4, r4, r0
10002806:	414d      	adcs	r5, r1
10002808:	42ab      	cmp	r3, r5
1000280a:	d811      	bhi.n	10002830 <busy_wait_us+0x44>
1000280c:	d00e      	beq.n	1000282c <busy_wait_us+0x40>
1000280e:	002b      	movs	r3, r5
10002810:	490a      	ldr	r1, [pc, #40]	; (1000283c <busy_wait_us+0x50>)
10002812:	6a4a      	ldr	r2, [r1, #36]	; 0x24
10002814:	429a      	cmp	r2, r3
10002816:	d3fc      	bcc.n	10002812 <busy_wait_us+0x26>
10002818:	d107      	bne.n	1000282a <busy_wait_us+0x3e>
1000281a:	4a08      	ldr	r2, [pc, #32]	; (1000283c <busy_wait_us+0x50>)
1000281c:	e002      	b.n	10002824 <busy_wait_us+0x38>
1000281e:	6a51      	ldr	r1, [r2, #36]	; 0x24
10002820:	4299      	cmp	r1, r3
10002822:	d102      	bne.n	1000282a <busy_wait_us+0x3e>
10002824:	6a91      	ldr	r1, [r2, #40]	; 0x28
10002826:	42a1      	cmp	r1, r4
10002828:	d3f9      	bcc.n	1000281e <busy_wait_us+0x32>
1000282a:	bd70      	pop	{r4, r5, r6, pc}
1000282c:	42a6      	cmp	r6, r4
1000282e:	d9ee      	bls.n	1000280e <busy_wait_us+0x22>
10002830:	2301      	movs	r3, #1
10002832:	2401      	movs	r4, #1
10002834:	4264      	negs	r4, r4
10002836:	17e5      	asrs	r5, r4, #31
10002838:	425b      	negs	r3, r3
1000283a:	e7e9      	b.n	10002810 <busy_wait_us+0x24>
1000283c:	40054000 	.word	0x40054000

10002840 <busy_wait_until>:
10002840:	4a06      	ldr	r2, [pc, #24]	; (1000285c <busy_wait_until+0x1c>)
10002842:	6a53      	ldr	r3, [r2, #36]	; 0x24
10002844:	4299      	cmp	r1, r3
10002846:	d8fc      	bhi.n	10002842 <busy_wait_until+0x2>
10002848:	d107      	bne.n	1000285a <busy_wait_until+0x1a>
1000284a:	4b04      	ldr	r3, [pc, #16]	; (1000285c <busy_wait_until+0x1c>)
1000284c:	e002      	b.n	10002854 <busy_wait_until+0x14>
1000284e:	6a5a      	ldr	r2, [r3, #36]	; 0x24
10002850:	4291      	cmp	r1, r2
10002852:	d102      	bne.n	1000285a <busy_wait_until+0x1a>
10002854:	6a9a      	ldr	r2, [r3, #40]	; 0x28
10002856:	4282      	cmp	r2, r0
10002858:	d3f9      	bcc.n	1000284e <busy_wait_until+0xe>
1000285a:	4770      	bx	lr
1000285c:	40054000 	.word	0x40054000

10002860 <clock_configure_internal>:
10002860:	b5f0      	push	{r4, r5, r6, r7, lr}
10002862:	464f      	mov	r7, r9
10002864:	4699      	mov	r9, r3
10002866:	4b34      	ldr	r3, [pc, #208]	; (10002938 <clock_configure_internal+0xd8>)
10002868:	46de      	mov	lr, fp
1000286a:	4646      	mov	r6, r8
1000286c:	469c      	mov	ip, r3
1000286e:	0044      	lsls	r4, r0, #1
10002870:	1824      	adds	r4, r4, r0
10002872:	00a4      	lsls	r4, r4, #2
10002874:	b5c0      	push	{r6, r7, lr}
10002876:	4464      	add	r4, ip
10002878:	0016      	movs	r6, r2
1000287a:	6863      	ldr	r3, [r4, #4]
1000287c:	9a08      	ldr	r2, [sp, #32]
1000287e:	468b      	mov	fp, r1
10002880:	4293      	cmp	r3, r2
10002882:	d200      	bcs.n	10002886 <clock_configure_internal+0x26>
10002884:	6062      	str	r2, [r4, #4]
10002886:	1f03      	subs	r3, r0, #4
10002888:	b2db      	uxtb	r3, r3
1000288a:	4698      	mov	r8, r3
1000288c:	2b01      	cmp	r3, #1
1000288e:	d92e      	bls.n	100028ee <clock_configure_internal+0x8e>
10002890:	23c0      	movs	r3, #192	; 0xc0
10002892:	2280      	movs	r2, #128	; 0x80
10002894:	4f29      	ldr	r7, [pc, #164]	; (1000293c <clock_configure_internal+0xdc>)
10002896:	0085      	lsls	r5, r0, #2
10002898:	019b      	lsls	r3, r3, #6
1000289a:	5979      	ldr	r1, [r7, r5]
1000289c:	0112      	lsls	r2, r2, #4
1000289e:	18e3      	adds	r3, r4, r3
100028a0:	601a      	str	r2, [r3, #0]
100028a2:	2900      	cmp	r1, #0
100028a4:	d11a      	bne.n	100028dc <clock_configure_internal+0x7c>
100028a6:	6822      	ldr	r2, [r4, #0]
100028a8:	0176      	lsls	r6, r6, #5
100028aa:	4072      	eors	r2, r6
100028ac:	26e0      	movs	r6, #224	; 0xe0
100028ae:	2380      	movs	r3, #128	; 0x80
100028b0:	4016      	ands	r6, r2
100028b2:	4642      	mov	r2, r8
100028b4:	015b      	lsls	r3, r3, #5
100028b6:	18e3      	adds	r3, r4, r3
100028b8:	601e      	str	r6, [r3, #0]
100028ba:	2a01      	cmp	r2, #1
100028bc:	d92e      	bls.n	1000291c <clock_configure_internal+0xbc>
100028be:	2380      	movs	r3, #128	; 0x80
100028c0:	2280      	movs	r2, #128	; 0x80
100028c2:	019b      	lsls	r3, r3, #6
100028c4:	18e3      	adds	r3, r4, r3
100028c6:	0112      	lsls	r2, r2, #4
100028c8:	601a      	str	r2, [r3, #0]
100028ca:	9b08      	ldr	r3, [sp, #32]
100028cc:	6063      	str	r3, [r4, #4]
100028ce:	464b      	mov	r3, r9
100028d0:	517b      	str	r3, [r7, r5]
100028d2:	bce0      	pop	{r5, r6, r7}
100028d4:	46bb      	mov	fp, r7
100028d6:	46b1      	mov	r9, r6
100028d8:	46a8      	mov	r8, r5
100028da:	bdf0      	pop	{r4, r5, r6, r7, pc}
100028dc:	6978      	ldr	r0, [r7, #20]
100028de:	f000 fa5b 	bl	10002d98 <__wrap___aeabi_uidiv>
100028e2:	1c43      	adds	r3, r0, #1
100028e4:	0058      	lsls	r0, r3, #1
100028e6:	18c0      	adds	r0, r0, r3
100028e8:	3803      	subs	r0, #3
100028ea:	d2fd      	bcs.n	100028e8 <clock_configure_internal+0x88>
100028ec:	e7db      	b.n	100028a6 <clock_configure_internal+0x46>
100028ee:	465b      	mov	r3, fp
100028f0:	2b01      	cmp	r3, #1
100028f2:	d1cd      	bne.n	10002890 <clock_configure_internal+0x30>
100028f4:	23c0      	movs	r3, #192	; 0xc0
100028f6:	2203      	movs	r2, #3
100028f8:	019b      	lsls	r3, r3, #6
100028fa:	18e3      	adds	r3, r4, r3
100028fc:	601a      	str	r2, [r3, #0]
100028fe:	3a02      	subs	r2, #2
10002900:	68a3      	ldr	r3, [r4, #8]
10002902:	421a      	tst	r2, r3
10002904:	d0fc      	beq.n	10002900 <clock_configure_internal+0xa0>
10002906:	23e0      	movs	r3, #224	; 0xe0
10002908:	6822      	ldr	r2, [r4, #0]
1000290a:	0176      	lsls	r6, r6, #5
1000290c:	4056      	eors	r6, r2
1000290e:	401e      	ands	r6, r3
10002910:	2380      	movs	r3, #128	; 0x80
10002912:	015b      	lsls	r3, r3, #5
10002914:	18e3      	adds	r3, r4, r3
10002916:	4f09      	ldr	r7, [pc, #36]	; (1000293c <clock_configure_internal+0xdc>)
10002918:	601e      	str	r6, [r3, #0]
1000291a:	0085      	lsls	r5, r0, #2
1000291c:	465a      	mov	r2, fp
1000291e:	6821      	ldr	r1, [r4, #0]
10002920:	4051      	eors	r1, r2
10002922:	2203      	movs	r2, #3
10002924:	400a      	ands	r2, r1
10002926:	601a      	str	r2, [r3, #0]
10002928:	2301      	movs	r3, #1
1000292a:	465a      	mov	r2, fp
1000292c:	4093      	lsls	r3, r2
1000292e:	68a2      	ldr	r2, [r4, #8]
10002930:	4213      	tst	r3, r2
10002932:	d0fc      	beq.n	1000292e <clock_configure_internal+0xce>
10002934:	e7c3      	b.n	100028be <clock_configure_internal+0x5e>
10002936:	46c0      	nop			; (mov r8, r8)
10002938:	40008000 	.word	0x40008000
1000293c:	20000b98 	.word	0x20000b98

10002940 <clock_configure_int_divider>:
10002940:	b5f0      	push	{r4, r5, r6, r7, lr}
10002942:	b083      	sub	sp, #12
10002944:	0005      	movs	r5, r0
10002946:	000e      	movs	r6, r1
10002948:	0018      	movs	r0, r3
1000294a:	9908      	ldr	r1, [sp, #32]
1000294c:	0017      	movs	r7, r2
1000294e:	f000 fa23 	bl	10002d98 <__wrap___aeabi_uidiv>
10002952:	9a08      	ldr	r2, [sp, #32]
10002954:	0003      	movs	r3, r0
10002956:	0214      	lsls	r4, r2, #8
10002958:	0031      	movs	r1, r6
1000295a:	003a      	movs	r2, r7
1000295c:	0028      	movs	r0, r5
1000295e:	9400      	str	r4, [sp, #0]
10002960:	f7ff ff7e 	bl	10002860 <clock_configure_internal>
10002964:	b003      	add	sp, #12
10002966:	bdf0      	pop	{r4, r5, r6, r7, pc}

10002968 <clock_configure_undivided>:
10002968:	b510      	push	{r4, lr}
1000296a:	2480      	movs	r4, #128	; 0x80
1000296c:	b082      	sub	sp, #8
1000296e:	0064      	lsls	r4, r4, #1
10002970:	9400      	str	r4, [sp, #0]
10002972:	f7ff ff75 	bl	10002860 <clock_configure_internal>
10002976:	b002      	add	sp, #8
10002978:	bd10      	pop	{r4, pc}
1000297a:	46c0      	nop			; (mov r8, r8)

1000297c <clock_get_hz>:
1000297c:	4b01      	ldr	r3, [pc, #4]	; (10002984 <clock_get_hz+0x8>)
1000297e:	0080      	lsls	r0, r0, #2
10002980:	58c0      	ldr	r0, [r0, r3]
10002982:	4770      	bx	lr
10002984:	20000b98 	.word	0x20000b98

10002988 <pll_init>:
10002988:	b5f8      	push	{r3, r4, r5, r6, r7, lr}
1000298a:	0004      	movs	r4, r0
1000298c:	4820      	ldr	r0, [pc, #128]	; (10002a10 <pll_init+0x88>)
1000298e:	001d      	movs	r5, r3
10002990:	0017      	movs	r7, r2
10002992:	000e      	movs	r6, r1
10002994:	f000 fa00 	bl	10002d98 <__wrap___aeabi_uidiv>
10002998:	0001      	movs	r1, r0
1000299a:	0038      	movs	r0, r7
1000299c:	f000 f9fc 	bl	10002d98 <__wrap___aeabi_uidiv>
100029a0:	9b06      	ldr	r3, [sp, #24]
100029a2:	0429      	lsls	r1, r5, #16
100029a4:	031b      	lsls	r3, r3, #12
100029a6:	4319      	orrs	r1, r3
100029a8:	6823      	ldr	r3, [r4, #0]
100029aa:	2b00      	cmp	r3, #0
100029ac:	db1e      	blt.n	100029ec <pll_init+0x64>
100029ae:	4b19      	ldr	r3, [pc, #100]	; (10002a14 <pll_init+0x8c>)
100029b0:	4d19      	ldr	r5, [pc, #100]	; (10002a18 <pll_init+0x90>)
100029b2:	18e2      	adds	r2, r4, r3
100029b4:	4253      	negs	r3, r2
100029b6:	415a      	adcs	r2, r3
100029b8:	2380      	movs	r3, #128	; 0x80
100029ba:	015b      	lsls	r3, r3, #5
100029bc:	469c      	mov	ip, r3
100029be:	0312      	lsls	r2, r2, #12
100029c0:	4b16      	ldr	r3, [pc, #88]	; (10002a1c <pll_init+0x94>)
100029c2:	4462      	add	r2, ip
100029c4:	601a      	str	r2, [r3, #0]
100029c6:	4b16      	ldr	r3, [pc, #88]	; (10002a20 <pll_init+0x98>)
100029c8:	601a      	str	r2, [r3, #0]
100029ca:	0017      	movs	r7, r2
100029cc:	682b      	ldr	r3, [r5, #0]
100029ce:	439f      	bics	r7, r3
100029d0:	d1fb      	bne.n	100029ca <pll_init+0x42>
100029d2:	4b14      	ldr	r3, [pc, #80]	; (10002a24 <pll_init+0x9c>)
100029d4:	6026      	str	r6, [r4, #0]
100029d6:	18e2      	adds	r2, r4, r3
100029d8:	2321      	movs	r3, #33	; 0x21
100029da:	60a0      	str	r0, [r4, #8]
100029dc:	6013      	str	r3, [r2, #0]
100029de:	6823      	ldr	r3, [r4, #0]
100029e0:	2b00      	cmp	r3, #0
100029e2:	dafc      	bge.n	100029de <pll_init+0x56>
100029e4:	2308      	movs	r3, #8
100029e6:	60e1      	str	r1, [r4, #12]
100029e8:	6013      	str	r3, [r2, #0]
100029ea:	bdf8      	pop	{r3, r4, r5, r6, r7, pc}
100029ec:	233f      	movs	r3, #63	; 0x3f
100029ee:	6822      	ldr	r2, [r4, #0]
100029f0:	4013      	ands	r3, r2
100029f2:	42b3      	cmp	r3, r6
100029f4:	d1db      	bne.n	100029ae <pll_init+0x26>
100029f6:	68a3      	ldr	r3, [r4, #8]
100029f8:	051b      	lsls	r3, r3, #20
100029fa:	0d1b      	lsrs	r3, r3, #20
100029fc:	4283      	cmp	r3, r0
100029fe:	d1d6      	bne.n	100029ae <pll_init+0x26>
10002a00:	22ee      	movs	r2, #238	; 0xee
10002a02:	68e3      	ldr	r3, [r4, #12]
10002a04:	02d2      	lsls	r2, r2, #11
10002a06:	4013      	ands	r3, r2
10002a08:	428b      	cmp	r3, r1
10002a0a:	d1d0      	bne.n	100029ae <pll_init+0x26>
10002a0c:	e7ed      	b.n	100029ea <pll_init+0x62>
10002a0e:	46c0      	nop			; (mov r8, r8)
10002a10:	00b71b00 	.word	0x00b71b00
10002a14:	bffd4000 	.word	0xbffd4000
10002a18:	4000c008 	.word	0x4000c008
10002a1c:	4000e000 	.word	0x4000e000
10002a20:	4000f000 	.word	0x4000f000
10002a24:	00003004 	.word	0x00003004

10002a28 <watchdog_reboot>:
10002a28:	b510      	push	{r4, lr}
10002a2a:	0014      	movs	r4, r2
10002a2c:	2280      	movs	r2, #128	; 0x80
10002a2e:	4b1b      	ldr	r3, [pc, #108]	; (10002a9c <watchdog_reboot+0x74>)
10002a30:	05d2      	lsls	r2, r2, #23
10002a32:	601a      	str	r2, [r3, #0]
10002a34:	2800      	cmp	r0, #0
10002a36:	d01a      	beq.n	10002a6e <watchdog_reboot+0x46>
10002a38:	2301      	movs	r3, #1
10002a3a:	4a19      	ldr	r2, [pc, #100]	; (10002aa0 <watchdog_reboot+0x78>)
10002a3c:	4318      	orrs	r0, r3
10002a3e:	4b19      	ldr	r3, [pc, #100]	; (10002aa4 <watchdog_reboot+0x7c>)
10002a40:	61da      	str	r2, [r3, #28]
10002a42:	4a19      	ldr	r2, [pc, #100]	; (10002aa8 <watchdog_reboot+0x80>)
10002a44:	4042      	eors	r2, r0
10002a46:	621a      	str	r2, [r3, #32]
10002a48:	6259      	str	r1, [r3, #36]	; 0x24
10002a4a:	6298      	str	r0, [r3, #40]	; 0x28
10002a4c:	2280      	movs	r2, #128	; 0x80
10002a4e:	4b13      	ldr	r3, [pc, #76]	; (10002a9c <watchdog_reboot+0x74>)
10002a50:	05d2      	lsls	r2, r2, #23
10002a52:	601a      	str	r2, [r3, #0]
10002a54:	4915      	ldr	r1, [pc, #84]	; (10002aac <watchdog_reboot+0x84>)
10002a56:	4a16      	ldr	r2, [pc, #88]	; (10002ab0 <watchdog_reboot+0x88>)
10002a58:	6011      	str	r1, [r2, #0]
10002a5a:	22e0      	movs	r2, #224	; 0xe0
10002a5c:	04d2      	lsls	r2, r2, #19
10002a5e:	601a      	str	r2, [r3, #0]
10002a60:	2c00      	cmp	r4, #0
10002a62:	d107      	bne.n	10002a74 <watchdog_reboot+0x4c>
10002a64:	2280      	movs	r2, #128	; 0x80
10002a66:	4b13      	ldr	r3, [pc, #76]	; (10002ab4 <watchdog_reboot+0x8c>)
10002a68:	0612      	lsls	r2, r2, #24
10002a6a:	601a      	str	r2, [r3, #0]
10002a6c:	bd10      	pop	{r4, pc}
10002a6e:	4b0d      	ldr	r3, [pc, #52]	; (10002aa4 <watchdog_reboot+0x7c>)
10002a70:	61d8      	str	r0, [r3, #28]
10002a72:	e7eb      	b.n	10002a4c <watchdog_reboot+0x24>
10002a74:	0163      	lsls	r3, r4, #5
10002a76:	1b1b      	subs	r3, r3, r4
10002a78:	009a      	lsls	r2, r3, #2
10002a7a:	2380      	movs	r3, #128	; 0x80
10002a7c:	1912      	adds	r2, r2, r4
10002a7e:	0112      	lsls	r2, r2, #4
10002a80:	045b      	lsls	r3, r3, #17
10002a82:	429a      	cmp	r2, r3
10002a84:	d300      	bcc.n	10002a88 <watchdog_reboot+0x60>
10002a86:	4a0c      	ldr	r2, [pc, #48]	; (10002ab8 <watchdog_reboot+0x90>)
10002a88:	4b0c      	ldr	r3, [pc, #48]	; (10002abc <watchdog_reboot+0x94>)
10002a8a:	601a      	str	r2, [r3, #0]
10002a8c:	4b05      	ldr	r3, [pc, #20]	; (10002aa4 <watchdog_reboot+0x7c>)
10002a8e:	605a      	str	r2, [r3, #4]
10002a90:	2280      	movs	r2, #128	; 0x80
10002a92:	4b08      	ldr	r3, [pc, #32]	; (10002ab4 <watchdog_reboot+0x8c>)
10002a94:	05d2      	lsls	r2, r2, #23
10002a96:	601a      	str	r2, [r3, #0]
10002a98:	e7e8      	b.n	10002a6c <watchdog_reboot+0x44>
10002a9a:	46c0      	nop			; (mov r8, r8)
10002a9c:	4005b000 	.word	0x4005b000
10002aa0:	b007c0d3 	.word	0xb007c0d3
10002aa4:	40058000 	.word	0x40058000
10002aa8:	4ff83f2d 	.word	0x4ff83f2d
10002aac:	0001fffc 	.word	0x0001fffc
10002ab0:	40012008 	.word	0x40012008
10002ab4:	4005a000 	.word	0x4005a000
10002ab8:	00ffffff 	.word	0x00ffffff
10002abc:	20000bcc 	.word	0x20000bcc

10002ac0 <tick_start>:
10002ac0:	2380      	movs	r3, #128	; 0x80
10002ac2:	4a02      	ldr	r2, [pc, #8]	; (10002acc <tick_start+0xc>)
10002ac4:	009b      	lsls	r3, r3, #2
10002ac6:	430b      	orrs	r3, r1
10002ac8:	62d3      	str	r3, [r2, #44]	; 0x2c
10002aca:	4770      	bx	lr
10002acc:	40058000 	.word	0x40058000

10002ad0 <rom_func_lookup>:
10002ad0:	2314      	movs	r3, #20
10002ad2:	b510      	push	{r4, lr}
10002ad4:	0001      	movs	r1, r0
10002ad6:	8818      	ldrh	r0, [r3, #0]
10002ad8:	3304      	adds	r3, #4
10002ada:	881b      	ldrh	r3, [r3, #0]
10002adc:	4798      	blx	r3
10002ade:	bd10      	pop	{r4, pc}

10002ae0 <rom_data_lookup>:
10002ae0:	2316      	movs	r3, #22
10002ae2:	b510      	push	{r4, lr}
10002ae4:	0001      	movs	r1, r0
10002ae6:	8818      	ldrh	r0, [r3, #0]
10002ae8:	3302      	adds	r3, #2
10002aea:	881b      	ldrh	r3, [r3, #0]
10002aec:	4798      	blx	r3
10002aee:	bd10      	pop	{r4, pc}

10002af0 <rom_funcs_lookup>:
10002af0:	b5f8      	push	{r3, r4, r5, r6, r7, lr}
10002af2:	4647      	mov	r7, r8
10002af4:	46ce      	mov	lr, r9
10002af6:	b580      	push	{r7, lr}
10002af8:	1e0f      	subs	r7, r1, #0
10002afa:	d019      	beq.n	10002b30 <rom_funcs_lookup+0x40>
10002afc:	2314      	movs	r3, #20
10002afe:	4699      	mov	r9, r3
10002b00:	3304      	adds	r3, #4
10002b02:	0004      	movs	r4, r0
10002b04:	2500      	movs	r5, #0
10002b06:	2601      	movs	r6, #1
10002b08:	4698      	mov	r8, r3
10002b0a:	464b      	mov	r3, r9
10002b0c:	8818      	ldrh	r0, [r3, #0]
10002b0e:	4643      	mov	r3, r8
10002b10:	6821      	ldr	r1, [r4, #0]
10002b12:	881b      	ldrh	r3, [r3, #0]
10002b14:	4798      	blx	r3
10002b16:	c401      	stmia	r4!, {r0}
10002b18:	1e43      	subs	r3, r0, #1
10002b1a:	4198      	sbcs	r0, r3
10002b1c:	3501      	adds	r5, #1
10002b1e:	4240      	negs	r0, r0
10002b20:	4006      	ands	r6, r0
10002b22:	42af      	cmp	r7, r5
10002b24:	d1f1      	bne.n	10002b0a <rom_funcs_lookup+0x1a>
10002b26:	0030      	movs	r0, r6
10002b28:	bcc0      	pop	{r6, r7}
10002b2a:	46b9      	mov	r9, r7
10002b2c:	46b0      	mov	r8, r6
10002b2e:	bdf8      	pop	{r3, r4, r5, r6, r7, pc}
10002b30:	2601      	movs	r6, #1
10002b32:	e7f8      	b.n	10002b26 <rom_funcs_lookup+0x36>

10002b34 <xosc_init>:
10002b34:	23aa      	movs	r3, #170	; 0xaa
10002b36:	4a06      	ldr	r2, [pc, #24]	; (10002b50 <xosc_init+0x1c>)
10002b38:	011b      	lsls	r3, r3, #4
10002b3a:	6013      	str	r3, [r2, #0]
10002b3c:	238d      	movs	r3, #141	; 0x8d
10002b3e:	005b      	lsls	r3, r3, #1
10002b40:	60d3      	str	r3, [r2, #12]
10002b42:	4904      	ldr	r1, [pc, #16]	; (10002b54 <xosc_init+0x20>)
10002b44:	4b04      	ldr	r3, [pc, #16]	; (10002b58 <xosc_init+0x24>)
10002b46:	6019      	str	r1, [r3, #0]
10002b48:	6853      	ldr	r3, [r2, #4]
10002b4a:	2b00      	cmp	r3, #0
10002b4c:	dafc      	bge.n	10002b48 <xosc_init+0x14>
10002b4e:	4770      	bx	lr
10002b50:	40024000 	.word	0x40024000
10002b54:	00fab000 	.word	0x00fab000
10002b58:	40026000 	.word	0x40026000

10002b5c <first_per_core_initializer>:
10002b5c:	4770      	bx	lr
10002b5e:	46c0      	nop			; (mov r8, r8)

10002b60 <hard_assertion_failure>:
10002b60:	b510      	push	{r4, lr}
10002b62:	4801      	ldr	r0, [pc, #4]	; (10002b68 <hard_assertion_failure+0x8>)
10002b64:	f7ff f9a2 	bl	10001eac <panic>
10002b68:	100060d4 	.word	0x100060d4

10002b6c <runtime_run_initializers>:
10002b6c:	b570      	push	{r4, r5, r6, lr}
10002b6e:	4d07      	ldr	r5, [pc, #28]	; (10002b8c <runtime_run_initializers+0x20>)
10002b70:	4e07      	ldr	r6, [pc, #28]	; (10002b90 <runtime_run_initializers+0x24>)
10002b72:	42b5      	cmp	r5, r6
10002b74:	d209      	bcs.n	10002b8a <runtime_run_initializers+0x1e>
10002b76:	2400      	movs	r4, #0
10002b78:	3e01      	subs	r6, #1
10002b7a:	1b76      	subs	r6, r6, r5
10002b7c:	08b6      	lsrs	r6, r6, #2
10002b7e:	cd08      	ldmia	r5!, {r3}
10002b80:	4798      	blx	r3
10002b82:	0023      	movs	r3, r4
10002b84:	3401      	adds	r4, #1
10002b86:	42b3      	cmp	r3, r6
10002b88:	d1f9      	bne.n	10002b7e <runtime_run_initializers+0x12>
10002b8a:	bd70      	pop	{r4, r5, r6, pc}
10002b8c:	100055c8 	.word	0x100055c8
10002b90:	10005604 	.word	0x10005604

10002b94 <runtime_init_early_resets>:
10002b94:	4b05      	ldr	r3, [pc, #20]	; (10002bac <runtime_init_early_resets+0x18>)
10002b96:	4a06      	ldr	r2, [pc, #24]	; (10002bb0 <runtime_init_early_resets+0x1c>)
10002b98:	4906      	ldr	r1, [pc, #24]	; (10002bb4 <runtime_init_early_resets+0x20>)
10002b9a:	601a      	str	r2, [r3, #0]
10002b9c:	4a06      	ldr	r2, [pc, #24]	; (10002bb8 <runtime_init_early_resets+0x24>)
10002b9e:	4b07      	ldr	r3, [pc, #28]	; (10002bbc <runtime_init_early_resets+0x28>)
10002ba0:	601a      	str	r2, [r3, #0]
10002ba2:	0010      	movs	r0, r2
10002ba4:	680b      	ldr	r3, [r1, #0]
10002ba6:	4398      	bics	r0, r3
10002ba8:	d1fb      	bne.n	10002ba2 <runtime_init_early_resets+0xe>
10002baa:	4770      	bx	lr
10002bac:	4000e000 	.word	0x4000e000
10002bb0:	fefbcdbf 	.word	0xfefbcdbf
10002bb4:	4000c008 	.word	0x4000c008
10002bb8:	003c7ffe 	.word	0x003c7ffe
10002bbc:	4000f000 	.word	0x4000f000

10002bc0 <runtime_init_usb_power_down>:
10002bc0:	4b04      	ldr	r3, [pc, #16]	; (10002bd4 <runtime_init_usb_power_down+0x14>)
10002bc2:	6cdb      	ldr	r3, [r3, #76]	; 0x4c
10002bc4:	2b00      	cmp	r3, #0
10002bc6:	d103      	bne.n	10002bd0 <runtime_init_usb_power_down+0x10>
10002bc8:	2280      	movs	r2, #128	; 0x80
10002bca:	4b03      	ldr	r3, [pc, #12]	; (10002bd8 <runtime_init_usb_power_down+0x18>)
10002bcc:	02d2      	lsls	r2, r2, #11
10002bce:	601a      	str	r2, [r3, #0]
10002bd0:	4770      	bx	lr
10002bd2:	46c0      	nop			; (mov r8, r8)
10002bd4:	50110000 	.word	0x50110000
10002bd8:	5011204c 	.word	0x5011204c

10002bdc <runtime_init_post_clock_resets>:
10002bdc:	4a04      	ldr	r2, [pc, #16]	; (10002bf0 <runtime_init_post_clock_resets+0x14>)
10002bde:	4b05      	ldr	r3, [pc, #20]	; (10002bf4 <runtime_init_post_clock_resets+0x18>)
10002be0:	601a      	str	r2, [r3, #0]
10002be2:	4a05      	ldr	r2, [pc, #20]	; (10002bf8 <runtime_init_post_clock_resets+0x1c>)
10002be4:	6813      	ldr	r3, [r2, #0]
10002be6:	01db      	lsls	r3, r3, #7
10002be8:	3380      	adds	r3, #128	; 0x80
10002bea:	d1fb      	bne.n	10002be4 <runtime_init_post_clock_resets+0x8>
10002bec:	4770      	bx	lr
10002bee:	46c0      	nop			; (mov r8, r8)
10002bf0:	01ffffff 	.word	0x01ffffff
10002bf4:	4000f000 	.word	0x4000f000
10002bf8:	4000c008 	.word	0x4000c008

10002bfc <runtime_init_rp2040_gpio_ie_disable>:
10002bfc:	2240      	movs	r2, #64	; 0x40
10002bfe:	4b03      	ldr	r3, [pc, #12]	; (10002c0c <runtime_init_rp2040_gpio_ie_disable+0x10>)
10002c00:	679a      	str	r2, [r3, #120]	; 0x78
10002c02:	675a      	str	r2, [r3, #116]	; 0x74
10002c04:	671a      	str	r2, [r3, #112]	; 0x70
10002c06:	66da      	str	r2, [r3, #108]	; 0x6c
10002c08:	4770      	bx	lr
10002c0a:	46c0      	nop			; (mov r8, r8)
10002c0c:	4001f000 	.word	0x4001f000

10002c10 <runtime_init_spin_locks_reset>:
10002c10:	b510      	push	{r4, lr}
10002c12:	f7ff f991 	bl	10001f38 <spin_locks_reset>
10002c16:	bd10      	pop	{r4, pc}

10002c18 <runtime_init_install_ram_vector_table>:
10002c18:	b570      	push	{r4, r5, r6, lr}
10002c1a:	490c      	ldr	r1, [pc, #48]	; (10002c4c <runtime_init_install_ram_vector_table+0x34>)
10002c1c:	4d0c      	ldr	r5, [pc, #48]	; (10002c50 <runtime_init_install_ram_vector_table+0x38>)
10002c1e:	4e0d      	ldr	r6, [pc, #52]	; (10002c54 <runtime_init_install_ram_vector_table+0x3c>)
10002c20:	1a6d      	subs	r5, r5, r1
10002c22:	10ac      	asrs	r4, r5, #2
10002c24:	0022      	movs	r2, r4
10002c26:	2c30      	cmp	r4, #48	; 0x30
10002c28:	d900      	bls.n	10002c2c <runtime_init_install_ram_vector_table+0x14>
10002c2a:	2230      	movs	r2, #48	; 0x30
10002c2c:	0030      	movs	r0, r6
10002c2e:	0092      	lsls	r2, r2, #2
10002c30:	f000 ff26 	bl	10003a80 <__wrap___aeabi_memcpy>
10002c34:	2dbc      	cmp	r5, #188	; 0xbc
10002c36:	d805      	bhi.n	10002c44 <runtime_init_install_ram_vector_table+0x2c>
10002c38:	4a07      	ldr	r2, [pc, #28]	; (10002c58 <runtime_init_install_ram_vector_table+0x40>)
10002c3a:	1975      	adds	r5, r6, r5
10002c3c:	3401      	adds	r4, #1
10002c3e:	c504      	stmia	r5!, {r2}
10002c40:	2c30      	cmp	r4, #48	; 0x30
10002c42:	d1fb      	bne.n	10002c3c <runtime_init_install_ram_vector_table+0x24>
10002c44:	4b05      	ldr	r3, [pc, #20]	; (10002c5c <runtime_init_install_ram_vector_table+0x44>)
10002c46:	609e      	str	r6, [r3, #8]
10002c48:	bd70      	pop	{r4, r5, r6, pc}
10002c4a:	46c0      	nop			; (mov r8, r8)
10002c4c:	10000100 	.word	0x10000100
10002c50:	100001c0 	.word	0x100001c0
10002c54:	20000000 	.word	0x20000000
10002c58:	100001c1 	.word	0x100001c1
10002c5c:	e000ed00 	.word	0xe000ed00

10002c60 <runtime_init_clocks>:
10002c60:	2300      	movs	r3, #0
10002c62:	b510      	push	{r4, lr}
10002c64:	4c29      	ldr	r4, [pc, #164]	; (10002d0c <runtime_init_clocks+0xac>)
10002c66:	b082      	sub	sp, #8
10002c68:	67a3      	str	r3, [r4, #120]	; 0x78
10002c6a:	f7ff ff63 	bl	10002b34 <xosc_init>
10002c6e:	2201      	movs	r2, #1
10002c70:	4b27      	ldr	r3, [pc, #156]	; (10002d10 <runtime_init_clocks+0xb0>)
10002c72:	601a      	str	r2, [r3, #0]
10002c74:	6c63      	ldr	r3, [r4, #68]	; 0x44
10002c76:	2b01      	cmp	r3, #1
10002c78:	d1fc      	bne.n	10002c74 <runtime_init_clocks+0x14>
10002c7a:	2203      	movs	r2, #3
10002c7c:	4b25      	ldr	r3, [pc, #148]	; (10002d14 <runtime_init_clocks+0xb4>)
10002c7e:	601a      	str	r2, [r3, #0]
10002c80:	4a22      	ldr	r2, [pc, #136]	; (10002d0c <runtime_init_clocks+0xac>)
10002c82:	6b93      	ldr	r3, [r2, #56]	; 0x38
10002c84:	2b01      	cmp	r3, #1
10002c86:	d1fc      	bne.n	10002c82 <runtime_init_clocks+0x22>
10002c88:	3301      	adds	r3, #1
10002c8a:	9300      	str	r3, [sp, #0]
10002c8c:	2101      	movs	r1, #1
10002c8e:	4a22      	ldr	r2, [pc, #136]	; (10002d18 <runtime_init_clocks+0xb8>)
10002c90:	4822      	ldr	r0, [pc, #136]	; (10002d1c <runtime_init_clocks+0xbc>)
10002c92:	3304      	adds	r3, #4
10002c94:	f7ff fe78 	bl	10002988 <pll_init>
10002c98:	2305      	movs	r3, #5
10002c9a:	2101      	movs	r1, #1
10002c9c:	9300      	str	r3, [sp, #0]
10002c9e:	4a20      	ldr	r2, [pc, #128]	; (10002d20 <runtime_init_clocks+0xc0>)
10002ca0:	4820      	ldr	r0, [pc, #128]	; (10002d24 <runtime_init_clocks+0xc4>)
10002ca2:	f7ff fe71 	bl	10002988 <pll_init>
10002ca6:	2200      	movs	r2, #0
10002ca8:	2102      	movs	r1, #2
10002caa:	2004      	movs	r0, #4
10002cac:	4b1e      	ldr	r3, [pc, #120]	; (10002d28 <runtime_init_clocks+0xc8>)
10002cae:	f7ff fe5b 	bl	10002968 <clock_configure_undivided>
10002cb2:	2200      	movs	r2, #0
10002cb4:	2101      	movs	r1, #1
10002cb6:	2005      	movs	r0, #5
10002cb8:	4b1c      	ldr	r3, [pc, #112]	; (10002d2c <runtime_init_clocks+0xcc>)
10002cba:	f7ff fe55 	bl	10002968 <clock_configure_undivided>
10002cbe:	2200      	movs	r2, #0
10002cc0:	2100      	movs	r1, #0
10002cc2:	2007      	movs	r0, #7
10002cc4:	4b1a      	ldr	r3, [pc, #104]	; (10002d30 <runtime_init_clocks+0xd0>)
10002cc6:	f7ff fe4f 	bl	10002968 <clock_configure_undivided>
10002cca:	2200      	movs	r2, #0
10002ccc:	2100      	movs	r1, #0
10002cce:	2008      	movs	r0, #8
10002cd0:	4b17      	ldr	r3, [pc, #92]	; (10002d30 <runtime_init_clocks+0xd0>)
10002cd2:	f7ff fe49 	bl	10002968 <clock_configure_undivided>
10002cd6:	2380      	movs	r3, #128	; 0x80
10002cd8:	00db      	lsls	r3, r3, #3
10002cda:	9300      	str	r3, [sp, #0]
10002cdc:	2200      	movs	r2, #0
10002cde:	2100      	movs	r1, #0
10002ce0:	2009      	movs	r0, #9
10002ce2:	4b13      	ldr	r3, [pc, #76]	; (10002d30 <runtime_init_clocks+0xd0>)
10002ce4:	f7ff fe2c 	bl	10002940 <clock_configure_int_divider>
10002ce8:	2200      	movs	r2, #0
10002cea:	4b10      	ldr	r3, [pc, #64]	; (10002d2c <runtime_init_clocks+0xcc>)
10002cec:	2100      	movs	r1, #0
10002cee:	2006      	movs	r0, #6
10002cf0:	f7ff fe3a 	bl	10002968 <clock_configure_undivided>
10002cf4:	2004      	movs	r0, #4
10002cf6:	f7ff fe41 	bl	1000297c <clock_get_hz>
10002cfa:	490e      	ldr	r1, [pc, #56]	; (10002d34 <runtime_init_clocks+0xd4>)
10002cfc:	f000 f84c 	bl	10002d98 <__wrap___aeabi_uidiv>
10002d00:	0001      	movs	r1, r0
10002d02:	2000      	movs	r0, #0
10002d04:	f7ff fedc 	bl	10002ac0 <tick_start>
10002d08:	b002      	add	sp, #8
10002d0a:	bd10      	pop	{r4, pc}
10002d0c:	40008000 	.word	0x40008000
10002d10:	4000b03c 	.word	0x4000b03c
10002d14:	4000b030 	.word	0x4000b030
10002d18:	59682f00 	.word	0x59682f00
10002d1c:	40028000 	.word	0x40028000
10002d20:	47868c00 	.word	0x47868c00
10002d24:	4002c000 	.word	0x4002c000
10002d28:	00b71b00 	.word	0x00b71b00
10002d2c:	07735940 	.word	0x07735940
10002d30:	02dc6c00 	.word	0x02dc6c00
10002d34:	000f4240 	.word	0x000f4240

10002d38 <__aeabi_bits_init>:
10002d38:	4801      	ldr	r0, [pc, #4]	; (10002d40 <__aeabi_bits_init+0x8>)
10002d3a:	2104      	movs	r1, #4
10002d3c:	4b01      	ldr	r3, [pc, #4]	; (10002d44 <__aeabi_bits_init+0xc>)
10002d3e:	4718      	bx	r3
10002d40:	200004a0 	.word	0x200004a0
10002d44:	10002af1 	.word	0x10002af1

10002d48 <__wrap___aeabi_idiv>:
10002d48:	4a12      	ldr	r2, [pc, #72]	; (10002d94 <divmod_s32s32_savestate+0x18>)
10002d4a:	6f93      	ldr	r3, [r2, #120]	; 0x78
10002d4c:	089b      	lsrs	r3, r3, #2
10002d4e:	d215      	bcs.n	10002d7c <divmod_s32s32_savestate>

10002d50 <divmod_s32s32_unsafe>:
10002d50:	6690      	str	r0, [r2, #104]	; 0x68
10002d52:	66d1      	str	r1, [r2, #108]	; 0x6c
10002d54:	2900      	cmp	r1, #0
10002d56:	d005      	beq.n	10002d64 <divmod_s32s32_unsafe+0x14>
10002d58:	e7ff      	b.n	10002d5a <divmod_s32s32_unsafe+0xa>
10002d5a:	e7ff      	b.n	10002d5c <divmod_s32s32_unsafe+0xc>
10002d5c:	e7ff      	b.n	10002d5e <divmod_s32s32_unsafe+0xe>
10002d5e:	6f51      	ldr	r1, [r2, #116]	; 0x74
10002d60:	6f10      	ldr	r0, [r2, #112]	; 0x70
10002d62:	4770      	bx	lr
10002d64:	b504      	push	{r2, lr}
10002d66:	2180      	movs	r1, #128	; 0x80
10002d68:	0609      	lsls	r1, r1, #24
10002d6a:	17c2      	asrs	r2, r0, #31
10002d6c:	4051      	eors	r1, r2
10002d6e:	2800      	cmp	r0, #0
10002d70:	d000      	beq.n	10002d74 <divmod_s32s32_unsafe+0x24>
10002d72:	43c8      	mvns	r0, r1
10002d74:	f002 fc08 	bl	10005588 <____aeabi_idiv0_veneer>
10002d78:	2100      	movs	r1, #0
10002d7a:	bd04      	pop	{r2, pc}

10002d7c <divmod_s32s32_savestate>:
10002d7c:	b5f0      	push	{r4, r5, r6, r7, lr}
10002d7e:	6e14      	ldr	r4, [r2, #96]	; 0x60
10002d80:	6e55      	ldr	r5, [r2, #100]	; 0x64
10002d82:	6f57      	ldr	r7, [r2, #116]	; 0x74
10002d84:	6f16      	ldr	r6, [r2, #112]	; 0x70
10002d86:	f7ff ffe3 	bl	10002d50 <divmod_s32s32_unsafe>
10002d8a:	6614      	str	r4, [r2, #96]	; 0x60
10002d8c:	6655      	str	r5, [r2, #100]	; 0x64
10002d8e:	6757      	str	r7, [r2, #116]	; 0x74
10002d90:	6716      	str	r6, [r2, #112]	; 0x70
10002d92:	bdf0      	pop	{r4, r5, r6, r7, pc}
10002d94:	d0000000 	.word	0xd0000000

10002d98 <__wrap___aeabi_uidiv>:
10002d98:	4a11      	ldr	r2, [pc, #68]	; (10002de0 <divmod_u32u32_savestate+0x18>)
10002d9a:	6f93      	ldr	r3, [r2, #120]	; 0x78
10002d9c:	089b      	lsrs	r3, r3, #2
10002d9e:	d213      	bcs.n	10002dc8 <divmod_u32u32_savestate>

10002da0 <divmod_u32u32_unsafe>:
10002da0:	6610      	str	r0, [r2, #96]	; 0x60
10002da2:	6651      	str	r1, [r2, #100]	; 0x64
10002da4:	2900      	cmp	r1, #0
10002da6:	d005      	beq.n	10002db4 <divmod_u32u32_unsafe+0x14>
10002da8:	e7ff      	b.n	10002daa <divmod_u32u32_unsafe+0xa>
10002daa:	e7ff      	b.n	10002dac <divmod_u32u32_unsafe+0xc>
10002dac:	e7ff      	b.n	10002dae <divmod_u32u32_unsafe+0xe>
10002dae:	6f51      	ldr	r1, [r2, #116]	; 0x74
10002db0:	6f10      	ldr	r0, [r2, #112]	; 0x70
10002db2:	4770      	bx	lr
10002db4:	b504      	push	{r2, lr}
10002db6:	2800      	cmp	r0, #0
10002db8:	d001      	beq.n	10002dbe <divmod_u32u32_unsafe+0x1e>
10002dba:	2000      	movs	r0, #0
10002dbc:	43c0      	mvns	r0, r0
10002dbe:	f002 fbe3 	bl	10005588 <____aeabi_idiv0_veneer>
10002dc2:	2100      	movs	r1, #0
10002dc4:	bd04      	pop	{r2, pc}
10002dc6:	46c0      	nop			; (mov r8, r8)

10002dc8 <divmod_u32u32_savestate>:
10002dc8:	b5f0      	push	{r4, r5, r6, r7, lr}
10002dca:	6e14      	ldr	r4, [r2, #96]	; 0x60
10002dcc:	6e55      	ldr	r5, [r2, #100]	; 0x64
10002dce:	6f57      	ldr	r7, [r2, #116]	; 0x74
10002dd0:	6f16      	ldr	r6, [r2, #112]	; 0x70
10002dd2:	f7ff ffe5 	bl	10002da0 <divmod_u32u32_unsafe>
10002dd6:	6614      	str	r4, [r2, #96]	; 0x60
10002dd8:	6655      	str	r5, [r2, #100]	; 0x64
10002dda:	6757      	str	r7, [r2, #116]	; 0x74
10002ddc:	6716      	str	r6, [r2, #112]	; 0x70
10002dde:	bdf0      	pop	{r4, r5, r6, r7, pc}
10002de0:	d0000000 	.word	0xd0000000

10002de4 <__wrap___aeabi_ldivmod>:
10002de4:	4694      	mov	ip, r2
10002de6:	4a4a      	ldr	r2, [pc, #296]	; (10002f10 <udiv0+0x1a>)
10002de8:	6f92      	ldr	r2, [r2, #120]	; 0x78
10002dea:	0892      	lsrs	r2, r2, #2
10002dec:	4662      	mov	r2, ip
10002dee:	d201      	bcs.n	10002df4 <divmod_s64s64_savestate>
10002df0:	e028      	b.n	10002e44 <divmod_s64s64_unsafe>
10002df2:	46c0      	nop			; (mov r8, r8)

10002df4 <divmod_s64s64_savestate>:
10002df4:	b5f0      	push	{r4, r5, r6, r7, lr}
10002df6:	4e46      	ldr	r6, [pc, #280]	; (10002f10 <udiv0+0x1a>)
10002df8:	6e34      	ldr	r4, [r6, #96]	; 0x60
10002dfa:	6e75      	ldr	r5, [r6, #100]	; 0x64
10002dfc:	6f77      	ldr	r7, [r6, #116]	; 0x74
10002dfe:	6f36      	ldr	r6, [r6, #112]	; 0x70
10002e00:	f000 f820 	bl	10002e44 <divmod_s64s64_unsafe>
10002e04:	4694      	mov	ip, r2
10002e06:	4a42      	ldr	r2, [pc, #264]	; (10002f10 <udiv0+0x1a>)
10002e08:	6614      	str	r4, [r2, #96]	; 0x60
10002e0a:	6655      	str	r5, [r2, #100]	; 0x64
10002e0c:	6757      	str	r7, [r2, #116]	; 0x74
10002e0e:	6716      	str	r6, [r2, #112]	; 0x70
10002e10:	4662      	mov	r2, ip
10002e12:	bdf0      	pop	{r4, r5, r6, r7, pc}

10002e14 <__wrap___aeabi_uldivmod>:
10002e14:	4694      	mov	ip, r2
10002e16:	4a3e      	ldr	r2, [pc, #248]	; (10002f10 <udiv0+0x1a>)
10002e18:	6f92      	ldr	r2, [r2, #120]	; 0x78
10002e1a:	0892      	lsrs	r2, r2, #2
10002e1c:	4662      	mov	r2, ip
10002e1e:	d201      	bcs.n	10002e24 <divmod_u64u64_savestate>
10002e20:	e054      	b.n	10002ecc <divmod_u64u64_unsafe>
10002e22:	46c0      	nop			; (mov r8, r8)

10002e24 <divmod_u64u64_savestate>:
10002e24:	b5f0      	push	{r4, r5, r6, r7, lr}
10002e26:	4e3a      	ldr	r6, [pc, #232]	; (10002f10 <udiv0+0x1a>)
10002e28:	6e34      	ldr	r4, [r6, #96]	; 0x60
10002e2a:	6e75      	ldr	r5, [r6, #100]	; 0x64
10002e2c:	6f77      	ldr	r7, [r6, #116]	; 0x74
10002e2e:	6f36      	ldr	r6, [r6, #112]	; 0x70
10002e30:	f000 f84c 	bl	10002ecc <divmod_u64u64_unsafe>
10002e34:	4694      	mov	ip, r2
10002e36:	4a36      	ldr	r2, [pc, #216]	; (10002f10 <udiv0+0x1a>)
10002e38:	6614      	str	r4, [r2, #96]	; 0x60
10002e3a:	6655      	str	r5, [r2, #100]	; 0x64
10002e3c:	6757      	str	r7, [r2, #116]	; 0x74
10002e3e:	6716      	str	r6, [r2, #112]	; 0x70
10002e40:	4662      	mov	r2, ip
10002e42:	bdf0      	pop	{r4, r5, r6, r7, pc}

10002e44 <divmod_s64s64_unsafe>:
10002e44:	2b00      	cmp	r3, #0
10002e46:	db24      	blt.n	10002e92 <l42_1+0x26>
10002e48:	d011      	beq.n	10002e6e <l42_1+0x2>
10002e4a:	2900      	cmp	r1, #0
10002e4c:	da3e      	bge.n	10002ecc <divmod_u64u64_unsafe>
10002e4e:	b500      	push	{lr}
10002e50:	43c9      	mvns	r1, r1
10002e52:	4240      	negs	r0, r0
10002e54:	d100      	bne.n	10002e58 <l40_1>
10002e56:	3101      	adds	r1, #1

10002e58 <l40_1>:
10002e58:	f000 f838 	bl	10002ecc <divmod_u64u64_unsafe>
10002e5c:	43c9      	mvns	r1, r1
10002e5e:	4240      	negs	r0, r0
10002e60:	d100      	bne.n	10002e64 <l41_1>
10002e62:	3101      	adds	r1, #1

10002e64 <l41_1>:
10002e64:	43db      	mvns	r3, r3
10002e66:	4252      	negs	r2, r2
10002e68:	d100      	bne.n	10002e6c <l42_1>
10002e6a:	3301      	adds	r3, #1

10002e6c <l42_1>:
10002e6c:	bd00      	pop	{pc}
10002e6e:	2a00      	cmp	r2, #0
10002e70:	d1eb      	bne.n	10002e4a <divmod_s64s64_unsafe+0x6>
10002e72:	2800      	cmp	r0, #0
10002e74:	d101      	bne.n	10002e7a <l42_1+0xe>
10002e76:	2900      	cmp	r1, #0
10002e78:	d005      	beq.n	10002e86 <l42_1+0x1a>
10002e7a:	2000      	movs	r0, #0
10002e7c:	0fc9      	lsrs	r1, r1, #31
10002e7e:	07c9      	lsls	r1, r1, #31
10002e80:	d101      	bne.n	10002e86 <l42_1+0x1a>
10002e82:	43c0      	mvns	r0, r0
10002e84:	0841      	lsrs	r1, r0, #1
10002e86:	b500      	push	{lr}
10002e88:	f002 fb76 	bl	10005578 <____aeabi_ldiv0_veneer>
10002e8c:	2200      	movs	r2, #0
10002e8e:	2300      	movs	r3, #0
10002e90:	bd00      	pop	{pc}
10002e92:	b500      	push	{lr}
10002e94:	2900      	cmp	r1, #0
10002e96:	db0a      	blt.n	10002eae <l44_1+0x2>
10002e98:	43db      	mvns	r3, r3
10002e9a:	4252      	negs	r2, r2
10002e9c:	d100      	bne.n	10002ea0 <l43_1>
10002e9e:	3301      	adds	r3, #1

10002ea0 <l43_1>:
10002ea0:	f000 f814 	bl	10002ecc <divmod_u64u64_unsafe>
10002ea4:	43c9      	mvns	r1, r1
10002ea6:	4240      	negs	r0, r0
10002ea8:	d100      	bne.n	10002eac <l44_1>
10002eaa:	3101      	adds	r1, #1

10002eac <l44_1>:
10002eac:	bd00      	pop	{pc}
10002eae:	43c9      	mvns	r1, r1
10002eb0:	4240      	negs	r0, r0
10002eb2:	d100      	bne.n	10002eb6 <l45_1>
10002eb4:	3101      	adds	r1, #1

10002eb6 <l45_1>:
10002eb6:	43db      	mvns	r3, r3
10002eb8:	4252      	negs	r2, r2
10002eba:	d100      	bne.n	10002ebe <l46_1>
10002ebc:	3301      	adds	r3, #1

10002ebe <l46_1>:
10002ebe:	f000 f805 	bl	10002ecc <divmod_u64u64_unsafe>
10002ec2:	43db      	mvns	r3, r3
10002ec4:	4252      	negs	r2, r2
10002ec6:	d100      	bne.n	10002eca <l47_1>
10002ec8:	3301      	adds	r3, #1

10002eca <l47_1>:
10002eca:	bd00      	pop	{pc}

10002ecc <divmod_u64u64_unsafe>:
10002ecc:	2900      	cmp	r1, #0
10002ece:	d123      	bne.n	10002f18 <y64>
10002ed0:	2b00      	cmp	r3, #0
10002ed2:	d118      	bne.n	10002f06 <udiv0+0x10>
10002ed4:	2a00      	cmp	r2, #0
10002ed6:	d00c      	beq.n	10002ef2 <divmod_u64u64_unsafe+0x26>
10002ed8:	46bc      	mov	ip, r7
10002eda:	4f0d      	ldr	r7, [pc, #52]	; (10002f10 <udiv0+0x1a>)
10002edc:	6638      	str	r0, [r7, #96]	; 0x60
10002ede:	667a      	str	r2, [r7, #100]	; 0x64
10002ee0:	2100      	movs	r1, #0
10002ee2:	2300      	movs	r3, #0
10002ee4:	e7ff      	b.n	10002ee6 <divmod_u64u64_unsafe+0x1a>
10002ee6:	e7ff      	b.n	10002ee8 <divmod_u64u64_unsafe+0x1c>
10002ee8:	e7ff      	b.n	10002eea <divmod_u64u64_unsafe+0x1e>
10002eea:	6f7a      	ldr	r2, [r7, #116]	; 0x74
10002eec:	6f38      	ldr	r0, [r7, #112]	; 0x70
10002eee:	4667      	mov	r7, ip
10002ef0:	4770      	bx	lr
10002ef2:	2800      	cmp	r0, #0
10002ef4:	d001      	beq.n	10002efa <udiv0+0x4>

10002ef6 <udiv0>:
10002ef6:	4807      	ldr	r0, [pc, #28]	; (10002f14 <udiv0+0x1e>)
10002ef8:	0001      	movs	r1, r0
10002efa:	b500      	push	{lr}
10002efc:	f002 fb3c 	bl	10005578 <____aeabi_ldiv0_veneer>
10002f00:	2200      	movs	r2, #0
10002f02:	2300      	movs	r3, #0
10002f04:	bd00      	pop	{pc}
10002f06:	0002      	movs	r2, r0
10002f08:	000b      	movs	r3, r1
10002f0a:	2000      	movs	r0, #0
10002f0c:	2100      	movs	r1, #0
10002f0e:	4770      	bx	lr
10002f10:	d0000000 	.word	0xd0000000
10002f14:	ffffffff 	.word	0xffffffff

10002f18 <y64>:
10002f18:	2b00      	cmp	r3, #0
10002f1a:	d000      	beq.n	10002f1e <y64+0x6>
10002f1c:	e0bf      	b.n	1000309e <y64_x48>
10002f1e:	0c13      	lsrs	r3, r2, #16
10002f20:	d128      	bne.n	10002f74 <y64_x32>
10002f22:	2a00      	cmp	r2, #0
10002f24:	d0e7      	beq.n	10002ef6 <udiv0>
10002f26:	b480      	push	{r7}
10002f28:	4f11      	ldr	r7, [pc, #68]	; (10002f70 <y64+0x58>)
10002f2a:	6639      	str	r1, [r7, #96]	; 0x60
10002f2c:	667a      	str	r2, [r7, #100]	; 0x64
10002f2e:	e7ff      	b.n	10002f30 <y64+0x18>
10002f30:	e7ff      	b.n	10002f32 <y64+0x1a>
10002f32:	b430      	push	{r4, r5}
10002f34:	0c04      	lsrs	r4, r0, #16
10002f36:	6f7b      	ldr	r3, [r7, #116]	; 0x74
10002f38:	6f39      	ldr	r1, [r7, #112]	; 0x70
10002f3a:	041b      	lsls	r3, r3, #16
10002f3c:	4323      	orrs	r3, r4
10002f3e:	663b      	str	r3, [r7, #96]	; 0x60
10002f40:	667a      	str	r2, [r7, #100]	; 0x64
10002f42:	e7ff      	b.n	10002f44 <y64+0x2c>
10002f44:	e7ff      	b.n	10002f46 <y64+0x2e>
10002f46:	e7ff      	b.n	10002f48 <y64+0x30>
10002f48:	46c0      	nop			; (mov r8, r8)
10002f4a:	b284      	uxth	r4, r0
10002f4c:	6f7b      	ldr	r3, [r7, #116]	; 0x74
10002f4e:	6f3d      	ldr	r5, [r7, #112]	; 0x70
10002f50:	041b      	lsls	r3, r3, #16
10002f52:	4323      	orrs	r3, r4
10002f54:	663b      	str	r3, [r7, #96]	; 0x60
10002f56:	667a      	str	r2, [r7, #100]	; 0x64
10002f58:	e7ff      	b.n	10002f5a <y64+0x42>
10002f5a:	e7ff      	b.n	10002f5c <y64+0x44>
10002f5c:	46c0      	nop			; (mov r8, r8)
10002f5e:	2300      	movs	r3, #0
10002f60:	042c      	lsls	r4, r5, #16
10002f62:	0c2d      	lsrs	r5, r5, #16
10002f64:	6f7a      	ldr	r2, [r7, #116]	; 0x74
10002f66:	6f38      	ldr	r0, [r7, #112]	; 0x70
10002f68:	1900      	adds	r0, r0, r4
10002f6a:	4169      	adcs	r1, r5
10002f6c:	bcb0      	pop	{r4, r5, r7}
10002f6e:	4770      	bx	lr
10002f70:	d0000000 	.word	0xd0000000

10002f74 <y64_x32>:
10002f74:	b5f0      	push	{r4, r5, r6, r7, lr}
10002f76:	4694      	mov	ip, r2
10002f78:	2500      	movs	r5, #0
10002f7a:	0e14      	lsrs	r4, r2, #24
10002f7c:	d101      	bne.n	10002f82 <y64_x32+0xe>
10002f7e:	0212      	lsls	r2, r2, #8
10002f80:	3508      	adds	r5, #8
10002f82:	0f14      	lsrs	r4, r2, #28
10002f84:	d101      	bne.n	10002f8a <y64_x32+0x16>
10002f86:	0112      	lsls	r2, r2, #4
10002f88:	3504      	adds	r5, #4
10002f8a:	0f94      	lsrs	r4, r2, #30
10002f8c:	d101      	bne.n	10002f92 <y64_x32+0x1e>
10002f8e:	0092      	lsls	r2, r2, #2
10002f90:	3502      	adds	r5, #2
10002f92:	0fd4      	lsrs	r4, r2, #31
10002f94:	d101      	bne.n	10002f9a <y64_x32+0x26>
10002f96:	0052      	lsls	r2, r2, #1
10002f98:	3501      	adds	r5, #1
10002f9a:	0bd4      	lsrs	r4, r2, #15
10002f9c:	3401      	adds	r4, #1
10002f9e:	4f25      	ldr	r7, [pc, #148]	; (10003034 <y64_x32+0xc0>)
10002fa0:	667c      	str	r4, [r7, #100]	; 0x64
10002fa2:	4c25      	ldr	r4, [pc, #148]	; (10003038 <y64_x32+0xc4>)
10002fa4:	663c      	str	r4, [r7, #96]	; 0x60
10002fa6:	0c0e      	lsrs	r6, r1, #16
10002fa8:	b293      	uxth	r3, r2
10002faa:	e7ff      	b.n	10002fac <y64_x32+0x38>
10002fac:	e7ff      	b.n	10002fae <y64_x32+0x3a>
10002fae:	e7ff      	b.n	10002fb0 <y64_x32+0x3c>
10002fb0:	6f3c      	ldr	r4, [r7, #112]	; 0x70
10002fb2:	4366      	muls	r6, r4
10002fb4:	0c36      	lsrs	r6, r6, #16
10002fb6:	0377      	lsls	r7, r6, #13
10002fb8:	46be      	mov	lr, r7
10002fba:	4373      	muls	r3, r6
10002fbc:	0bdf      	lsrs	r7, r3, #15
10002fbe:	045b      	lsls	r3, r3, #17
10002fc0:	1ac0      	subs	r0, r0, r3
10002fc2:	41b9      	sbcs	r1, r7
10002fc4:	0c13      	lsrs	r3, r2, #16
10002fc6:	4373      	muls	r3, r6
10002fc8:	18db      	adds	r3, r3, r3
10002fca:	1ac9      	subs	r1, r1, r3
10002fcc:	08ce      	lsrs	r6, r1, #3
10002fce:	4366      	muls	r6, r4
10002fd0:	0c36      	lsrs	r6, r6, #16
10002fd2:	44b6      	add	lr, r6
10002fd4:	b293      	uxth	r3, r2
10002fd6:	4373      	muls	r3, r6
10002fd8:	0f1f      	lsrs	r7, r3, #28
10002fda:	011b      	lsls	r3, r3, #4
10002fdc:	1ac0      	subs	r0, r0, r3
10002fde:	41b9      	sbcs	r1, r7
10002fe0:	0c13      	lsrs	r3, r2, #16
10002fe2:	4373      	muls	r3, r6
10002fe4:	0b1f      	lsrs	r7, r3, #12
10002fe6:	051b      	lsls	r3, r3, #20
10002fe8:	1ac0      	subs	r0, r0, r3
10002fea:	41b9      	sbcs	r1, r7
10002fec:	0d86      	lsrs	r6, r0, #22
10002fee:	028f      	lsls	r7, r1, #10
10002ff0:	433e      	orrs	r6, r7
10002ff2:	4366      	muls	r6, r4
10002ff4:	0c36      	lsrs	r6, r6, #16
10002ff6:	2d09      	cmp	r5, #9
10002ff8:	db24      	blt.n	10003044 <last0>
10002ffa:	0a52      	lsrs	r2, r2, #9
10002ffc:	4372      	muls	r2, r6
10002ffe:	1a80      	subs	r0, r0, r2
10003000:	0377      	lsls	r7, r6, #13
10003002:	0a46      	lsrs	r6, r0, #9
10003004:	4366      	muls	r6, r4
10003006:	0c36      	lsrs	r6, r6, #16
10003008:	2316      	movs	r3, #22
1000300a:	1b5b      	subs	r3, r3, r5
1000300c:	40de      	lsrs	r6, r3
1000300e:	40df      	lsrs	r7, r3
10003010:	19bf      	adds	r7, r7, r6
10003012:	4664      	mov	r4, ip
10003014:	4366      	muls	r6, r4
10003016:	1b82      	subs	r2, r0, r6
10003018:	4670      	mov	r0, lr
1000301a:	3504      	adds	r5, #4
1000301c:	3306      	adds	r3, #6
1000301e:	0001      	movs	r1, r0
10003020:	40d9      	lsrs	r1, r3
10003022:	40a8      	lsls	r0, r5
10003024:	19c0      	adds	r0, r0, r7
10003026:	d300      	bcc.n	1000302a <y64_x32+0xb6>
10003028:	3101      	adds	r1, #1
1000302a:	42a2      	cmp	r2, r4
1000302c:	d206      	bcs.n	1000303c <y64_x32+0xc8>
1000302e:	2300      	movs	r3, #0
10003030:	bdf0      	pop	{r4, r5, r6, r7, pc}
10003032:	0000      	.short	0x0000
10003034:	d0000000 	.word	0xd0000000
10003038:	ffffffff 	.word	0xffffffff
1000303c:	1b12      	subs	r2, r2, r4
1000303e:	3001      	adds	r0, #1
10003040:	d3f3      	bcc.n	1000302a <y64_x32+0xb6>
10003042:	e7f1      	b.n	10003028 <y64_x32+0xb4>

10003044 <last0>:
10003044:	2709      	movs	r7, #9
10003046:	1b7f      	subs	r7, r7, r5
10003048:	40fe      	lsrs	r6, r7
1000304a:	4664      	mov	r4, ip
1000304c:	b2a2      	uxth	r2, r4
1000304e:	4372      	muls	r2, r6
10003050:	1a80      	subs	r0, r0, r2
10003052:	d200      	bcs.n	10003056 <last0+0x12>
10003054:	3901      	subs	r1, #1
10003056:	0c22      	lsrs	r2, r4, #16
10003058:	4372      	muls	r2, r6
1000305a:	0c13      	lsrs	r3, r2, #16
1000305c:	0412      	lsls	r2, r2, #16
1000305e:	1a82      	subs	r2, r0, r2
10003060:	4199      	sbcs	r1, r3
10003062:	000b      	movs	r3, r1
10003064:	4670      	mov	r0, lr
10003066:	3504      	adds	r5, #4
10003068:	3713      	adds	r7, #19
1000306a:	0001      	movs	r1, r0
1000306c:	40f9      	lsrs	r1, r7
1000306e:	40a8      	lsls	r0, r5
10003070:	1980      	adds	r0, r0, r6
10003072:	d300      	bcc.n	10003076 <last0+0x32>
10003074:	3101      	adds	r1, #1
10003076:	2b00      	cmp	r3, #0
10003078:	d102      	bne.n	10003080 <last0+0x3c>
1000307a:	42a2      	cmp	r2, r4
1000307c:	d20a      	bcs.n	10003094 <last0+0x50>
1000307e:	bdf0      	pop	{r4, r5, r6, r7, pc}
10003080:	3001      	adds	r0, #1
10003082:	d300      	bcc.n	10003086 <last0+0x42>
10003084:	3101      	adds	r1, #1
10003086:	1b12      	subs	r2, r2, r4
10003088:	d2fa      	bcs.n	10003080 <last0+0x3c>
1000308a:	3b01      	subs	r3, #1
1000308c:	d1f8      	bne.n	10003080 <last0+0x3c>
1000308e:	42a2      	cmp	r2, r4
10003090:	d200      	bcs.n	10003094 <last0+0x50>
10003092:	bdf0      	pop	{r4, r5, r6, r7, pc}
10003094:	3001      	adds	r0, #1
10003096:	d300      	bcc.n	1000309a <last0+0x56>
10003098:	3101      	adds	r1, #1
1000309a:	1b12      	subs	r2, r2, r4
1000309c:	e7f7      	b.n	1000308e <last0+0x4a>

1000309e <y64_x48>:
1000309e:	b5f0      	push	{r4, r5, r6, r7, lr}
100030a0:	0c1c      	lsrs	r4, r3, #16
100030a2:	d000      	beq.n	100030a6 <y64_x48+0x8>
100030a4:	e080      	b.n	100031a8 <y64_x64>
100030a6:	b40c      	push	{r2, r3}
100030a8:	2500      	movs	r5, #0
100030aa:	0a1c      	lsrs	r4, r3, #8
100030ac:	d104      	bne.n	100030b8 <y64_x48+0x1a>
100030ae:	021b      	lsls	r3, r3, #8
100030b0:	0e16      	lsrs	r6, r2, #24
100030b2:	4333      	orrs	r3, r6
100030b4:	0212      	lsls	r2, r2, #8
100030b6:	3508      	adds	r5, #8
100030b8:	0b1c      	lsrs	r4, r3, #12
100030ba:	d104      	bne.n	100030c6 <y64_x48+0x28>
100030bc:	011b      	lsls	r3, r3, #4
100030be:	0f16      	lsrs	r6, r2, #28
100030c0:	4333      	orrs	r3, r6
100030c2:	0112      	lsls	r2, r2, #4
100030c4:	3504      	adds	r5, #4
100030c6:	0b9c      	lsrs	r4, r3, #14
100030c8:	d104      	bne.n	100030d4 <y64_x48+0x36>
100030ca:	009b      	lsls	r3, r3, #2
100030cc:	0f96      	lsrs	r6, r2, #30
100030ce:	4333      	orrs	r3, r6
100030d0:	0092      	lsls	r2, r2, #2
100030d2:	3502      	adds	r5, #2
100030d4:	0bdc      	lsrs	r4, r3, #15
100030d6:	d102      	bne.n	100030de <y64_x48+0x40>
100030d8:	1892      	adds	r2, r2, r2
100030da:	415b      	adcs	r3, r3
100030dc:	3501      	adds	r5, #1
100030de:	001c      	movs	r4, r3
100030e0:	1897      	adds	r7, r2, r2
100030e2:	4164      	adcs	r4, r4
100030e4:	3401      	adds	r4, #1
100030e6:	4f46      	ldr	r7, [pc, #280]	; (10003200 <y64_x64+0x58>)
100030e8:	667c      	str	r4, [r7, #100]	; 0x64
100030ea:	4c46      	ldr	r4, [pc, #280]	; (10003204 <y64_x64+0x5c>)
100030ec:	663c      	str	r4, [r7, #96]	; 0x60
100030ee:	0c0e      	lsrs	r6, r1, #16
100030f0:	e7ff      	b.n	100030f2 <y64_x48+0x54>
100030f2:	e7ff      	b.n	100030f4 <y64_x48+0x56>
100030f4:	e7ff      	b.n	100030f6 <y64_x48+0x58>
100030f6:	46c0      	nop			; (mov r8, r8)
100030f8:	6f3c      	ldr	r4, [r7, #112]	; 0x70
100030fa:	4366      	muls	r6, r4
100030fc:	0c36      	lsrs	r6, r6, #16
100030fe:	0377      	lsls	r7, r6, #13
10003100:	46be      	mov	lr, r7
10003102:	b297      	uxth	r7, r2
10003104:	4377      	muls	r7, r6
10003106:	1bc0      	subs	r0, r0, r7
10003108:	d200      	bcs.n	1000310c <y64_x48+0x6e>
1000310a:	3901      	subs	r1, #1
1000310c:	1bc0      	subs	r0, r0, r7
1000310e:	d200      	bcs.n	10003112 <y64_x48+0x74>
10003110:	3901      	subs	r1, #1
10003112:	b29f      	uxth	r7, r3
10003114:	4377      	muls	r7, r6
10003116:	1bc9      	subs	r1, r1, r7
10003118:	1bc9      	subs	r1, r1, r7
1000311a:	0c17      	lsrs	r7, r2, #16
1000311c:	4377      	muls	r7, r6
1000311e:	047e      	lsls	r6, r7, #17
10003120:	0bff      	lsrs	r7, r7, #15
10003122:	1b80      	subs	r0, r0, r6
10003124:	41b9      	sbcs	r1, r7
10003126:	08ce      	lsrs	r6, r1, #3
10003128:	4366      	muls	r6, r4
1000312a:	0c36      	lsrs	r6, r6, #16
1000312c:	2d0c      	cmp	r5, #12
1000312e:	db33      	blt.n	10003198 <last1>
10003130:	44b6      	add	lr, r6
10003132:	0b12      	lsrs	r2, r2, #12
10003134:	051f      	lsls	r7, r3, #20
10003136:	433a      	orrs	r2, r7
10003138:	0b1b      	lsrs	r3, r3, #12
1000313a:	b297      	uxth	r7, r2
1000313c:	4377      	muls	r7, r6
1000313e:	1bc0      	subs	r0, r0, r7
10003140:	d200      	bcs.n	10003144 <y64_x48+0xa6>
10003142:	3901      	subs	r1, #1
10003144:	b29f      	uxth	r7, r3
10003146:	4377      	muls	r7, r6
10003148:	1bc9      	subs	r1, r1, r7
1000314a:	0c17      	lsrs	r7, r2, #16
1000314c:	4377      	muls	r7, r6
1000314e:	043e      	lsls	r6, r7, #16
10003150:	0c3f      	lsrs	r7, r7, #16
10003152:	1b80      	subs	r0, r0, r6
10003154:	41b9      	sbcs	r1, r7
10003156:	0d86      	lsrs	r6, r0, #22
10003158:	028f      	lsls	r7, r1, #10
1000315a:	433e      	orrs	r6, r7
1000315c:	4366      	muls	r6, r4
1000315e:	2729      	movs	r7, #41	; 0x29
10003160:	1b7f      	subs	r7, r7, r5
10003162:	40fe      	lsrs	r6, r7
10003164:	3d0c      	subs	r5, #12
10003166:	4677      	mov	r7, lr
10003168:	40af      	lsls	r7, r5
1000316a:	19bf      	adds	r7, r7, r6
1000316c:	bc30      	pop	{r4, r5}
1000316e:	b2a2      	uxth	r2, r4
10003170:	b2ab      	uxth	r3, r5
10003172:	4372      	muls	r2, r6
10003174:	4373      	muls	r3, r6
10003176:	1a80      	subs	r0, r0, r2
10003178:	4199      	sbcs	r1, r3
1000317a:	0c22      	lsrs	r2, r4, #16
1000317c:	4372      	muls	r2, r6
1000317e:	0c13      	lsrs	r3, r2, #16
10003180:	0412      	lsls	r2, r2, #16
10003182:	1a80      	subs	r0, r0, r2
10003184:	4199      	sbcs	r1, r3
10003186:	0002      	movs	r2, r0
10003188:	000b      	movs	r3, r1
1000318a:	3701      	adds	r7, #1
1000318c:	1b00      	subs	r0, r0, r4
1000318e:	41a9      	sbcs	r1, r5
10003190:	d2f9      	bcs.n	10003186 <y64_x48+0xe8>
10003192:	1e78      	subs	r0, r7, #1
10003194:	2100      	movs	r1, #0
10003196:	bdf0      	pop	{r4, r5, r6, r7, pc}

10003198 <last1>:
10003198:	270c      	movs	r7, #12
1000319a:	1b7f      	subs	r7, r7, r5
1000319c:	40fe      	lsrs	r6, r7
1000319e:	4677      	mov	r7, lr
100031a0:	0b7f      	lsrs	r7, r7, #13
100031a2:	40af      	lsls	r7, r5
100031a4:	19ff      	adds	r7, r7, r7
100031a6:	e7e0      	b.n	1000316a <y64_x48+0xcc>

100031a8 <y64_x64>:
100031a8:	2400      	movs	r4, #0
100031aa:	1c5d      	adds	r5, r3, #1
100031ac:	d007      	beq.n	100031be <y64_x64+0x16>
100031ae:	4f14      	ldr	r7, [pc, #80]	; (10003200 <y64_x64+0x58>)
100031b0:	667d      	str	r5, [r7, #100]	; 0x64
100031b2:	6639      	str	r1, [r7, #96]	; 0x60
100031b4:	e7ff      	b.n	100031b6 <y64_x64+0xe>
100031b6:	e7ff      	b.n	100031b8 <y64_x64+0x10>
100031b8:	e7ff      	b.n	100031ba <y64_x64+0x12>
100031ba:	e7ff      	b.n	100031bc <y64_x64+0x14>
100031bc:	6f3c      	ldr	r4, [r7, #112]	; 0x70
100031be:	b295      	uxth	r5, r2
100031c0:	b29e      	uxth	r6, r3
100031c2:	4365      	muls	r5, r4
100031c4:	4366      	muls	r6, r4
100031c6:	1b40      	subs	r0, r0, r5
100031c8:	41b1      	sbcs	r1, r6
100031ca:	0c15      	lsrs	r5, r2, #16
100031cc:	0c1e      	lsrs	r6, r3, #16
100031ce:	4365      	muls	r5, r4
100031d0:	4366      	muls	r6, r4
100031d2:	0436      	lsls	r6, r6, #16
100031d4:	0c2f      	lsrs	r7, r5, #16
100031d6:	433e      	orrs	r6, r7
100031d8:	042d      	lsls	r5, r5, #16
100031da:	1b40      	subs	r0, r0, r5
100031dc:	41b1      	sbcs	r1, r6
100031de:	4299      	cmp	r1, r3
100031e0:	d204      	bcs.n	100031ec <y64_x64+0x44>
100031e2:	0002      	movs	r2, r0
100031e4:	000b      	movs	r3, r1
100031e6:	0020      	movs	r0, r4
100031e8:	2100      	movs	r1, #0
100031ea:	bdf0      	pop	{r4, r5, r6, r7, pc}
100031ec:	d101      	bne.n	100031f2 <y64_x64+0x4a>
100031ee:	4290      	cmp	r0, r2
100031f0:	d3f7      	bcc.n	100031e2 <y64_x64+0x3a>
100031f2:	1a80      	subs	r0, r0, r2
100031f4:	4199      	sbcs	r1, r3
100031f6:	3401      	adds	r4, #1
100031f8:	4299      	cmp	r1, r3
100031fa:	d3f2      	bcc.n	100031e2 <y64_x64+0x3a>
100031fc:	e7f6      	b.n	100031ec <y64_x64+0x44>
100031fe:	0000      	.short	0x0000
10003200:	d0000000 	.word	0xd0000000
10003204:	ffffffff 	.word	0xffffffff

10003208 <__wrap___aeabi_drsub>:
10003208:	4048      	eors	r0, r1
1000320a:	4041      	eors	r1, r0
1000320c:	4048      	eors	r0, r1

1000320e <__wrap___aeabi_dsub>:
1000320e:	b418      	push	{r3, r4}
10003210:	4b1b      	ldr	r3, [pc, #108]	; (10003280 <__wrap___aeabi_dmul+0x12>)
10003212:	685b      	ldr	r3, [r3, #4]
10003214:	46fc      	mov	ip, pc
10003216:	9301      	str	r3, [sp, #4]
10003218:	bd08      	pop	{r3, pc}
1000321a:	df04      	.short	0xdf04
1000321c:	1000347b 	.word	0x1000347b

10003220 <__wrap___aeabi_dadd>:
10003220:	b418      	push	{r3, r4}
10003222:	4b17      	ldr	r3, [pc, #92]	; (10003280 <__wrap___aeabi_dmul+0x12>)
10003224:	681b      	ldr	r3, [r3, #0]
10003226:	46fc      	mov	ip, pc
10003228:	9301      	str	r3, [sp, #4]
1000322a:	bd08      	pop	{r3, pc}
1000322c:	3485df00 	.word	0x3485df00
10003230:	1000      	.short	0x1000

10003232 <__wrap___aeabi_ddiv>:
10003232:	4694      	mov	ip, r2
10003234:	4a13      	ldr	r2, [pc, #76]	; (10003284 <__wrap___aeabi_dmul+0x16>)
10003236:	6f92      	ldr	r2, [r2, #120]	; 0x78
10003238:	0892      	lsrs	r2, r2, #2
1000323a:	d209      	bcs.n	10003250 <ddiv_save_state>
1000323c:	4662      	mov	r2, ip

1000323e <ddiv_shim_call>:
1000323e:	b418      	push	{r3, r4}
10003240:	4b0f      	ldr	r3, [pc, #60]	; (10003280 <__wrap___aeabi_dmul+0x12>)
10003242:	68db      	ldr	r3, [r3, #12]
10003244:	46fc      	mov	ip, pc
10003246:	9301      	str	r3, [sp, #4]
10003248:	bd08      	pop	{r3, pc}
1000324a:	df0c      	.short	0xdf0c
1000324c:	1000373d 	.word	0x1000373d

10003250 <ddiv_save_state>:
10003250:	4a0c      	ldr	r2, [pc, #48]	; (10003284 <__wrap___aeabi_dmul+0x16>)
10003252:	b5f0      	push	{r4, r5, r6, r7, lr}
10003254:	6e14      	ldr	r4, [r2, #96]	; 0x60
10003256:	6e55      	ldr	r5, [r2, #100]	; 0x64
10003258:	6f57      	ldr	r7, [r2, #116]	; 0x74
1000325a:	6f16      	ldr	r6, [r2, #112]	; 0x70
1000325c:	4662      	mov	r2, ip
1000325e:	f7ff ffee 	bl	1000323e <ddiv_shim_call>
10003262:	4a08      	ldr	r2, [pc, #32]	; (10003284 <__wrap___aeabi_dmul+0x16>)
10003264:	6614      	str	r4, [r2, #96]	; 0x60
10003266:	6655      	str	r5, [r2, #100]	; 0x64
10003268:	6757      	str	r7, [r2, #116]	; 0x74
1000326a:	6716      	str	r6, [r2, #112]	; 0x70
1000326c:	bdf0      	pop	{r4, r5, r6, r7, pc}

1000326e <__wrap___aeabi_dmul>:
1000326e:	b418      	push	{r3, r4}
10003270:	4b03      	ldr	r3, [pc, #12]	; (10003280 <__wrap___aeabi_dmul+0x12>)
10003272:	689b      	ldr	r3, [r3, #8]
10003274:	46fc      	mov	ip, pc
10003276:	9301      	str	r3, [sp, #4]
10003278:	bd08      	pop	{r3, pc}
1000327a:	df08      	.short	0xdf08
1000327c:	100035e1 	.word	0x100035e1
10003280:	20001d1c 	.word	0x20001d1c
10003284:	d0000000 	.word	0xd0000000

10003288 <__wrap___aeabi_cdrcmple>:
10003288:	b5ff      	push	{r0, r1, r2, r3, r4, r5, r6, r7, lr}
1000328a:	4050      	eors	r0, r2
1000328c:	4042      	eors	r2, r0
1000328e:	4050      	eors	r0, r2
10003290:	4059      	eors	r1, r3
10003292:	404b      	eors	r3, r1
10003294:	4059      	eors	r1, r3
10003296:	e000      	b.n	1000329a <__aeabi_dfcmple_guts>

10003298 <__wrap___aeabi_cdcmpeq>:
10003298:	b5ff      	push	{r0, r1, r2, r3, r4, r5, r6, r7, lr}

1000329a <__aeabi_dfcmple_guts>:
1000329a:	4f15      	ldr	r7, [pc, #84]	; (100032f0 <__aeabi_dfcmple_guts+0x56>)
1000329c:	004c      	lsls	r4, r1, #1
1000329e:	0d64      	lsrs	r4, r4, #21
100032a0:	d003      	beq.n	100032aa <__aeabi_dfcmple_guts+0x10>
100032a2:	42bc      	cmp	r4, r7
100032a4:	d104      	bne.n	100032b0 <__aeabi_dfcmple_guts+0x16>
100032a6:	030c      	lsls	r4, r1, #12
100032a8:	d814      	bhi.n	100032d4 <__aeabi_dfcmple_guts+0x3a>
100032aa:	2000      	movs	r0, #0
100032ac:	0d09      	lsrs	r1, r1, #20
100032ae:	0509      	lsls	r1, r1, #20
100032b0:	005c      	lsls	r4, r3, #1
100032b2:	0d64      	lsrs	r4, r4, #21
100032b4:	d003      	beq.n	100032be <__aeabi_dfcmple_guts+0x24>
100032b6:	42bc      	cmp	r4, r7
100032b8:	d104      	bne.n	100032c4 <__aeabi_dfcmple_guts+0x2a>
100032ba:	031c      	lsls	r4, r3, #12
100032bc:	d80a      	bhi.n	100032d4 <__aeabi_dfcmple_guts+0x3a>
100032be:	2200      	movs	r2, #0
100032c0:	0d1b      	lsrs	r3, r3, #20
100032c2:	051b      	lsls	r3, r3, #20
100032c4:	2601      	movs	r6, #1
100032c6:	404b      	eors	r3, r1
100032c8:	d409      	bmi.n	100032de <__aeabi_dfcmple_guts+0x44>
100032ca:	404b      	eors	r3, r1
100032cc:	d503      	bpl.n	100032d6 <__aeabi_dfcmple_guts+0x3c>
100032ce:	428b      	cmp	r3, r1
100032d0:	d100      	bne.n	100032d4 <__aeabi_dfcmple_guts+0x3a>
100032d2:	4282      	cmp	r2, r0
100032d4:	bdff      	pop	{r0, r1, r2, r3, r4, r5, r6, r7, pc}
100032d6:	4299      	cmp	r1, r3
100032d8:	d1fc      	bne.n	100032d4 <__aeabi_dfcmple_guts+0x3a>
100032da:	4290      	cmp	r0, r2
100032dc:	bdff      	pop	{r0, r1, r2, r3, r4, r5, r6, r7, pc}
100032de:	430b      	orrs	r3, r1
100032e0:	18db      	adds	r3, r3, r3
100032e2:	4303      	orrs	r3, r0
100032e4:	4313      	orrs	r3, r2
100032e6:	d0f5      	beq.n	100032d4 <__aeabi_dfcmple_guts+0x3a>
100032e8:	43c9      	mvns	r1, r1
100032ea:	1849      	adds	r1, r1, r1
100032ec:	bdff      	pop	{r0, r1, r2, r3, r4, r5, r6, r7, pc}
100032ee:	0000      	.short	0x0000
100032f0:	000007ff 	.word	0x000007ff

100032f4 <__wrap___aeabi_dcmplt>:
100032f4:	b500      	push	{lr}
100032f6:	f7ff ffcf 	bl	10003298 <__wrap___aeabi_cdcmpeq>
100032fa:	4180      	sbcs	r0, r0
100032fc:	bd00      	pop	{pc}
100032fe:	46c0      	nop			; (mov r8, r8)

10003300 <__wrap___aeabi_dcmple>:
10003300:	b500      	push	{lr}
10003302:	f7ff ffc9 	bl	10003298 <__wrap___aeabi_cdcmpeq>
10003306:	d901      	bls.n	1000330c <__wrap___aeabi_dcmple+0xc>
10003308:	2000      	movs	r0, #0
1000330a:	bd00      	pop	{pc}
1000330c:	2001      	movs	r0, #1
1000330e:	bd00      	pop	{pc}

10003310 <__wrap___aeabi_dcmpge>:
10003310:	b500      	push	{lr}
10003312:	f7ff ffb9 	bl	10003288 <__wrap___aeabi_cdrcmple>
10003316:	d901      	bls.n	1000331c <__wrap___aeabi_dcmpge+0xc>
10003318:	2000      	movs	r0, #0
1000331a:	bd00      	pop	{pc}
1000331c:	2001      	movs	r0, #1
1000331e:	bd00      	pop	{pc}

10003320 <__wrap___aeabi_dcmpgt>:
10003320:	b500      	push	{lr}
10003322:	f7ff ffb1 	bl	10003288 <__wrap___aeabi_cdrcmple>
10003326:	4180      	sbcs	r0, r0
10003328:	bd00      	pop	{pc}

1000332a <__wrap___aeabi_dcmpun>:
1000332a:	2001      	movs	r0, #1
1000332c:	0540      	lsls	r0, r0, #21
1000332e:	004a      	lsls	r2, r1, #1
10003330:	1812      	adds	r2, r2, r0
10003332:	d804      	bhi.n	1000333e <__wrap___aeabi_dcmpun+0x14>
10003334:	005a      	lsls	r2, r3, #1
10003336:	1812      	adds	r2, r2, r0
10003338:	d801      	bhi.n	1000333e <__wrap___aeabi_dcmpun+0x14>
1000333a:	2000      	movs	r0, #0
1000333c:	4770      	bx	lr
1000333e:	2001      	movs	r0, #1
10003340:	4770      	bx	lr
	...

10003344 <__wrap___aeabi_ui2d>:
10003344:	2100      	movs	r1, #0
10003346:	2800      	cmp	r0, #0
10003348:	d105      	bne.n	10003356 <__wrap___aeabi_i2d+0xa>
1000334a:	4770      	bx	lr

1000334c <__wrap___aeabi_i2d>:
1000334c:	17c1      	asrs	r1, r0, #31
1000334e:	4048      	eors	r0, r1
10003350:	1a40      	subs	r0, r0, r1
10003352:	d0fa      	beq.n	1000334a <__wrap___aeabi_ui2d+0x6>
10003354:	07c9      	lsls	r1, r1, #31
10003356:	b513      	push	{r0, r1, r4, lr}
10003358:	4b06      	ldr	r3, [pc, #24]	; (10003374 <__wrap___aeabi_i2d+0x28>)
1000335a:	681b      	ldr	r3, [r3, #0]
1000335c:	4798      	blx	r3
1000335e:	bc0c      	pop	{r2, r3}
10003360:	1c44      	adds	r4, r0, #1
10003362:	40a2      	lsls	r2, r4
10003364:	0510      	lsls	r0, r2, #20
10003366:	0b12      	lsrs	r2, r2, #12
10003368:	4903      	ldr	r1, [pc, #12]	; (10003378 <__wrap___aeabi_i2d+0x2c>)
1000336a:	1b09      	subs	r1, r1, r4
1000336c:	0509      	lsls	r1, r1, #20
1000336e:	4319      	orrs	r1, r3
10003370:	4311      	orrs	r1, r2
10003372:	bd10      	pop	{r4, pc}
10003374:	20001e1c 	.word	0x20001e1c
10003378:	0000041f 	.word	0x0000041f

1000337c <__wrap___aeabi_d2iz>:
1000337c:	b510      	push	{r4, lr}
1000337e:	004c      	lsls	r4, r1, #1
10003380:	0d62      	lsrs	r2, r4, #21
10003382:	2380      	movs	r3, #128	; 0x80
10003384:	18d2      	adds	r2, r2, r3
10003386:	00db      	lsls	r3, r3, #3
10003388:	1ad2      	subs	r2, r2, r3
1000338a:	055b      	lsls	r3, r3, #21
1000338c:	2a7e      	cmp	r2, #126	; 0x7e
1000338e:	dd10      	ble.n	100033b2 <__wrap___aeabi_d2iz+0x36>
10003390:	3a9e      	subs	r2, #158	; 0x9e
10003392:	da13      	bge.n	100033bc <__wrap___aeabi_d2iz+0x40>
10003394:	17cc      	asrs	r4, r1, #31
10003396:	0309      	lsls	r1, r1, #12
10003398:	0849      	lsrs	r1, r1, #1
1000339a:	4319      	orrs	r1, r3
1000339c:	4252      	negs	r2, r2
1000339e:	40d1      	lsrs	r1, r2
100033a0:	0064      	lsls	r4, r4, #1
100033a2:	3401      	adds	r4, #1
100033a4:	3215      	adds	r2, #21
100033a6:	2a20      	cmp	r2, #32
100033a8:	da05      	bge.n	100033b6 <__wrap___aeabi_d2iz+0x3a>
100033aa:	40d0      	lsrs	r0, r2
100033ac:	4308      	orrs	r0, r1
100033ae:	4360      	muls	r0, r4
100033b0:	bd10      	pop	{r4, pc}
100033b2:	2000      	movs	r0, #0
100033b4:	bd10      	pop	{r4, pc}
100033b6:	4608      	mov	r0, r1
100033b8:	4360      	muls	r0, r4
100033ba:	bd10      	pop	{r4, pc}
100033bc:	0fc8      	lsrs	r0, r1, #31
100033be:	18c0      	adds	r0, r0, r3
100033c0:	3801      	subs	r0, #1
100033c2:	bd10      	pop	{r4, pc}

100033c4 <__wrap___aeabi_d2uiz>:
100033c4:	b418      	push	{r3, r4}
100033c6:	4b04      	ldr	r3, [pc, #16]	; (100033d8 <__wrap___aeabi_d2uiz+0x14>)
100033c8:	6a5b      	ldr	r3, [r3, #36]	; 0x24
100033ca:	46fc      	mov	ip, pc
100033cc:	9301      	str	r3, [sp, #4]
100033ce:	bd08      	pop	{r3, pc}
100033d0:	38eddf24 	.word	0x38eddf24
100033d4:	00001000 	.word	0x00001000
100033d8:	20001d1c 	.word	0x20001d1c

100033dc <__aeabi_double_init>:
100033dc:	2313      	movs	r3, #19
100033de:	b570      	push	{r4, r5, r6, lr}
100033e0:	781c      	ldrb	r4, [r3, #0]
100033e2:	2c01      	cmp	r4, #1
100033e4:	d019      	beq.n	1000341a <__aeabi_double_init+0x3e>
100033e6:	dd14      	ble.n	10003412 <__aeabi_double_init+0x36>
100033e8:	4811      	ldr	r0, [pc, #68]	; (10003430 <__aeabi_double_init+0x54>)
100033ea:	f7ff fb79 	bl	10002ae0 <rom_data_lookup>
100033ee:	0006      	movs	r6, r0
100033f0:	4810      	ldr	r0, [pc, #64]	; (10003434 <__aeabi_double_init+0x58>)
100033f2:	f7ff fb75 	bl	10002ae0 <rom_data_lookup>
100033f6:	4d10      	ldr	r5, [pc, #64]	; (10003438 <__aeabi_double_init+0x5c>)
100033f8:	2280      	movs	r2, #128	; 0x80
100033fa:	0031      	movs	r1, r6
100033fc:	0028      	movs	r0, r5
100033fe:	f000 fb3f 	bl	10003a80 <__wrap___aeabi_memcpy>
10003402:	2c02      	cmp	r4, #2
10003404:	d006      	beq.n	10003414 <__aeabi_double_init+0x38>
10003406:	480d      	ldr	r0, [pc, #52]	; (1000343c <__aeabi_double_init+0x60>)
10003408:	f7ff fb62 	bl	10002ad0 <rom_func_lookup>
1000340c:	4b0c      	ldr	r3, [pc, #48]	; (10003440 <__aeabi_double_init+0x64>)
1000340e:	6018      	str	r0, [r3, #0]
10003410:	bd70      	pop	{r4, r5, r6, pc}
10003412:	4d09      	ldr	r5, [pc, #36]	; (10003438 <__aeabi_double_init+0x5c>)
10003414:	4a0b      	ldr	r2, [pc, #44]	; (10003444 <__aeabi_double_init+0x68>)
10003416:	64aa      	str	r2, [r5, #72]	; 0x48
10003418:	e7f5      	b.n	10003406 <__aeabi_double_init+0x2a>
1000341a:	4d07      	ldr	r5, [pc, #28]	; (10003438 <__aeabi_double_init+0x5c>)
1000341c:	4a09      	ldr	r2, [pc, #36]	; (10003444 <__aeabi_double_init+0x68>)
1000341e:	0029      	movs	r1, r5
10003420:	002b      	movs	r3, r5
10003422:	3180      	adds	r1, #128	; 0x80
10003424:	c304      	stmia	r3!, {r2}
10003426:	428b      	cmp	r3, r1
10003428:	d1fc      	bne.n	10003424 <__aeabi_double_init+0x48>
1000342a:	64aa      	str	r2, [r5, #72]	; 0x48
1000342c:	e7eb      	b.n	10003406 <__aeabi_double_init+0x2a>
1000342e:	46c0      	nop			; (mov r8, r8)
10003430:	00004453 	.word	0x00004453
10003434:	00004653 	.word	0x00004653
10003438:	20001d1c 	.word	0x20001d1c
1000343c:	0000334c 	.word	0x0000334c
10003440:	20001e1c 	.word	0x20001e1c
10003444:	10003449 	.word	0x10003449

10003448 <double_table_shim_on_use_helper>:
10003448:	b507      	push	{r0, r1, r2, lr}
1000344a:	4660      	mov	r0, ip
1000344c:	8801      	ldrh	r1, [r0, #0]
1000344e:	0a0a      	lsrs	r2, r1, #8
10003450:	3002      	adds	r0, #2
10003452:	2adf      	cmp	r2, #223	; 0xdf
10003454:	d1fa      	bne.n	1000344c <double_table_shim_on_use_helper+0x4>
10003456:	b2c9      	uxtb	r1, r1
10003458:	0882      	lsrs	r2, r0, #2
1000345a:	d304      	bcc.n	10003466 <double_table_shim_on_use_helper+0x1e>
1000345c:	8802      	ldrh	r2, [r0, #0]
1000345e:	8840      	ldrh	r0, [r0, #2]
10003460:	0400      	lsls	r0, r0, #16
10003462:	4310      	orrs	r0, r2
10003464:	e000      	b.n	10003468 <double_table_shim_on_use_helper+0x20>
10003466:	6800      	ldr	r0, [r0, #0]
10003468:	4a01      	ldr	r2, [pc, #4]	; (10003470 <double_table_shim_on_use_helper+0x28>)
1000346a:	5050      	str	r0, [r2, r1]
1000346c:	9003      	str	r0, [sp, #12]
1000346e:	bd07      	pop	{r0, r1, r2, pc}
10003470:	20001d1c 	.word	0x20001d1c

10003474 <drsub_shim>:
10003474:	b40f      	push	{r0, r1, r2, r3}
10003476:	bc03      	pop	{r0, r1}
10003478:	bc0c      	pop	{r2, r3}

1000347a <dsub_shim>:
1000347a:	b5f0      	push	{r4, r5, r6, r7, lr}
1000347c:	2401      	movs	r4, #1
1000347e:	07e4      	lsls	r4, r4, #31
10003480:	4063      	eors	r3, r4
10003482:	e000      	b.n	10003486 <da_entry>

10003484 <dadd_shim>:
10003484:	b5f0      	push	{r4, r5, r6, r7, lr}

10003486 <da_entry>:
10003486:	0d0c      	lsrs	r4, r1, #20
10003488:	0fcf      	lsrs	r7, r1, #31
1000348a:	1e66      	subs	r6, r4, #1
1000348c:	0536      	lsls	r6, r6, #20
1000348e:	1b89      	subs	r1, r1, r6
10003490:	0564      	lsls	r4, r4, #21
10003492:	d303      	bcc.n	1000349c <l8_1>
10003494:	43c9      	mvns	r1, r1
10003496:	4240      	negs	r0, r0
10003498:	d300      	bcc.n	1000349c <l8_1>
1000349a:	3101      	adds	r1, #1

1000349c <l8_1>:
1000349c:	0d64      	lsrs	r4, r4, #21
1000349e:	d003      	beq.n	100034a8 <l8_2>
100034a0:	1c66      	adds	r6, r4, #1
100034a2:	0af6      	lsrs	r6, r6, #11
100034a4:	d007      	beq.n	100034b6 <l8_3>
100034a6:	1be4      	subs	r4, r4, r7

100034a8 <l8_2>:
100034a8:	2000      	movs	r0, #0
100034aa:	007f      	lsls	r7, r7, #1
100034ac:	1c79      	adds	r1, r7, #1
100034ae:	0789      	lsls	r1, r1, #30
100034b0:	1289      	asrs	r1, r1, #10
100034b2:	3c80      	subs	r4, #128	; 0x80
100034b4:	0324      	lsls	r4, r4, #12

100034b6 <l8_3>:
100034b6:	0d1d      	lsrs	r5, r3, #20
100034b8:	0fdf      	lsrs	r7, r3, #31
100034ba:	1e6e      	subs	r6, r5, #1
100034bc:	0536      	lsls	r6, r6, #20
100034be:	1b9b      	subs	r3, r3, r6
100034c0:	056d      	lsls	r5, r5, #21
100034c2:	d303      	bcc.n	100034cc <l9_1>
100034c4:	43db      	mvns	r3, r3
100034c6:	4252      	negs	r2, r2
100034c8:	d300      	bcc.n	100034cc <l9_1>
100034ca:	3301      	adds	r3, #1

100034cc <l9_1>:
100034cc:	0d6d      	lsrs	r5, r5, #21
100034ce:	d003      	beq.n	100034d8 <l9_2>
100034d0:	1c6e      	adds	r6, r5, #1
100034d2:	0af6      	lsrs	r6, r6, #11
100034d4:	d007      	beq.n	100034e6 <l9_3>
100034d6:	1bed      	subs	r5, r5, r7

100034d8 <l9_2>:
100034d8:	2200      	movs	r2, #0
100034da:	007f      	lsls	r7, r7, #1
100034dc:	1c7b      	adds	r3, r7, #1
100034de:	079b      	lsls	r3, r3, #30
100034e0:	129b      	asrs	r3, r3, #10
100034e2:	3d80      	subs	r5, #128	; 0x80
100034e4:	032d      	lsls	r5, r5, #12

100034e6 <l9_3>:
100034e6:	1b2f      	subs	r7, r5, r4
100034e8:	1b66      	subs	r6, r4, r5
100034ea:	d458      	bmi.n	1000359e <da_ygtx>
100034ec:	46a4      	mov	ip, r4
100034ee:	2e20      	cmp	r6, #32
100034f0:	da46      	bge.n	10003580 <da_xrgty>
100034f2:	3720      	adds	r7, #32
100034f4:	0014      	movs	r4, r2
100034f6:	40bc      	lsls	r4, r7

100034f8 <da_xgty0>:
100034f8:	001d      	movs	r5, r3
100034fa:	40bd      	lsls	r5, r7
100034fc:	40f2      	lsrs	r2, r6
100034fe:	4133      	asrs	r3, r6
10003500:	432a      	orrs	r2, r5

10003502 <da_add>:
10003502:	1880      	adds	r0, r0, r2
10003504:	4159      	adcs	r1, r3

10003506 <da_pack>:
10003506:	0fcb      	lsrs	r3, r1, #31
10003508:	d005      	beq.n	10003516 <da_pack+0x10>
1000350a:	43c9      	mvns	r1, r1
1000350c:	43c0      	mvns	r0, r0
1000350e:	2200      	movs	r2, #0
10003510:	4264      	negs	r4, r4
10003512:	4150      	adcs	r0, r2
10003514:	4151      	adcs	r1, r2
10003516:	4662      	mov	r2, ip
10003518:	0d4d      	lsrs	r5, r1, #21
1000351a:	d128      	bne.n	1000356e <da_0>
1000351c:	0d0d      	lsrs	r5, r1, #20
1000351e:	d107      	bne.n	10003530 <da_1>
10003520:	2800      	cmp	r0, #0
10003522:	d01f      	beq.n	10003564 <da_5>

10003524 <da_2>:
10003524:	1924      	adds	r4, r4, r4
10003526:	4140      	adcs	r0, r0
10003528:	4149      	adcs	r1, r1
1000352a:	3a01      	subs	r2, #1
1000352c:	0d0d      	lsrs	r5, r1, #20
1000352e:	d0f9      	beq.n	10003524 <da_2>

10003530 <da_1>:
10003530:	0064      	lsls	r4, r4, #1
10003532:	d306      	bcc.n	10003542 <da_3>

10003534 <da_4>:
10003534:	3001      	adds	r0, #1
10003536:	d300      	bcc.n	1000353a <da_4+0x6>
10003538:	3101      	adds	r1, #1
1000353a:	2c00      	cmp	r4, #0
1000353c:	d101      	bne.n	10003542 <da_3>
1000353e:	0840      	lsrs	r0, r0, #1
10003540:	0040      	lsls	r0, r0, #1

10003542 <da_3>:
10003542:	3a01      	subs	r2, #1
10003544:	d40b      	bmi.n	1000355e <da_6>
10003546:	1c94      	adds	r4, r2, #2
10003548:	0ae4      	lsrs	r4, r4, #11
1000354a:	d104      	bne.n	10003556 <da_7>
1000354c:	0512      	lsls	r2, r2, #20
1000354e:	4411      	add	r1, r2
10003550:	07db      	lsls	r3, r3, #31
10003552:	4419      	add	r1, r3
10003554:	bdf0      	pop	{r4, r5, r6, r7, pc}

10003556 <da_7>:
10003556:	07d9      	lsls	r1, r3, #31
10003558:	4b20      	ldr	r3, [pc, #128]	; (100035dc <da_xmgty+0x4>)
1000355a:	4319      	orrs	r1, r3
1000355c:	e000      	b.n	10003560 <da_6+0x2>

1000355e <da_6>:
1000355e:	07d9      	lsls	r1, r3, #31
10003560:	2000      	movs	r0, #0
10003562:	bdf0      	pop	{r4, r5, r6, r7, pc}

10003564 <da_5>:
10003564:	2900      	cmp	r1, #0
10003566:	d1dd      	bne.n	10003524 <da_2>
10003568:	2c00      	cmp	r4, #0
1000356a:	d1db      	bne.n	10003524 <da_2>
1000356c:	bdf0      	pop	{r4, r5, r6, r7, pc}

1000356e <da_0>:
1000356e:	3201      	adds	r2, #1
10003570:	07c6      	lsls	r6, r0, #31
10003572:	0840      	lsrs	r0, r0, #1
10003574:	07cd      	lsls	r5, r1, #31
10003576:	4328      	orrs	r0, r5
10003578:	0849      	lsrs	r1, r1, #1
1000357a:	2e00      	cmp	r6, #0
1000357c:	d0e1      	beq.n	10003542 <da_3>
1000357e:	e7d9      	b.n	10003534 <da_4>

10003580 <da_xrgty>:
10003580:	2e3c      	cmp	r6, #60	; 0x3c
10003582:	da29      	bge.n	100035d8 <da_xmgty>
10003584:	3e20      	subs	r6, #32
10003586:	3740      	adds	r7, #64	; 0x40
10003588:	0014      	movs	r4, r2
1000358a:	40bc      	lsls	r4, r7
1000358c:	d000      	beq.n	10003590 <da_xrgty+0x10>
1000358e:	2401      	movs	r4, #1
10003590:	40f2      	lsrs	r2, r6
10003592:	4314      	orrs	r4, r2
10003594:	001a      	movs	r2, r3
10003596:	40bb      	lsls	r3, r7
10003598:	431c      	orrs	r4, r3
1000359a:	17d3      	asrs	r3, r2, #31
1000359c:	e7ac      	b.n	100034f8 <da_xgty0>

1000359e <da_ygtx>:
1000359e:	46ac      	mov	ip, r5
100035a0:	2f20      	cmp	r7, #32
100035a2:	da08      	bge.n	100035b6 <da_yrgtx>
100035a4:	3620      	adds	r6, #32
100035a6:	0004      	movs	r4, r0
100035a8:	40b4      	lsls	r4, r6

100035aa <da_ygtx0>:
100035aa:	000d      	movs	r5, r1
100035ac:	40b5      	lsls	r5, r6
100035ae:	40f8      	lsrs	r0, r7
100035b0:	4139      	asrs	r1, r7
100035b2:	4328      	orrs	r0, r5
100035b4:	e7a5      	b.n	10003502 <da_add>

100035b6 <da_yrgtx>:
100035b6:	2f3c      	cmp	r7, #60	; 0x3c
100035b8:	da0c      	bge.n	100035d4 <da_ymgtx>
100035ba:	3f20      	subs	r7, #32
100035bc:	3640      	adds	r6, #64	; 0x40
100035be:	0004      	movs	r4, r0
100035c0:	40b4      	lsls	r4, r6
100035c2:	d000      	beq.n	100035c6 <da_yrgtx+0x10>
100035c4:	2401      	movs	r4, #1
100035c6:	40f8      	lsrs	r0, r7
100035c8:	4304      	orrs	r4, r0
100035ca:	0008      	movs	r0, r1
100035cc:	40b1      	lsls	r1, r6
100035ce:	430c      	orrs	r4, r1
100035d0:	17c1      	asrs	r1, r0, #31
100035d2:	e7ea      	b.n	100035aa <da_ygtx0>

100035d4 <da_ymgtx>:
100035d4:	0010      	movs	r0, r2
100035d6:	0019      	movs	r1, r3

100035d8 <da_xmgty>:
100035d8:	2400      	movs	r4, #0
100035da:	e794      	b.n	10003506 <da_pack>
100035dc:	7ff00000 	.word	0x7ff00000

100035e0 <dmul_shim>:
100035e0:	b5f0      	push	{r4, r5, r6, r7, lr}
100035e2:	0d0c      	lsrs	r4, r1, #20
100035e4:	1e66      	subs	r6, r4, #1
100035e6:	0536      	lsls	r6, r6, #20
100035e8:	1b89      	subs	r1, r1, r6
100035ea:	0ae6      	lsrs	r6, r4, #11
100035ec:	0564      	lsls	r4, r4, #21
100035ee:	0d64      	lsrs	r4, r4, #21
100035f0:	d002      	beq.n	100035f8 <l12_1>
100035f2:	1c65      	adds	r5, r4, #1
100035f4:	0aed      	lsrs	r5, r5, #11
100035f6:	d004      	beq.n	10003602 <l12_2>

100035f8 <l12_1>:
100035f8:	2000      	movs	r0, #0
100035fa:	2101      	movs	r1, #1
100035fc:	0509      	lsls	r1, r1, #20
100035fe:	3c80      	subs	r4, #128	; 0x80
10003600:	0324      	lsls	r4, r4, #12

10003602 <l12_2>:
10003602:	46a4      	mov	ip, r4
10003604:	0d1c      	lsrs	r4, r3, #20
10003606:	1e67      	subs	r7, r4, #1
10003608:	053f      	lsls	r7, r7, #20
1000360a:	1bdb      	subs	r3, r3, r7
1000360c:	0ae7      	lsrs	r7, r4, #11
1000360e:	0564      	lsls	r4, r4, #21
10003610:	0d64      	lsrs	r4, r4, #21
10003612:	d002      	beq.n	1000361a <l13_1>
10003614:	1c65      	adds	r5, r4, #1
10003616:	0aed      	lsrs	r5, r5, #11
10003618:	d004      	beq.n	10003624 <l13_2>

1000361a <l13_1>:
1000361a:	2200      	movs	r2, #0
1000361c:	2301      	movs	r3, #1
1000361e:	051b      	lsls	r3, r3, #20
10003620:	3c80      	subs	r4, #128	; 0x80
10003622:	0324      	lsls	r4, r4, #12

10003624 <l13_2>:
10003624:	4077      	eors	r7, r6
10003626:	4464      	add	r4, ip
10003628:	b497      	push	{r0, r1, r2, r4, r7}
1000362a:	b284      	uxth	r4, r0
1000362c:	b296      	uxth	r6, r2
1000362e:	4374      	muls	r4, r6
10003630:	0c07      	lsrs	r7, r0, #16
10003632:	437e      	muls	r6, r7
10003634:	0c15      	lsrs	r5, r2, #16
10003636:	436f      	muls	r7, r5
10003638:	b280      	uxth	r0, r0
1000363a:	4368      	muls	r0, r5
1000363c:	1836      	adds	r6, r6, r0
1000363e:	d302      	bcc.n	10003646 <l14_1>
10003640:	2001      	movs	r0, #1
10003642:	0400      	lsls	r0, r0, #16
10003644:	183f      	adds	r7, r7, r0

10003646 <l14_1>:
10003646:	0430      	lsls	r0, r6, #16
10003648:	0c35      	lsrs	r5, r6, #16
1000364a:	1900      	adds	r0, r0, r4
1000364c:	417d      	adcs	r5, r7
1000364e:	4684      	mov	ip, r0
10003650:	b288      	uxth	r0, r1
10003652:	b29a      	uxth	r2, r3
10003654:	4350      	muls	r0, r2
10003656:	0c0c      	lsrs	r4, r1, #16
10003658:	4362      	muls	r2, r4
1000365a:	0c1f      	lsrs	r7, r3, #16
1000365c:	437c      	muls	r4, r7
1000365e:	b28e      	uxth	r6, r1
10003660:	437e      	muls	r6, r7
10003662:	1992      	adds	r2, r2, r6
10003664:	d302      	bcc.n	1000366c <l15_1>
10003666:	2601      	movs	r6, #1
10003668:	0436      	lsls	r6, r6, #16
1000366a:	19a4      	adds	r4, r4, r6

1000366c <l15_1>:
1000366c:	0416      	lsls	r6, r2, #16
1000366e:	0c17      	lsrs	r7, r2, #16
10003670:	1836      	adds	r6, r6, r0
10003672:	4167      	adcs	r7, r4
10003674:	bc01      	pop	{r0}
10003676:	b281      	uxth	r1, r0
10003678:	b29a      	uxth	r2, r3
1000367a:	4351      	muls	r1, r2
1000367c:	0c04      	lsrs	r4, r0, #16
1000367e:	4362      	muls	r2, r4
10003680:	0c1b      	lsrs	r3, r3, #16
10003682:	435c      	muls	r4, r3
10003684:	b280      	uxth	r0, r0
10003686:	4358      	muls	r0, r3
10003688:	1812      	adds	r2, r2, r0
1000368a:	d302      	bcc.n	10003692 <l16_1>
1000368c:	2001      	movs	r0, #1
1000368e:	0400      	lsls	r0, r0, #16
10003690:	1824      	adds	r4, r4, r0

10003692 <l16_1>:
10003692:	0410      	lsls	r0, r2, #16
10003694:	0c13      	lsrs	r3, r2, #16
10003696:	1840      	adds	r0, r0, r1
10003698:	4163      	adcs	r3, r4
1000369a:	182d      	adds	r5, r5, r0
1000369c:	415e      	adcs	r6, r3
1000369e:	2000      	movs	r0, #0
100036a0:	4147      	adcs	r7, r0
100036a2:	bc06      	pop	{r1, r2}
100036a4:	b288      	uxth	r0, r1
100036a6:	b293      	uxth	r3, r2
100036a8:	4358      	muls	r0, r3
100036aa:	0c0c      	lsrs	r4, r1, #16
100036ac:	4363      	muls	r3, r4
100036ae:	0c12      	lsrs	r2, r2, #16
100036b0:	4354      	muls	r4, r2
100036b2:	b289      	uxth	r1, r1
100036b4:	4351      	muls	r1, r2
100036b6:	185b      	adds	r3, r3, r1
100036b8:	d302      	bcc.n	100036c0 <l17_1>
100036ba:	2101      	movs	r1, #1
100036bc:	0409      	lsls	r1, r1, #16
100036be:	1864      	adds	r4, r4, r1

100036c0 <l17_1>:
100036c0:	0419      	lsls	r1, r3, #16
100036c2:	0c1a      	lsrs	r2, r3, #16
100036c4:	1809      	adds	r1, r1, r0
100036c6:	4162      	adcs	r2, r4
100036c8:	186d      	adds	r5, r5, r1
100036ca:	4156      	adcs	r6, r2
100036cc:	2000      	movs	r0, #0
100036ce:	4147      	adcs	r7, r0
100036d0:	bc18      	pop	{r3, r4}
100036d2:	02f9      	lsls	r1, r7, #11
100036d4:	0d72      	lsrs	r2, r6, #21
100036d6:	4311      	orrs	r1, r2
100036d8:	02f0      	lsls	r0, r6, #11
100036da:	0d6a      	lsrs	r2, r5, #21
100036dc:	4310      	orrs	r0, r2
100036de:	02ed      	lsls	r5, r5, #11
100036e0:	0d0a      	lsrs	r2, r1, #20
100036e2:	d103      	bne.n	100036ec <l17_1+0x2c>
100036e4:	196d      	adds	r5, r5, r5
100036e6:	4140      	adcs	r0, r0
100036e8:	4149      	adcs	r1, r1
100036ea:	3b01      	subs	r3, #1
100036ec:	4e12      	ldr	r6, [pc, #72]	; (10003738 <dm_1+0xa>)
100036ee:	1b9b      	subs	r3, r3, r6
100036f0:	0076      	lsls	r6, r6, #1
100036f2:	42b3      	cmp	r3, r6
100036f4:	d20e      	bcs.n	10003714 <dm_0>
100036f6:	006d      	lsls	r5, r5, #1
100036f8:	d307      	bcc.n	1000370a <l17_1+0x4a>
100036fa:	3001      	adds	r0, #1
100036fc:	2600      	movs	r6, #0
100036fe:	4171      	adcs	r1, r6
10003700:	4666      	mov	r6, ip
10003702:	4335      	orrs	r5, r6
10003704:	d101      	bne.n	1000370a <l17_1+0x4a>
10003706:	0840      	lsrs	r0, r0, #1
10003708:	0040      	lsls	r0, r0, #1
1000370a:	051b      	lsls	r3, r3, #20
1000370c:	18c9      	adds	r1, r1, r3

1000370e <dm_2>:
1000370e:	07e4      	lsls	r4, r4, #31
10003710:	4421      	add	r1, r4
10003712:	bdf0      	pop	{r4, r5, r6, r7, pc}

10003714 <dm_0>:
10003714:	da0b      	bge.n	1000372e <dm_1>
10003716:	3301      	adds	r3, #1
10003718:	d106      	bne.n	10003728 <dm_0+0x14>
1000371a:	3001      	adds	r0, #1
1000371c:	d104      	bne.n	10003728 <dm_0+0x14>
1000371e:	3101      	adds	r1, #1
10003720:	0d4f      	lsrs	r7, r1, #21
10003722:	d001      	beq.n	10003728 <dm_0+0x14>
10003724:	0849      	lsrs	r1, r1, #1
10003726:	e7f2      	b.n	1000370e <dm_2>
10003728:	07e1      	lsls	r1, r4, #31
1000372a:	2000      	movs	r0, #0
1000372c:	bdf0      	pop	{r4, r5, r6, r7, pc}

1000372e <dm_1>:
1000372e:	3601      	adds	r6, #1
10003730:	0531      	lsls	r1, r6, #20
10003732:	2000      	movs	r0, #0
10003734:	e7eb      	b.n	1000370e <dm_2>
10003736:	0000      	.short	0x0000
10003738:	000003ff 	.word	0x000003ff

1000373c <ddiv_shim>:
1000373c:	b5f0      	push	{r4, r5, r6, r7, lr}

1000373e <ddiv0>:
1000373e:	0d1c      	lsrs	r4, r3, #20
10003740:	1e67      	subs	r7, r4, #1
10003742:	053f      	lsls	r7, r7, #20
10003744:	1bdb      	subs	r3, r3, r7
10003746:	0ae7      	lsrs	r7, r4, #11
10003748:	0564      	lsls	r4, r4, #21
1000374a:	0d64      	lsrs	r4, r4, #21
1000374c:	d002      	beq.n	10003754 <l20_1>
1000374e:	1c66      	adds	r6, r4, #1
10003750:	0af6      	lsrs	r6, r6, #11
10003752:	d004      	beq.n	1000375e <l20_2>

10003754 <l20_1>:
10003754:	2200      	movs	r2, #0
10003756:	2301      	movs	r3, #1
10003758:	051b      	lsls	r3, r3, #20
1000375a:	3c80      	subs	r4, #128	; 0x80
1000375c:	0324      	lsls	r4, r4, #12

1000375e <l20_2>:
1000375e:	25d0      	movs	r5, #208	; 0xd0
10003760:	062d      	lsls	r5, r5, #24
10003762:	2600      	movs	r6, #0
10003764:	43f6      	mvns	r6, r6
10003766:	662e      	str	r6, [r5, #96]	; 0x60
10003768:	091e      	lsrs	r6, r3, #4
1000376a:	666e      	str	r6, [r5, #100]	; 0x64
1000376c:	0fce      	lsrs	r6, r1, #31
1000376e:	19f6      	adds	r6, r6, r7
10003770:	46b4      	mov	ip, r6
10003772:	0049      	lsls	r1, r1, #1
10003774:	0d4f      	lsrs	r7, r1, #21
10003776:	d002      	beq.n	1000377e <l20_2+0x20>
10003778:	1c7e      	adds	r6, r7, #1
1000377a:	0af6      	lsrs	r6, r6, #11
1000377c:	d003      	beq.n	10003786 <l20_2+0x28>
1000377e:	2000      	movs	r0, #0
10003780:	2100      	movs	r1, #0
10003782:	3f40      	subs	r7, #64	; 0x40
10003784:	033f      	lsls	r7, r7, #12
10003786:	1b3e      	subs	r6, r7, r4
10003788:	00b6      	lsls	r6, r6, #2
1000378a:	44b4      	add	ip, r6
1000378c:	3f01      	subs	r7, #1
1000378e:	057f      	lsls	r7, r7, #21
10003790:	1bc9      	subs	r1, r1, r7
10003792:	0849      	lsrs	r1, r1, #1
10003794:	6f2e      	ldr	r6, [r5, #112]	; 0x70
10003796:	3601      	adds	r6, #1
10003798:	0876      	lsrs	r6, r6, #1
1000379a:	029c      	lsls	r4, r3, #10
1000379c:	0d95      	lsrs	r5, r2, #22
1000379e:	4325      	orrs	r5, r4
100037a0:	4375      	muls	r5, r6
100037a2:	13ed      	asrs	r5, r5, #15
100037a4:	4375      	muls	r5, r6
100037a6:	13ad      	asrs	r5, r5, #14
100037a8:	3501      	adds	r5, #1
100037aa:	106d      	asrs	r5, r5, #1
100037ac:	03f6      	lsls	r6, r6, #15
100037ae:	1b76      	subs	r6, r6, r5
100037b0:	b40c      	push	{r2, r3}
100037b2:	02cc      	lsls	r4, r1, #11
100037b4:	0d45      	lsrs	r5, r0, #21
100037b6:	432c      	orrs	r4, r5
100037b8:	b2a2      	uxth	r2, r4
100037ba:	b2b3      	uxth	r3, r6
100037bc:	435a      	muls	r2, r3
100037be:	0c27      	lsrs	r7, r4, #16
100037c0:	437b      	muls	r3, r7
100037c2:	0c35      	lsrs	r5, r6, #16
100037c4:	436f      	muls	r7, r5
100037c6:	b2a4      	uxth	r4, r4
100037c8:	436c      	muls	r4, r5
100037ca:	191b      	adds	r3, r3, r4
100037cc:	d302      	bcc.n	100037d4 <l21_1>
100037ce:	2401      	movs	r4, #1
100037d0:	0424      	lsls	r4, r4, #16
100037d2:	193f      	adds	r7, r7, r4

100037d4 <l21_1>:
100037d4:	041c      	lsls	r4, r3, #16
100037d6:	0c1d      	lsrs	r5, r3, #16
100037d8:	18a4      	adds	r4, r4, r2
100037da:	417d      	adcs	r5, r7
100037dc:	1924      	adds	r4, r4, r4
100037de:	416d      	adcs	r5, r5
100037e0:	9a00      	ldr	r2, [sp, #0]
100037e2:	b291      	uxth	r1, r2
100037e4:	b2ac      	uxth	r4, r5
100037e6:	4361      	muls	r1, r4
100037e8:	0c17      	lsrs	r7, r2, #16
100037ea:	437c      	muls	r4, r7
100037ec:	0c2b      	lsrs	r3, r5, #16
100037ee:	435f      	muls	r7, r3
100037f0:	b292      	uxth	r2, r2
100037f2:	435a      	muls	r2, r3
100037f4:	18a4      	adds	r4, r4, r2
100037f6:	d302      	bcc.n	100037fe <l22_1>
100037f8:	2201      	movs	r2, #1
100037fa:	0412      	lsls	r2, r2, #16
100037fc:	18bf      	adds	r7, r7, r2

100037fe <l22_1>:
100037fe:	0422      	lsls	r2, r4, #16
10003800:	0c23      	lsrs	r3, r4, #16
10003802:	1852      	adds	r2, r2, r1
10003804:	417b      	adcs	r3, r7
10003806:	9c01      	ldr	r4, [sp, #4]
10003808:	436c      	muls	r4, r5
1000380a:	191b      	adds	r3, r3, r4
1000380c:	0e52      	lsrs	r2, r2, #25
1000380e:	01d9      	lsls	r1, r3, #7
10003810:	430a      	orrs	r2, r1
10003812:	0144      	lsls	r4, r0, #5
10003814:	1aa0      	subs	r0, r4, r2
10003816:	b281      	uxth	r1, r0
10003818:	b2b2      	uxth	r2, r6
1000381a:	4351      	muls	r1, r2
1000381c:	1403      	asrs	r3, r0, #16
1000381e:	435a      	muls	r2, r3
10003820:	0c36      	lsrs	r6, r6, #16
10003822:	4373      	muls	r3, r6
10003824:	b287      	uxth	r7, r0
10003826:	4377      	muls	r7, r6
10003828:	17d6      	asrs	r6, r2, #31
1000382a:	19d2      	adds	r2, r2, r7
1000382c:	2700      	movs	r7, #0
1000382e:	417e      	adcs	r6, r7
10003830:	0436      	lsls	r6, r6, #16
10003832:	199b      	adds	r3, r3, r6
10003834:	0417      	lsls	r7, r2, #16
10003836:	0c16      	lsrs	r6, r2, #16
10003838:	187f      	adds	r7, r7, r1
1000383a:	415e      	adcs	r6, r3
1000383c:	1673      	asrs	r3, r6, #25
1000383e:	18ed      	adds	r5, r5, r3
10003840:	01f3      	lsls	r3, r6, #7
10003842:	2600      	movs	r6, #0
10003844:	3380      	adds	r3, #128	; 0x80
10003846:	4175      	adcs	r5, r6
10003848:	0fa9      	lsrs	r1, r5, #30
1000384a:	d106      	bne.n	1000385a <dd_0>
1000384c:	0064      	lsls	r4, r4, #1
1000384e:	0a69      	lsrs	r1, r5, #9
10003850:	05e8      	lsls	r0, r5, #23
10003852:	0a5b      	lsrs	r3, r3, #9
10003854:	4318      	orrs	r0, r3
10003856:	d209      	bcs.n	1000386c <dd_1>
10003858:	e02f      	b.n	100038ba <dd_2>

1000385a <dd_0>:
1000385a:	2204      	movs	r2, #4
1000385c:	4494      	add	ip, r2
1000385e:	3380      	adds	r3, #128	; 0x80
10003860:	4175      	adcs	r5, r6
10003862:	0aa9      	lsrs	r1, r5, #10
10003864:	05a8      	lsls	r0, r5, #22
10003866:	0a9b      	lsrs	r3, r3, #10
10003868:	4318      	orrs	r0, r3
1000386a:	d326      	bcc.n	100038ba <dd_2>

1000386c <dd_1>:
1000386c:	4140      	adcs	r0, r0
1000386e:	4149      	adcs	r1, r1
10003870:	0424      	lsls	r4, r4, #16
10003872:	9a00      	ldr	r2, [sp, #0]
10003874:	9b01      	ldr	r3, [sp, #4]
10003876:	000d      	movs	r5, r1
10003878:	4355      	muls	r5, r2
1000387a:	1b64      	subs	r4, r4, r5
1000387c:	4343      	muls	r3, r0
1000387e:	1ae4      	subs	r4, r4, r3
10003880:	b295      	uxth	r5, r2
10003882:	b286      	uxth	r6, r0
10003884:	4375      	muls	r5, r6
10003886:	0c17      	lsrs	r7, r2, #16
10003888:	437e      	muls	r6, r7
1000388a:	0c03      	lsrs	r3, r0, #16
1000388c:	435f      	muls	r7, r3
1000388e:	b292      	uxth	r2, r2
10003890:	435a      	muls	r2, r3
10003892:	18b6      	adds	r6, r6, r2
10003894:	d302      	bcc.n	1000389c <l24_1>
10003896:	2201      	movs	r2, #1
10003898:	0412      	lsls	r2, r2, #16
1000389a:	18bf      	adds	r7, r7, r2

1000389c <l24_1>:
1000389c:	0432      	lsls	r2, r6, #16
1000389e:	0c33      	lsrs	r3, r6, #16
100038a0:	1952      	adds	r2, r2, r5
100038a2:	417b      	adcs	r3, r7
100038a4:	4252      	negs	r2, r2
100038a6:	419c      	sbcs	r4, r3
100038a8:	2c00      	cmp	r4, #0
100038aa:	d402      	bmi.n	100038b2 <l24_1+0x16>
100038ac:	2200      	movs	r2, #0
100038ae:	3001      	adds	r0, #1
100038b0:	4151      	adcs	r1, r2
100038b2:	0840      	lsrs	r0, r0, #1
100038b4:	07ca      	lsls	r2, r1, #31
100038b6:	4310      	orrs	r0, r2
100038b8:	0849      	lsrs	r1, r1, #1

100038ba <dd_2>:
100038ba:	b002      	add	sp, #8
100038bc:	4662      	mov	r2, ip
100038be:	07d7      	lsls	r7, r2, #31
100038c0:	1092      	asrs	r2, r2, #2
100038c2:	4b08      	ldr	r3, [pc, #32]	; (100038e4 <dd_4+0x6>)
100038c4:	18d2      	adds	r2, r2, r3
100038c6:	4b08      	ldr	r3, [pc, #32]	; (100038e8 <dd_4+0xa>)
100038c8:	429a      	cmp	r2, r3
100038ca:	d203      	bcs.n	100038d4 <dd_3>
100038cc:	0512      	lsls	r2, r2, #20
100038ce:	1889      	adds	r1, r1, r2

100038d0 <dd_5>:
100038d0:	19c9      	adds	r1, r1, r7
100038d2:	bdf0      	pop	{r4, r5, r6, r7, pc}

100038d4 <dd_3>:
100038d4:	2000      	movs	r0, #0
100038d6:	2a00      	cmp	r2, #0
100038d8:	dc01      	bgt.n	100038de <dd_4>
100038da:	0039      	movs	r1, r7
100038dc:	bdf0      	pop	{r4, r5, r6, r7, pc}

100038de <dd_4>:
100038de:	3301      	adds	r3, #1
100038e0:	0519      	lsls	r1, r3, #20
100038e2:	e7f5      	b.n	100038d0 <dd_5>
100038e4:	000003fd 	.word	0x000003fd
100038e8:	000007fe 	.word	0x000007fe

100038ec <double2uint_shim>:
100038ec:	2200      	movs	r2, #0

100038ee <double2ufix_shim>:
100038ee:	b500      	push	{lr}
100038f0:	3220      	adds	r2, #32
100038f2:	f000 f804 	bl	100038fe <double2ufix64_shim>
100038f6:	0008      	movs	r0, r1
100038f8:	bd00      	pop	{pc}
	...

100038fc <double2uint64_shim>:
100038fc:	2200      	movs	r2, #0

100038fe <double2ufix64_shim>:
100038fe:	150b      	asrs	r3, r1, #20
10003900:	d40a      	bmi.n	10003918 <ret_dzero>

10003902 <d2fix>:
10003902:	b510      	push	{r4, lr}
10003904:	4694      	mov	ip, r2
10003906:	f000 f831 	bl	1000396c <dunpacks>
1000390a:	1414      	asrs	r4, r2, #16
1000390c:	3401      	adds	r4, #1
1000390e:	da00      	bge.n	10003912 <d2fix+0x10>
10003910:	2100      	movs	r1, #0
10003912:	17cb      	asrs	r3, r1, #31
10003914:	4c14      	ldr	r4, [pc, #80]	; (10003968 <d2fix_a+0x4a>)
10003916:	4720      	bx	r4

10003918 <ret_dzero>:
10003918:	2000      	movs	r0, #0
1000391a:	2100      	movs	r1, #0
1000391c:	4770      	bx	lr

1000391e <d2fix_a>:
1000391e:	4462      	add	r2, ip
10003920:	3a34      	subs	r2, #52	; 0x34
10003922:	d40c      	bmi.n	1000393e <d2fix_a+0x20>
10003924:	2a0c      	cmp	r2, #12
10003926:	da07      	bge.n	10003938 <d2fix_a+0x1a>
10003928:	0004      	movs	r4, r0
1000392a:	4091      	lsls	r1, r2
1000392c:	4090      	lsls	r0, r2
1000392e:	4252      	negs	r2, r2
10003930:	3220      	adds	r2, #32
10003932:	40d4      	lsrs	r4, r2
10003934:	4321      	orrs	r1, r4
10003936:	bd10      	pop	{r4, pc}
10003938:	43d8      	mvns	r0, r3
1000393a:	43d9      	mvns	r1, r3
1000393c:	bd10      	pop	{r4, pc}
1000393e:	3220      	adds	r2, #32
10003940:	d407      	bmi.n	10003952 <d2fix_a+0x34>
10003942:	460c      	mov	r4, r1
10003944:	4094      	lsls	r4, r2
10003946:	4252      	negs	r2, r2
10003948:	3220      	adds	r2, #32
1000394a:	4111      	asrs	r1, r2
1000394c:	40d0      	lsrs	r0, r2
1000394e:	4320      	orrs	r0, r4
10003950:	bd10      	pop	{r4, pc}
10003952:	0008      	movs	r0, r1
10003954:	17c9      	asrs	r1, r1, #31
10003956:	3220      	adds	r2, #32
10003958:	d403      	bmi.n	10003962 <d2fix_a+0x44>
1000395a:	4252      	negs	r2, r2
1000395c:	3220      	adds	r2, #32
1000395e:	4110      	asrs	r0, r2
10003960:	bd10      	pop	{r4, pc}
10003962:	0018      	movs	r0, r3
10003964:	0019      	movs	r1, r3
10003966:	bd10      	pop	{r4, pc}
10003968:	1000391f 	.word	0x1000391f

1000396c <dunpacks>:
1000396c:	0d0a      	lsrs	r2, r1, #20
1000396e:	0fcc      	lsrs	r4, r1, #31
10003970:	1e53      	subs	r3, r2, #1
10003972:	051b      	lsls	r3, r3, #20
10003974:	1ac9      	subs	r1, r1, r3
10003976:	0552      	lsls	r2, r2, #21
10003978:	d303      	bcc.n	10003982 <l60_1>
1000397a:	43c9      	mvns	r1, r1
1000397c:	4240      	negs	r0, r0
1000397e:	d300      	bcc.n	10003982 <l60_1>
10003980:	3101      	adds	r1, #1

10003982 <l60_1>:
10003982:	0d52      	lsrs	r2, r2, #21
10003984:	d003      	beq.n	1000398e <l60_2>
10003986:	1c53      	adds	r3, r2, #1
10003988:	0adb      	lsrs	r3, r3, #11
1000398a:	d007      	beq.n	1000399c <l60_3>
1000398c:	1b12      	subs	r2, r2, r4

1000398e <l60_2>:
1000398e:	2000      	movs	r0, #0
10003990:	0064      	lsls	r4, r4, #1
10003992:	1c61      	adds	r1, r4, #1
10003994:	0789      	lsls	r1, r1, #30
10003996:	1289      	asrs	r1, r1, #10
10003998:	3a80      	subs	r2, #128	; 0x80
1000399a:	0312      	lsls	r2, r2, #12

1000399c <l60_3>:
1000399c:	4b01      	ldr	r3, [pc, #4]	; (100039a4 <l60_3+0x8>)
1000399e:	1ad2      	subs	r2, r2, r3
100039a0:	4770      	bx	lr
100039a2:	0000      	.short	0x0000
100039a4:	000003ff 	.word	0x000003ff

100039a8 <__wrap___aeabi_lmul>:
100039a8:	4351      	muls	r1, r2
100039aa:	4343      	muls	r3, r0
100039ac:	18c9      	adds	r1, r1, r3
100039ae:	468c      	mov	ip, r1
100039b0:	0c11      	lsrs	r1, r2, #16
100039b2:	b283      	uxth	r3, r0
100039b4:	434b      	muls	r3, r1
100039b6:	b410      	push	{r4}
100039b8:	0c04      	lsrs	r4, r0, #16
100039ba:	4361      	muls	r1, r4
100039bc:	b292      	uxth	r2, r2
100039be:	b280      	uxth	r0, r0
100039c0:	4350      	muls	r0, r2
100039c2:	4362      	muls	r2, r4
100039c4:	041c      	lsls	r4, r3, #16
100039c6:	0c1b      	lsrs	r3, r3, #16
100039c8:	1900      	adds	r0, r0, r4
100039ca:	bc10      	pop	{r4}
100039cc:	4159      	adcs	r1, r3
100039ce:	0413      	lsls	r3, r2, #16
100039d0:	0c12      	lsrs	r2, r2, #16
100039d2:	18c0      	adds	r0, r0, r3
100039d4:	4151      	adcs	r1, r2
100039d6:	4461      	add	r1, ip
100039d8:	4770      	bx	lr
	...

100039dc <__aeabi_float_init>:
100039dc:	2313      	movs	r3, #19
100039de:	b510      	push	{r4, lr}
100039e0:	4810      	ldr	r0, [pc, #64]	; (10003a24 <__aeabi_float_init+0x48>)
100039e2:	781c      	ldrb	r4, [r3, #0]
100039e4:	f7ff f87c 	bl	10002ae0 <rom_data_lookup>
100039e8:	0001      	movs	r1, r0
100039ea:	2c01      	cmp	r4, #1
100039ec:	d00a      	beq.n	10003a04 <__aeabi_float_init+0x28>
100039ee:	dd03      	ble.n	100039f8 <__aeabi_float_init+0x1c>
100039f0:	2280      	movs	r2, #128	; 0x80
100039f2:	480d      	ldr	r0, [pc, #52]	; (10003a28 <__aeabi_float_init+0x4c>)
100039f4:	f000 f844 	bl	10003a80 <__wrap___aeabi_memcpy>
100039f8:	480c      	ldr	r0, [pc, #48]	; (10003a2c <__aeabi_float_init+0x50>)
100039fa:	f7ff f869 	bl	10002ad0 <rom_func_lookup>
100039fe:	4b0c      	ldr	r3, [pc, #48]	; (10003a30 <__aeabi_float_init+0x54>)
10003a00:	6018      	str	r0, [r3, #0]
10003a02:	bd10      	pop	{r4, pc}
10003a04:	4c08      	ldr	r4, [pc, #32]	; (10003a28 <__aeabi_float_init+0x4c>)
10003a06:	2254      	movs	r2, #84	; 0x54
10003a08:	0020      	movs	r0, r4
10003a0a:	f000 f839 	bl	10003a80 <__wrap___aeabi_memcpy>
10003a0e:	0023      	movs	r3, r4
10003a10:	0021      	movs	r1, r4
10003a12:	4a08      	ldr	r2, [pc, #32]	; (10003a34 <__aeabi_float_init+0x58>)
10003a14:	3354      	adds	r3, #84	; 0x54
10003a16:	3180      	adds	r1, #128	; 0x80
10003a18:	c304      	stmia	r3!, {r2}
10003a1a:	428b      	cmp	r3, r1
10003a1c:	d1fc      	bne.n	10003a18 <__aeabi_float_init+0x3c>
10003a1e:	6222      	str	r2, [r4, #32]
10003a20:	61e2      	str	r2, [r4, #28]
10003a22:	e7e9      	b.n	100039f8 <__aeabi_float_init+0x1c>
10003a24:	00004653 	.word	0x00004653
10003a28:	20001e20 	.word	0x20001e20
10003a2c:	0000334c 	.word	0x0000334c
10003a30:	20001e1c 	.word	0x20001e1c
10003a34:	10003a39 	.word	0x10003a39

10003a38 <float_table_shim_on_use_helper>:
10003a38:	b507      	push	{r0, r1, r2, lr}
10003a3a:	4660      	mov	r0, ip
10003a3c:	8801      	ldrh	r1, [r0, #0]
10003a3e:	0a0a      	lsrs	r2, r1, #8
10003a40:	3002      	adds	r0, #2
10003a42:	2adf      	cmp	r2, #223	; 0xdf
10003a44:	d1fa      	bne.n	10003a3c <float_table_shim_on_use_helper+0x4>
10003a46:	b2c9      	uxtb	r1, r1
10003a48:	0882      	lsrs	r2, r0, #2
10003a4a:	d304      	bcc.n	10003a56 <float_table_shim_on_use_helper+0x1e>
10003a4c:	8802      	ldrh	r2, [r0, #0]
10003a4e:	8840      	ldrh	r0, [r0, #2]
10003a50:	0400      	lsls	r0, r0, #16
10003a52:	4310      	orrs	r0, r2
10003a54:	e000      	b.n	10003a58 <float_table_shim_on_use_helper+0x20>
10003a56:	6800      	ldr	r0, [r0, #0]
10003a58:	4a01      	ldr	r2, [pc, #4]	; (10003a60 <float_table_shim_on_use_helper+0x28>)
10003a5a:	5050      	str	r0, [r2, r1]
10003a5c:	9003      	str	r0, [sp, #12]
10003a5e:	bd07      	pop	{r0, r1, r2, pc}
10003a60:	20001e20 	.word	0x20001e20

10003a64 <__aeabi_mem_init>:
10003a64:	4801      	ldr	r0, [pc, #4]	; (10003a6c <__aeabi_mem_init+0x8>)
10003a66:	2104      	movs	r1, #4
10003a68:	4b01      	ldr	r3, [pc, #4]	; (10003a70 <__aeabi_mem_init+0xc>)
10003a6a:	4718      	bx	r3
10003a6c:	200004b0 	.word	0x200004b0
10003a70:	10002af1 	.word	0x10002af1

10003a74 <__wrap_memset>:
10003a74:	4b01      	ldr	r3, [pc, #4]	; (10003a7c <__wrap_memset+0x8>)
10003a76:	681b      	ldr	r3, [r3, #0]
10003a78:	4718      	bx	r3
10003a7a:	0000      	.short	0x0000
10003a7c:	200004b0 	.word	0x200004b0

10003a80 <__wrap___aeabi_memcpy>:
10003a80:	4b01      	ldr	r3, [pc, #4]	; (10003a88 <__wrap___aeabi_memcpy+0x8>)
10003a82:	685b      	ldr	r3, [r3, #4]
10003a84:	4718      	bx	r3
10003a86:	0000      	.short	0x0000
10003a88:	200004b0 	.word	0x200004b0

10003a8c <_out_buffer>:
10003a8c:	429a      	cmp	r2, r3
10003a8e:	d200      	bcs.n	10003a92 <_out_buffer+0x6>
10003a90:	5488      	strb	r0, [r1, r2]
10003a92:	4770      	bx	lr

10003a94 <_out_null>:
10003a94:	4770      	bx	lr
10003a96:	46c0      	nop			; (mov r8, r8)

10003a98 <_out_rev>:
10003a98:	b5f8      	push	{r3, r4, r5, r6, r7, lr}
10003a9a:	4657      	mov	r7, sl
10003a9c:	464e      	mov	r6, r9
10003a9e:	4645      	mov	r5, r8
10003aa0:	46de      	mov	lr, fp
10003aa2:	b5e0      	push	{r5, r6, r7, lr}
10003aa4:	4699      	mov	r9, r3
10003aa6:	9b0a      	ldr	r3, [sp, #40]	; 0x28
10003aa8:	0007      	movs	r7, r0
10003aaa:	469a      	mov	sl, r3
10003aac:	9b0d      	ldr	r3, [sp, #52]	; 0x34
10003aae:	4688      	mov	r8, r1
10003ab0:	4693      	mov	fp, r2
10003ab2:	0015      	movs	r5, r2
10003ab4:	9e0b      	ldr	r6, [sp, #44]	; 0x2c
10003ab6:	079b      	lsls	r3, r3, #30
10003ab8:	d110      	bne.n	10003adc <_out_rev+0x44>
10003aba:	9b0c      	ldr	r3, [sp, #48]	; 0x30
10003abc:	429e      	cmp	r6, r3
10003abe:	d20d      	bcs.n	10003adc <_out_rev+0x44>
10003ac0:	1b9d      	subs	r5, r3, r6
10003ac2:	0014      	movs	r4, r2
10003ac4:	000e      	movs	r6, r1
10003ac6:	445d      	add	r5, fp
10003ac8:	0022      	movs	r2, r4
10003aca:	464b      	mov	r3, r9
10003acc:	3401      	adds	r4, #1
10003ace:	0031      	movs	r1, r6
10003ad0:	2020      	movs	r0, #32
10003ad2:	47b8      	blx	r7
10003ad4:	42a5      	cmp	r5, r4
10003ad6:	d1f7      	bne.n	10003ac8 <_out_rev+0x30>
10003ad8:	46b0      	mov	r8, r6
10003ada:	9e0b      	ldr	r6, [sp, #44]	; 0x2c
10003adc:	2e00      	cmp	r6, #0
10003ade:	d027      	beq.n	10003b30 <_out_rev+0x98>
10003ae0:	4644      	mov	r4, r8
10003ae2:	1975      	adds	r5, r6, r5
10003ae4:	4653      	mov	r3, sl
10003ae6:	1baa      	subs	r2, r5, r6
10003ae8:	3e01      	subs	r6, #1
10003aea:	5d98      	ldrb	r0, [r3, r6]
10003aec:	0021      	movs	r1, r4
10003aee:	464b      	mov	r3, r9
10003af0:	47b8      	blx	r7
10003af2:	2e00      	cmp	r6, #0
10003af4:	d1f6      	bne.n	10003ae4 <_out_rev+0x4c>
10003af6:	0023      	movs	r3, r4
10003af8:	002c      	movs	r4, r5
10003afa:	4698      	mov	r8, r3
10003afc:	9b0d      	ldr	r3, [sp, #52]	; 0x34
10003afe:	079b      	lsls	r3, r3, #30
10003b00:	d50f      	bpl.n	10003b22 <_out_rev+0x8a>
10003b02:	465b      	mov	r3, fp
10003b04:	1ae5      	subs	r5, r4, r3
10003b06:	9b0c      	ldr	r3, [sp, #48]	; 0x30
10003b08:	42ab      	cmp	r3, r5
10003b0a:	d90a      	bls.n	10003b22 <_out_rev+0x8a>
10003b0c:	4646      	mov	r6, r8
10003b0e:	4698      	mov	r8, r3
10003b10:	0022      	movs	r2, r4
10003b12:	464b      	mov	r3, r9
10003b14:	0031      	movs	r1, r6
10003b16:	2020      	movs	r0, #32
10003b18:	3501      	adds	r5, #1
10003b1a:	47b8      	blx	r7
10003b1c:	3401      	adds	r4, #1
10003b1e:	4545      	cmp	r5, r8
10003b20:	d3f6      	bcc.n	10003b10 <_out_rev+0x78>
10003b22:	0020      	movs	r0, r4
10003b24:	bcf0      	pop	{r4, r5, r6, r7}
10003b26:	46bb      	mov	fp, r7
10003b28:	46b2      	mov	sl, r6
10003b2a:	46a9      	mov	r9, r5
10003b2c:	46a0      	mov	r8, r4
10003b2e:	bdf8      	pop	{r3, r4, r5, r6, r7, pc}
10003b30:	002c      	movs	r4, r5
10003b32:	e7e3      	b.n	10003afc <_out_rev+0x64>

10003b34 <_ntoa_format>:
10003b34:	b5f0      	push	{r4, r5, r6, r7, lr}
10003b36:	464f      	mov	r7, r9
10003b38:	4646      	mov	r6, r8
10003b3a:	46d6      	mov	lr, sl
10003b3c:	b5c0      	push	{r6, r7, lr}
10003b3e:	b084      	sub	sp, #16
10003b40:	4698      	mov	r8, r3
10003b42:	ab0e      	add	r3, sp, #56	; 0x38
10003b44:	781b      	ldrb	r3, [r3, #0]
10003b46:	9f12      	ldr	r7, [sp, #72]	; 0x48
10003b48:	4699      	mov	r9, r3
10003b4a:	4694      	mov	ip, r2
10003b4c:	9c0d      	ldr	r4, [sp, #52]	; 0x34
10003b4e:	9b10      	ldr	r3, [sp, #64]	; 0x40
10003b50:	9e11      	ldr	r6, [sp, #68]	; 0x44
10003b52:	07ba      	lsls	r2, r7, #30
10003b54:	d425      	bmi.n	10003ba2 <_ntoa_format+0x6e>
10003b56:	2e00      	cmp	r6, #0
10003b58:	d14b      	bne.n	10003bf2 <_ntoa_format+0xbe>
10003b5a:	429c      	cmp	r4, r3
10003b5c:	d300      	bcc.n	10003b60 <_ntoa_format+0x2c>
10003b5e:	e0c1      	b.n	10003ce4 <_ntoa_format+0x1b0>
10003b60:	2201      	movs	r2, #1
10003b62:	403a      	ands	r2, r7
10003b64:	4692      	mov	sl, r2
10003b66:	2c1f      	cmp	r4, #31
10003b68:	d900      	bls.n	10003b6c <_ntoa_format+0x38>
10003b6a:	e0ba      	b.n	10003ce2 <_ntoa_format+0x1ae>
10003b6c:	9a0c      	ldr	r2, [sp, #48]	; 0x30
10003b6e:	1e55      	subs	r5, r2, #1
10003b70:	2230      	movs	r2, #48	; 0x30
10003b72:	e001      	b.n	10003b78 <_ntoa_format+0x44>
10003b74:	2c20      	cmp	r4, #32
10003b76:	d003      	beq.n	10003b80 <_ntoa_format+0x4c>
10003b78:	3401      	adds	r4, #1
10003b7a:	552a      	strb	r2, [r5, r4]
10003b7c:	42a3      	cmp	r3, r4
10003b7e:	d8f9      	bhi.n	10003b74 <_ntoa_format+0x40>
10003b80:	4652      	mov	r2, sl
10003b82:	2a00      	cmp	r2, #0
10003b84:	d00d      	beq.n	10003ba2 <_ntoa_format+0x6e>
10003b86:	42a6      	cmp	r6, r4
10003b88:	d90b      	bls.n	10003ba2 <_ntoa_format+0x6e>
10003b8a:	2c20      	cmp	r4, #32
10003b8c:	d044      	beq.n	10003c18 <_ntoa_format+0xe4>
10003b8e:	9a0c      	ldr	r2, [sp, #48]	; 0x30
10003b90:	1e55      	subs	r5, r2, #1
10003b92:	2230      	movs	r2, #48	; 0x30
10003b94:	e001      	b.n	10003b9a <_ntoa_format+0x66>
10003b96:	2c20      	cmp	r4, #32
10003b98:	d03e      	beq.n	10003c18 <_ntoa_format+0xe4>
10003b9a:	3401      	adds	r4, #1
10003b9c:	552a      	strb	r2, [r5, r4]
10003b9e:	42b4      	cmp	r4, r6
10003ba0:	d1f9      	bne.n	10003b96 <_ntoa_format+0x62>
10003ba2:	06fa      	lsls	r2, r7, #27
10003ba4:	d54e      	bpl.n	10003c44 <_ntoa_format+0x110>
10003ba6:	057a      	lsls	r2, r7, #21
10003ba8:	d43f      	bmi.n	10003c2a <_ntoa_format+0xf6>
10003baa:	2c00      	cmp	r4, #0
10003bac:	d139      	bne.n	10003c22 <_ntoa_format+0xee>
10003bae:	9b0f      	ldr	r3, [sp, #60]	; 0x3c
10003bb0:	2b10      	cmp	r3, #16
10003bb2:	d100      	bne.n	10003bb6 <_ntoa_format+0x82>
10003bb4:	e07b      	b.n	10003cae <_ntoa_format+0x17a>
10003bb6:	9b0f      	ldr	r3, [sp, #60]	; 0x3c
10003bb8:	2b02      	cmp	r3, #2
10003bba:	d100      	bne.n	10003bbe <_ntoa_format+0x8a>
10003bbc:	e08c      	b.n	10003cd8 <_ntoa_format+0x1a4>
10003bbe:	2330      	movs	r3, #48	; 0x30
10003bc0:	9a0c      	ldr	r2, [sp, #48]	; 0x30
10003bc2:	2401      	movs	r4, #1
10003bc4:	7013      	strb	r3, [r2, #0]
10003bc6:	464b      	mov	r3, r9
10003bc8:	2b00      	cmp	r3, #0
10003bca:	d040      	beq.n	10003c4e <_ntoa_format+0x11a>
10003bcc:	232d      	movs	r3, #45	; 0x2d
10003bce:	9a0c      	ldr	r2, [sp, #48]	; 0x30
10003bd0:	5513      	strb	r3, [r2, r4]
10003bd2:	3401      	adds	r4, #1
10003bd4:	9b0c      	ldr	r3, [sp, #48]	; 0x30
10003bd6:	4662      	mov	r2, ip
10003bd8:	9300      	str	r3, [sp, #0]
10003bda:	9703      	str	r7, [sp, #12]
10003bdc:	4643      	mov	r3, r8
10003bde:	9602      	str	r6, [sp, #8]
10003be0:	9401      	str	r4, [sp, #4]
10003be2:	f7ff ff59 	bl	10003a98 <_out_rev>
10003be6:	b004      	add	sp, #16
10003be8:	bce0      	pop	{r5, r6, r7}
10003bea:	46ba      	mov	sl, r7
10003bec:	46b1      	mov	r9, r6
10003bee:	46a8      	mov	r8, r5
10003bf0:	bdf0      	pop	{r4, r5, r6, r7, pc}
10003bf2:	2201      	movs	r2, #1
10003bf4:	0015      	movs	r5, r2
10003bf6:	403d      	ands	r5, r7
10003bf8:	46aa      	mov	sl, r5
10003bfa:	423a      	tst	r2, r7
10003bfc:	d030      	beq.n	10003c60 <_ntoa_format+0x12c>
10003bfe:	464a      	mov	r2, r9
10003c00:	2a00      	cmp	r2, #0
10003c02:	d102      	bne.n	10003c0a <_ntoa_format+0xd6>
10003c04:	320c      	adds	r2, #12
10003c06:	423a      	tst	r2, r7
10003c08:	d000      	beq.n	10003c0c <_ntoa_format+0xd8>
10003c0a:	3e01      	subs	r6, #1
10003c0c:	429c      	cmp	r4, r3
10003c0e:	d2ba      	bcs.n	10003b86 <_ntoa_format+0x52>
10003c10:	2c1f      	cmp	r4, #31
10003c12:	d9ab      	bls.n	10003b6c <_ntoa_format+0x38>
10003c14:	2e20      	cmp	r6, #32
10003c16:	d928      	bls.n	10003c6a <_ntoa_format+0x136>
10003c18:	2420      	movs	r4, #32
10003c1a:	06fa      	lsls	r2, r7, #27
10003c1c:	d5da      	bpl.n	10003bd4 <_ntoa_format+0xa0>
10003c1e:	057a      	lsls	r2, r7, #21
10003c20:	d403      	bmi.n	10003c2a <_ntoa_format+0xf6>
10003c22:	42a3      	cmp	r3, r4
10003c24:	d02e      	beq.n	10003c84 <_ntoa_format+0x150>
10003c26:	42a6      	cmp	r6, r4
10003c28:	d02c      	beq.n	10003c84 <_ntoa_format+0x150>
10003c2a:	9b0f      	ldr	r3, [sp, #60]	; 0x3c
10003c2c:	2b10      	cmp	r3, #16
10003c2e:	d034      	beq.n	10003c9a <_ntoa_format+0x166>
10003c30:	9b0f      	ldr	r3, [sp, #60]	; 0x3c
10003c32:	2b02      	cmp	r3, #2
10003c34:	d020      	beq.n	10003c78 <_ntoa_format+0x144>
10003c36:	2c20      	cmp	r4, #32
10003c38:	d0cc      	beq.n	10003bd4 <_ntoa_format+0xa0>
10003c3a:	2230      	movs	r2, #48	; 0x30
10003c3c:	9b0c      	ldr	r3, [sp, #48]	; 0x30
10003c3e:	191b      	adds	r3, r3, r4
10003c40:	701a      	strb	r2, [r3, #0]
10003c42:	3401      	adds	r4, #1
10003c44:	2c20      	cmp	r4, #32
10003c46:	d0c5      	beq.n	10003bd4 <_ntoa_format+0xa0>
10003c48:	464b      	mov	r3, r9
10003c4a:	2b00      	cmp	r3, #0
10003c4c:	d1be      	bne.n	10003bcc <_ntoa_format+0x98>
10003c4e:	077b      	lsls	r3, r7, #29
10003c50:	d40d      	bmi.n	10003c6e <_ntoa_format+0x13a>
10003c52:	073b      	lsls	r3, r7, #28
10003c54:	d5be      	bpl.n	10003bd4 <_ntoa_format+0xa0>
10003c56:	2320      	movs	r3, #32
10003c58:	9a0c      	ldr	r2, [sp, #48]	; 0x30
10003c5a:	5513      	strb	r3, [r2, r4]
10003c5c:	3401      	adds	r4, #1
10003c5e:	e7b9      	b.n	10003bd4 <_ntoa_format+0xa0>
10003c60:	429c      	cmp	r4, r3
10003c62:	d29e      	bcs.n	10003ba2 <_ntoa_format+0x6e>
10003c64:	2c1f      	cmp	r4, #31
10003c66:	d800      	bhi.n	10003c6a <_ntoa_format+0x136>
10003c68:	e780      	b.n	10003b6c <_ntoa_format+0x38>
10003c6a:	2420      	movs	r4, #32
10003c6c:	e799      	b.n	10003ba2 <_ntoa_format+0x6e>
10003c6e:	232b      	movs	r3, #43	; 0x2b
10003c70:	9a0c      	ldr	r2, [sp, #48]	; 0x30
10003c72:	5513      	strb	r3, [r2, r4]
10003c74:	3401      	adds	r4, #1
10003c76:	e7ad      	b.n	10003bd4 <_ntoa_format+0xa0>
10003c78:	2c20      	cmp	r4, #32
10003c7a:	d0ab      	beq.n	10003bd4 <_ntoa_format+0xa0>
10003c7c:	9b0c      	ldr	r3, [sp, #48]	; 0x30
10003c7e:	191b      	adds	r3, r3, r4
10003c80:	3401      	adds	r4, #1
10003c82:	e03b      	b.n	10003cfc <_ntoa_format+0x1c8>
10003c84:	1e63      	subs	r3, r4, #1
10003c86:	2c01      	cmp	r4, #1
10003c88:	d091      	beq.n	10003bae <_ntoa_format+0x7a>
10003c8a:	9a0f      	ldr	r2, [sp, #60]	; 0x3c
10003c8c:	2a10      	cmp	r2, #16
10003c8e:	d02b      	beq.n	10003ce8 <_ntoa_format+0x1b4>
10003c90:	9a0f      	ldr	r2, [sp, #60]	; 0x3c
10003c92:	2a02      	cmp	r2, #2
10003c94:	d02f      	beq.n	10003cf6 <_ntoa_format+0x1c2>
10003c96:	001c      	movs	r4, r3
10003c98:	e7cf      	b.n	10003c3a <_ntoa_format+0x106>
10003c9a:	06bb      	lsls	r3, r7, #26
10003c9c:	d40e      	bmi.n	10003cbc <_ntoa_format+0x188>
10003c9e:	2c20      	cmp	r4, #32
10003ca0:	d098      	beq.n	10003bd4 <_ntoa_format+0xa0>
10003ca2:	9b0c      	ldr	r3, [sp, #48]	; 0x30
10003ca4:	191a      	adds	r2, r3, r4
10003ca6:	3401      	adds	r4, #1
10003ca8:	2378      	movs	r3, #120	; 0x78
10003caa:	7013      	strb	r3, [r2, #0]
10003cac:	e7c3      	b.n	10003c36 <_ntoa_format+0x102>
10003cae:	06bb      	lsls	r3, r7, #26
10003cb0:	d40d      	bmi.n	10003cce <_ntoa_format+0x19a>
10003cb2:	2378      	movs	r3, #120	; 0x78
10003cb4:	9a0c      	ldr	r2, [sp, #48]	; 0x30
10003cb6:	2401      	movs	r4, #1
10003cb8:	7013      	strb	r3, [r2, #0]
10003cba:	e7be      	b.n	10003c3a <_ntoa_format+0x106>
10003cbc:	2c20      	cmp	r4, #32
10003cbe:	d100      	bne.n	10003cc2 <_ntoa_format+0x18e>
10003cc0:	e788      	b.n	10003bd4 <_ntoa_format+0xa0>
10003cc2:	2258      	movs	r2, #88	; 0x58
10003cc4:	9b0c      	ldr	r3, [sp, #48]	; 0x30
10003cc6:	191b      	adds	r3, r3, r4
10003cc8:	701a      	strb	r2, [r3, #0]
10003cca:	3401      	adds	r4, #1
10003ccc:	e7b3      	b.n	10003c36 <_ntoa_format+0x102>
10003cce:	2358      	movs	r3, #88	; 0x58
10003cd0:	9a0c      	ldr	r2, [sp, #48]	; 0x30
10003cd2:	2401      	movs	r4, #1
10003cd4:	7013      	strb	r3, [r2, #0]
10003cd6:	e7b0      	b.n	10003c3a <_ntoa_format+0x106>
10003cd8:	9a0c      	ldr	r2, [sp, #48]	; 0x30
10003cda:	3360      	adds	r3, #96	; 0x60
10003cdc:	2401      	movs	r4, #1
10003cde:	7013      	strb	r3, [r2, #0]
10003ce0:	e7ab      	b.n	10003c3a <_ntoa_format+0x106>
10003ce2:	2420      	movs	r4, #32
10003ce4:	2600      	movs	r6, #0
10003ce6:	e75c      	b.n	10003ba2 <_ntoa_format+0x6e>
10003ce8:	3c02      	subs	r4, #2
10003cea:	06ba      	lsls	r2, r7, #26
10003cec:	d4e9      	bmi.n	10003cc2 <_ntoa_format+0x18e>
10003cee:	9a0c      	ldr	r2, [sp, #48]	; 0x30
10003cf0:	1912      	adds	r2, r2, r4
10003cf2:	001c      	movs	r4, r3
10003cf4:	e7d8      	b.n	10003ca8 <_ntoa_format+0x174>
10003cf6:	9a0c      	ldr	r2, [sp, #48]	; 0x30
10003cf8:	4692      	mov	sl, r2
10003cfa:	4453      	add	r3, sl
10003cfc:	2262      	movs	r2, #98	; 0x62
10003cfe:	701a      	strb	r2, [r3, #0]
10003d00:	e799      	b.n	10003c36 <_ntoa_format+0x102>
10003d02:	46c0      	nop			; (mov r8, r8)

10003d04 <_ntoa_long>:
10003d04:	b5f0      	push	{r4, r5, r6, r7, lr}
10003d06:	464e      	mov	r6, r9
10003d08:	46de      	mov	lr, fp
10003d0a:	4657      	mov	r7, sl
10003d0c:	4645      	mov	r5, r8
10003d0e:	b5e0      	push	{r5, r6, r7, lr}
10003d10:	b093      	sub	sp, #76	; 0x4c
10003d12:	469b      	mov	fp, r3
10003d14:	ab1c      	add	r3, sp, #112	; 0x70
10003d16:	cb20      	ldmia	r3!, {r5}
10003d18:	4689      	mov	r9, r1
10003d1a:	781b      	ldrb	r3, [r3, #0]
10003d1c:	4692      	mov	sl, r2
10003d1e:	9e1e      	ldr	r6, [sp, #120]	; 0x78
10003d20:	9008      	str	r0, [sp, #32]
10003d22:	9309      	str	r3, [sp, #36]	; 0x24
10003d24:	2d00      	cmp	r5, #0
10003d26:	d108      	bne.n	10003d3a <_ntoa_long+0x36>
10003d28:	2310      	movs	r3, #16
10003d2a:	9a21      	ldr	r2, [sp, #132]	; 0x84
10003d2c:	2400      	movs	r4, #0
10003d2e:	439a      	bics	r2, r3
10003d30:	0013      	movs	r3, r2
10003d32:	9a21      	ldr	r2, [sp, #132]	; 0x84
10003d34:	9321      	str	r3, [sp, #132]	; 0x84
10003d36:	0552      	lsls	r2, r2, #21
10003d38:	d424      	bmi.n	10003d84 <_ntoa_long+0x80>
10003d3a:	9a21      	ldr	r2, [sp, #132]	; 0x84
10003d3c:	2361      	movs	r3, #97	; 0x61
10003d3e:	0692      	lsls	r2, r2, #26
10003d40:	d439      	bmi.n	10003db6 <_ntoa_long+0xb2>
10003d42:	aa02      	add	r2, sp, #8
10003d44:	4694      	mov	ip, r2
10003d46:	220a      	movs	r2, #10
10003d48:	4252      	negs	r2, r2
10003d4a:	271f      	movs	r7, #31
10003d4c:	4690      	mov	r8, r2
10003d4e:	b2db      	uxtb	r3, r3
10003d50:	2400      	movs	r4, #0
10003d52:	4467      	add	r7, ip
10003d54:	4498      	add	r8, r3
10003d56:	e008      	b.n	10003d6a <_ntoa_long+0x66>
10003d58:	3330      	adds	r3, #48	; 0x30
10003d5a:	b2db      	uxtb	r3, r3
10003d5c:	3401      	adds	r4, #1
10003d5e:	553b      	strb	r3, [r7, r4]
10003d60:	42b5      	cmp	r5, r6
10003d62:	d30f      	bcc.n	10003d84 <_ntoa_long+0x80>
10003d64:	2c20      	cmp	r4, #32
10003d66:	d00d      	beq.n	10003d84 <_ntoa_long+0x80>
10003d68:	0005      	movs	r5, r0
10003d6a:	0031      	movs	r1, r6
10003d6c:	0028      	movs	r0, r5
10003d6e:	f7ff f813 	bl	10002d98 <__wrap___aeabi_uidiv>
10003d72:	b2cb      	uxtb	r3, r1
10003d74:	2909      	cmp	r1, #9
10003d76:	d9ef      	bls.n	10003d58 <_ntoa_long+0x54>
10003d78:	4443      	add	r3, r8
10003d7a:	b2db      	uxtb	r3, r3
10003d7c:	3401      	adds	r4, #1
10003d7e:	553b      	strb	r3, [r7, r4]
10003d80:	42b5      	cmp	r5, r6
10003d82:	d2ef      	bcs.n	10003d64 <_ntoa_long+0x60>
10003d84:	9b21      	ldr	r3, [sp, #132]	; 0x84
10003d86:	4652      	mov	r2, sl
10003d88:	9306      	str	r3, [sp, #24]
10003d8a:	9b20      	ldr	r3, [sp, #128]	; 0x80
10003d8c:	4649      	mov	r1, r9
10003d8e:	9305      	str	r3, [sp, #20]
10003d90:	9b1f      	ldr	r3, [sp, #124]	; 0x7c
10003d92:	9808      	ldr	r0, [sp, #32]
10003d94:	9304      	str	r3, [sp, #16]
10003d96:	9b09      	ldr	r3, [sp, #36]	; 0x24
10003d98:	9603      	str	r6, [sp, #12]
10003d9a:	9302      	str	r3, [sp, #8]
10003d9c:	ab0a      	add	r3, sp, #40	; 0x28
10003d9e:	9300      	str	r3, [sp, #0]
10003da0:	9401      	str	r4, [sp, #4]
10003da2:	465b      	mov	r3, fp
10003da4:	f7ff fec6 	bl	10003b34 <_ntoa_format>
10003da8:	b013      	add	sp, #76	; 0x4c
10003daa:	bcf0      	pop	{r4, r5, r6, r7}
10003dac:	46bb      	mov	fp, r7
10003dae:	46b2      	mov	sl, r6
10003db0:	46a9      	mov	r9, r5
10003db2:	46a0      	mov	r8, r4
10003db4:	bdf0      	pop	{r4, r5, r6, r7, pc}
10003db6:	2341      	movs	r3, #65	; 0x41
10003db8:	e7c3      	b.n	10003d42 <_ntoa_long+0x3e>
10003dba:	46c0      	nop			; (mov r8, r8)

10003dbc <_ntoa_long_long>:
10003dbc:	b5f0      	push	{r4, r5, r6, r7, lr}
10003dbe:	464e      	mov	r6, r9
10003dc0:	4645      	mov	r5, r8
10003dc2:	46de      	mov	lr, fp
10003dc4:	4657      	mov	r7, sl
10003dc6:	b5e0      	push	{r5, r6, r7, lr}
10003dc8:	b095      	sub	sp, #84	; 0x54
10003dca:	469b      	mov	fp, r3
10003dcc:	ab20      	add	r3, sp, #128	; 0x80
10003dce:	781b      	ldrb	r3, [r3, #0]
10003dd0:	9f1e      	ldr	r7, [sp, #120]	; 0x78
10003dd2:	930b      	str	r3, [sp, #44]	; 0x2c
10003dd4:	9b22      	ldr	r3, [sp, #136]	; 0x88
10003dd6:	9d1f      	ldr	r5, [sp, #124]	; 0x7c
10003dd8:	4699      	mov	r9, r3
10003dda:	003b      	movs	r3, r7
10003ddc:	4680      	mov	r8, r0
10003dde:	9e23      	ldr	r6, [sp, #140]	; 0x8c
10003de0:	9109      	str	r1, [sp, #36]	; 0x24
10003de2:	920a      	str	r2, [sp, #40]	; 0x28
10003de4:	432b      	orrs	r3, r5
10003de6:	d108      	bne.n	10003dfa <_ntoa_long_long+0x3e>
10003de8:	9a26      	ldr	r2, [sp, #152]	; 0x98
10003dea:	3310      	adds	r3, #16
10003dec:	439a      	bics	r2, r3
10003dee:	0013      	movs	r3, r2
10003df0:	9a26      	ldr	r2, [sp, #152]	; 0x98
10003df2:	2400      	movs	r4, #0
10003df4:	9326      	str	r3, [sp, #152]	; 0x98
10003df6:	0552      	lsls	r2, r2, #21
10003df8:	d42c      	bmi.n	10003e54 <_ntoa_long_long+0x98>
10003dfa:	9a26      	ldr	r2, [sp, #152]	; 0x98
10003dfc:	2361      	movs	r3, #97	; 0x61
10003dfe:	0692      	lsls	r2, r2, #26
10003e00:	d442      	bmi.n	10003e88 <_ntoa_long_long+0xcc>
10003e02:	220a      	movs	r2, #10
10003e04:	4252      	negs	r2, r2
10003e06:	4692      	mov	sl, r2
10003e08:	b2db      	uxtb	r3, r3
10003e0a:	2400      	movs	r4, #0
10003e0c:	449a      	add	sl, r3
10003e0e:	e00e      	b.n	10003e2e <_ntoa_long_long+0x72>
10003e10:	211f      	movs	r1, #31
10003e12:	3230      	adds	r2, #48	; 0x30
10003e14:	ab04      	add	r3, sp, #16
10003e16:	b2d2      	uxtb	r2, r2
10003e18:	3401      	adds	r4, #1
10003e1a:	185b      	adds	r3, r3, r1
10003e1c:	551a      	strb	r2, [r3, r4]
10003e1e:	42ae      	cmp	r6, r5
10003e20:	d818      	bhi.n	10003e54 <_ntoa_long_long+0x98>
10003e22:	42ae      	cmp	r6, r5
10003e24:	d032      	beq.n	10003e8c <_ntoa_long_long+0xd0>
10003e26:	2c20      	cmp	r4, #32
10003e28:	d014      	beq.n	10003e54 <_ntoa_long_long+0x98>
10003e2a:	0007      	movs	r7, r0
10003e2c:	4665      	mov	r5, ip
10003e2e:	464a      	mov	r2, r9
10003e30:	0033      	movs	r3, r6
10003e32:	0038      	movs	r0, r7
10003e34:	0029      	movs	r1, r5
10003e36:	f7fe ffed 	bl	10002e14 <__wrap___aeabi_uldivmod>
10003e3a:	b2d2      	uxtb	r2, r2
10003e3c:	468c      	mov	ip, r1
10003e3e:	2a09      	cmp	r2, #9
10003e40:	d9e6      	bls.n	10003e10 <_ntoa_long_long+0x54>
10003e42:	211f      	movs	r1, #31
10003e44:	4452      	add	r2, sl
10003e46:	ab04      	add	r3, sp, #16
10003e48:	b2d2      	uxtb	r2, r2
10003e4a:	3401      	adds	r4, #1
10003e4c:	185b      	adds	r3, r3, r1
10003e4e:	551a      	strb	r2, [r3, r4]
10003e50:	42ae      	cmp	r6, r5
10003e52:	d9e6      	bls.n	10003e22 <_ntoa_long_long+0x66>
10003e54:	9b26      	ldr	r3, [sp, #152]	; 0x98
10003e56:	4640      	mov	r0, r8
10003e58:	9306      	str	r3, [sp, #24]
10003e5a:	9b25      	ldr	r3, [sp, #148]	; 0x94
10003e5c:	9a0a      	ldr	r2, [sp, #40]	; 0x28
10003e5e:	9305      	str	r3, [sp, #20]
10003e60:	9b24      	ldr	r3, [sp, #144]	; 0x90
10003e62:	9909      	ldr	r1, [sp, #36]	; 0x24
10003e64:	9304      	str	r3, [sp, #16]
10003e66:	464b      	mov	r3, r9
10003e68:	9303      	str	r3, [sp, #12]
10003e6a:	9b0b      	ldr	r3, [sp, #44]	; 0x2c
10003e6c:	9401      	str	r4, [sp, #4]
10003e6e:	9302      	str	r3, [sp, #8]
10003e70:	ab0c      	add	r3, sp, #48	; 0x30
10003e72:	9300      	str	r3, [sp, #0]
10003e74:	465b      	mov	r3, fp
10003e76:	f7ff fe5d 	bl	10003b34 <_ntoa_format>
10003e7a:	b015      	add	sp, #84	; 0x54
10003e7c:	bcf0      	pop	{r4, r5, r6, r7}
10003e7e:	46bb      	mov	fp, r7
10003e80:	46b2      	mov	sl, r6
10003e82:	46a9      	mov	r9, r5
10003e84:	46a0      	mov	r8, r4
10003e86:	bdf0      	pop	{r4, r5, r6, r7, pc}
10003e88:	2341      	movs	r3, #65	; 0x41
10003e8a:	e7ba      	b.n	10003e02 <_ntoa_long_long+0x46>
10003e8c:	45b9      	cmp	r9, r7
10003e8e:	d9ca      	bls.n	10003e26 <_ntoa_long_long+0x6a>
10003e90:	e7e0      	b.n	10003e54 <_ntoa_long_long+0x98>
10003e92:	46c0      	nop			; (mov r8, r8)

10003e94 <_etoa>:
10003e94:	b5f0      	push	{r4, r5, r6, r7, lr}
10003e96:	46de      	mov	lr, fp
10003e98:	4657      	mov	r7, sl
10003e9a:	464e      	mov	r6, r9
10003e9c:	4645      	mov	r5, r8
10003e9e:	b5e0      	push	{r5, r6, r7, lr}
10003ea0:	b091      	sub	sp, #68	; 0x44
10003ea2:	469a      	mov	sl, r3
10003ea4:	9b1a      	ldr	r3, [sp, #104]	; 0x68
10003ea6:	468b      	mov	fp, r1
10003ea8:	4699      	mov	r9, r3
10003eaa:	9b1b      	ldr	r3, [sp, #108]	; 0x6c
10003eac:	9007      	str	r0, [sp, #28]
10003eae:	4698      	mov	r8, r3
10003eb0:	9208      	str	r2, [sp, #32]
10003eb2:	4643      	mov	r3, r8
10003eb4:	464a      	mov	r2, r9
10003eb6:	4648      	mov	r0, r9
10003eb8:	4641      	mov	r1, r8
10003eba:	f7ff fa36 	bl	1000332a <__wrap___aeabi_dcmpun>
10003ebe:	2800      	cmp	r0, #0
10003ec0:	d000      	beq.n	10003ec4 <_etoa+0x30>
10003ec2:	e0a5      	b.n	10004010 <_etoa+0x17c>
10003ec4:	2201      	movs	r2, #1
10003ec6:	4648      	mov	r0, r9
10003ec8:	4641      	mov	r1, r8
10003eca:	4bd7      	ldr	r3, [pc, #860]	; (10004228 <_etoa+0x394>)
10003ecc:	4252      	negs	r2, r2
10003ece:	f7ff fa27 	bl	10003320 <__wrap___aeabi_dcmpgt>
10003ed2:	2800      	cmp	r0, #0
10003ed4:	d000      	beq.n	10003ed8 <_etoa+0x44>
10003ed6:	e09b      	b.n	10004010 <_etoa+0x17c>
10003ed8:	2201      	movs	r2, #1
10003eda:	4648      	mov	r0, r9
10003edc:	4641      	mov	r1, r8
10003ede:	4bd3      	ldr	r3, [pc, #844]	; (1000422c <_etoa+0x398>)
10003ee0:	4252      	negs	r2, r2
10003ee2:	f7ff fa07 	bl	100032f4 <__wrap___aeabi_dcmplt>
10003ee6:	2800      	cmp	r0, #0
10003ee8:	d000      	beq.n	10003eec <_etoa+0x58>
10003eea:	e091      	b.n	10004010 <_etoa+0x17c>
10003eec:	2200      	movs	r2, #0
10003eee:	2300      	movs	r3, #0
10003ef0:	4648      	mov	r0, r9
10003ef2:	4641      	mov	r1, r8
10003ef4:	f7ff f9fe 	bl	100032f4 <__wrap___aeabi_dcmplt>
10003ef8:	2800      	cmp	r0, #0
10003efa:	d000      	beq.n	10003efe <_etoa+0x6a>
10003efc:	e18b      	b.n	10004216 <_etoa+0x382>
10003efe:	464e      	mov	r6, r9
10003f00:	4647      	mov	r7, r8
10003f02:	2380      	movs	r3, #128	; 0x80
10003f04:	9a1e      	ldr	r2, [sp, #120]	; 0x78
10003f06:	00db      	lsls	r3, r3, #3
10003f08:	401a      	ands	r2, r3
10003f0a:	920d      	str	r2, [sp, #52]	; 0x34
10003f0c:	9a1e      	ldr	r2, [sp, #120]	; 0x78
10003f0e:	421a      	tst	r2, r3
10003f10:	d101      	bne.n	10003f16 <_etoa+0x82>
10003f12:	2306      	movs	r3, #6
10003f14:	931c      	str	r3, [sp, #112]	; 0x70
10003f16:	0033      	movs	r3, r6
10003f18:	960a      	str	r6, [sp, #40]	; 0x28
10003f1a:	970b      	str	r7, [sp, #44]	; 0x2c
10003f1c:	433b      	orrs	r3, r7
10003f1e:	d000      	beq.n	10003f22 <_etoa+0x8e>
10003f20:	e08f      	b.n	10004042 <_etoa+0x1ae>
10003f22:	9b1e      	ldr	r3, [sp, #120]	; 0x78
10003f24:	051b      	lsls	r3, r3, #20
10003f26:	d500      	bpl.n	10003f2a <_etoa+0x96>
10003f28:	e163      	b.n	100041f2 <_etoa+0x35e>
10003f2a:	2300      	movs	r3, #0
10003f2c:	2404      	movs	r4, #4
10003f2e:	9309      	str	r3, [sp, #36]	; 0x24
10003f30:	9b1d      	ldr	r3, [sp, #116]	; 0x74
10003f32:	2500      	movs	r5, #0
10003f34:	429c      	cmp	r4, r3
10003f36:	d200      	bcs.n	10003f3a <_etoa+0xa6>
10003f38:	1b1d      	subs	r5, r3, r4
10003f3a:	2302      	movs	r3, #2
10003f3c:	9a1e      	ldr	r2, [sp, #120]	; 0x78
10003f3e:	401a      	ands	r2, r3
10003f40:	920c      	str	r2, [sp, #48]	; 0x30
10003f42:	9a1e      	ldr	r2, [sp, #120]	; 0x78
10003f44:	4213      	tst	r3, r2
10003f46:	d003      	beq.n	10003f50 <_etoa+0xbc>
10003f48:	4263      	negs	r3, r4
10003f4a:	4163      	adcs	r3, r4
10003f4c:	425b      	negs	r3, r3
10003f4e:	401d      	ands	r5, r3
10003f50:	9b09      	ldr	r3, [sp, #36]	; 0x24
10003f52:	2b00      	cmp	r3, #0
10003f54:	d007      	beq.n	10003f66 <_etoa+0xd2>
10003f56:	9a0a      	ldr	r2, [sp, #40]	; 0x28
10003f58:	9b0b      	ldr	r3, [sp, #44]	; 0x2c
10003f5a:	0030      	movs	r0, r6
10003f5c:	0039      	movs	r1, r7
10003f5e:	f7ff f968 	bl	10003232 <__wrap___aeabi_ddiv>
10003f62:	0006      	movs	r6, r0
10003f64:	000f      	movs	r7, r1
10003f66:	2200      	movs	r2, #0
10003f68:	2300      	movs	r3, #0
10003f6a:	4648      	mov	r0, r9
10003f6c:	4641      	mov	r1, r8
10003f6e:	f7ff f9c1 	bl	100032f4 <__wrap___aeabi_dcmplt>
10003f72:	2800      	cmp	r0, #0
10003f74:	d003      	beq.n	10003f7e <_etoa+0xea>
10003f76:	2180      	movs	r1, #128	; 0x80
10003f78:	0609      	lsls	r1, r1, #24
10003f7a:	187b      	adds	r3, r7, r1
10003f7c:	001f      	movs	r7, r3
10003f7e:	9a1e      	ldr	r2, [sp, #120]	; 0x78
10003f80:	4bab      	ldr	r3, [pc, #684]	; (10004230 <_etoa+0x39c>)
10003f82:	9600      	str	r6, [sp, #0]
10003f84:	9701      	str	r7, [sp, #4]
10003f86:	4013      	ands	r3, r2
10003f88:	9e07      	ldr	r6, [sp, #28]
10003f8a:	9304      	str	r3, [sp, #16]
10003f8c:	9b1c      	ldr	r3, [sp, #112]	; 0x70
10003f8e:	9a08      	ldr	r2, [sp, #32]
10003f90:	9503      	str	r5, [sp, #12]
10003f92:	9302      	str	r3, [sp, #8]
10003f94:	4659      	mov	r1, fp
10003f96:	4653      	mov	r3, sl
10003f98:	0030      	movs	r0, r6
10003f9a:	4690      	mov	r8, r2
10003f9c:	f000 f978 	bl	10004290 <_ftoa>
10003fa0:	0005      	movs	r5, r0
10003fa2:	2c00      	cmp	r4, #0
10003fa4:	d045      	beq.n	10004032 <_etoa+0x19e>
10003fa6:	9b1e      	ldr	r3, [sp, #120]	; 0x78
10003fa8:	002a      	movs	r2, r5
10003faa:	0698      	lsls	r0, r3, #26
10003fac:	231f      	movs	r3, #31
10003fae:	17c0      	asrs	r0, r0, #31
10003fb0:	4398      	bics	r0, r3
10003fb2:	4659      	mov	r1, fp
10003fb4:	4653      	mov	r3, sl
10003fb6:	3065      	adds	r0, #101	; 0x65
10003fb8:	47b0      	blx	r6
10003fba:	2305      	movs	r3, #5
10003fbc:	9305      	str	r3, [sp, #20]
10003fbe:	2300      	movs	r3, #0
10003fc0:	9909      	ldr	r1, [sp, #36]	; 0x24
10003fc2:	9303      	str	r3, [sp, #12]
10003fc4:	330a      	adds	r3, #10
10003fc6:	9302      	str	r3, [sp, #8]
10003fc8:	0fcb      	lsrs	r3, r1, #31
10003fca:	9301      	str	r3, [sp, #4]
10003fcc:	17cb      	asrs	r3, r1, #31
10003fce:	18c8      	adds	r0, r1, r3
10003fd0:	4058      	eors	r0, r3
10003fd2:	1c6f      	adds	r7, r5, #1
10003fd4:	3c01      	subs	r4, #1
10003fd6:	4653      	mov	r3, sl
10003fd8:	9000      	str	r0, [sp, #0]
10003fda:	003a      	movs	r2, r7
10003fdc:	4659      	mov	r1, fp
10003fde:	0030      	movs	r0, r6
10003fe0:	9404      	str	r4, [sp, #16]
10003fe2:	f7ff fe8f 	bl	10003d04 <_ntoa_long>
10003fe6:	9b0c      	ldr	r3, [sp, #48]	; 0x30
10003fe8:	0005      	movs	r5, r0
10003fea:	2b00      	cmp	r3, #0
10003fec:	d021      	beq.n	10004032 <_etoa+0x19e>
10003fee:	4643      	mov	r3, r8
10003ff0:	1ac4      	subs	r4, r0, r3
10003ff2:	9b1d      	ldr	r3, [sp, #116]	; 0x74
10003ff4:	42a3      	cmp	r3, r4
10003ff6:	d91c      	bls.n	10004032 <_etoa+0x19e>
10003ff8:	0037      	movs	r7, r6
10003ffa:	001e      	movs	r6, r3
10003ffc:	002a      	movs	r2, r5
10003ffe:	4653      	mov	r3, sl
10004000:	4659      	mov	r1, fp
10004002:	2020      	movs	r0, #32
10004004:	3401      	adds	r4, #1
10004006:	47b8      	blx	r7
10004008:	3501      	adds	r5, #1
1000400a:	42b4      	cmp	r4, r6
1000400c:	d3f6      	bcc.n	10003ffc <_etoa+0x168>
1000400e:	e010      	b.n	10004032 <_etoa+0x19e>
10004010:	9b1e      	ldr	r3, [sp, #120]	; 0x78
10004012:	464a      	mov	r2, r9
10004014:	9304      	str	r3, [sp, #16]
10004016:	9b1d      	ldr	r3, [sp, #116]	; 0x74
10004018:	4659      	mov	r1, fp
1000401a:	9303      	str	r3, [sp, #12]
1000401c:	9b1c      	ldr	r3, [sp, #112]	; 0x70
1000401e:	9807      	ldr	r0, [sp, #28]
10004020:	9302      	str	r3, [sp, #8]
10004022:	4643      	mov	r3, r8
10004024:	9200      	str	r2, [sp, #0]
10004026:	9301      	str	r3, [sp, #4]
10004028:	4653      	mov	r3, sl
1000402a:	9a08      	ldr	r2, [sp, #32]
1000402c:	f000 f930 	bl	10004290 <_ftoa>
10004030:	0005      	movs	r5, r0
10004032:	0028      	movs	r0, r5
10004034:	b011      	add	sp, #68	; 0x44
10004036:	bcf0      	pop	{r4, r5, r6, r7}
10004038:	46bb      	mov	fp, r7
1000403a:	46b2      	mov	sl, r6
1000403c:	46a9      	mov	r9, r5
1000403e:	46a0      	mov	r8, r4
10004040:	bdf0      	pop	{r4, r5, r6, r7, pc}
10004042:	4b7c      	ldr	r3, [pc, #496]	; (10004234 <_etoa+0x3a0>)
10004044:	0078      	lsls	r0, r7, #1
10004046:	469c      	mov	ip, r3
10004048:	0d40      	lsrs	r0, r0, #21
1000404a:	4460      	add	r0, ip
1000404c:	f7ff f97e 	bl	1000334c <__wrap___aeabi_i2d>
10004050:	4a79      	ldr	r2, [pc, #484]	; (10004238 <_etoa+0x3a4>)
10004052:	4b7a      	ldr	r3, [pc, #488]	; (1000423c <_etoa+0x3a8>)
10004054:	f7ff f90b 	bl	1000326e <__wrap___aeabi_dmul>
10004058:	4a79      	ldr	r2, [pc, #484]	; (10004240 <_etoa+0x3ac>)
1000405a:	4b7a      	ldr	r3, [pc, #488]	; (10004244 <_etoa+0x3b0>)
1000405c:	f7ff f8e0 	bl	10003220 <__wrap___aeabi_dadd>
10004060:	4a79      	ldr	r2, [pc, #484]	; (10004248 <_etoa+0x3b4>)
10004062:	033b      	lsls	r3, r7, #12
10004064:	0b1b      	lsrs	r3, r3, #12
10004066:	431a      	orrs	r2, r3
10004068:	0004      	movs	r4, r0
1000406a:	000d      	movs	r5, r1
1000406c:	980a      	ldr	r0, [sp, #40]	; 0x28
1000406e:	0011      	movs	r1, r2
10004070:	4b76      	ldr	r3, [pc, #472]	; (1000424c <_etoa+0x3b8>)
10004072:	2200      	movs	r2, #0
10004074:	f7ff f8cb 	bl	1000320e <__wrap___aeabi_dsub>
10004078:	4a75      	ldr	r2, [pc, #468]	; (10004250 <_etoa+0x3bc>)
1000407a:	4b76      	ldr	r3, [pc, #472]	; (10004254 <_etoa+0x3c0>)
1000407c:	f7ff f8f7 	bl	1000326e <__wrap___aeabi_dmul>
10004080:	0002      	movs	r2, r0
10004082:	000b      	movs	r3, r1
10004084:	0020      	movs	r0, r4
10004086:	0029      	movs	r1, r5
10004088:	f7ff f8ca 	bl	10003220 <__wrap___aeabi_dadd>
1000408c:	f7ff f976 	bl	1000337c <__wrap___aeabi_d2iz>
10004090:	9009      	str	r0, [sp, #36]	; 0x24
10004092:	f7ff f95b 	bl	1000334c <__wrap___aeabi_i2d>
10004096:	4a70      	ldr	r2, [pc, #448]	; (10004258 <_etoa+0x3c4>)
10004098:	4b70      	ldr	r3, [pc, #448]	; (1000425c <_etoa+0x3c8>)
1000409a:	0004      	movs	r4, r0
1000409c:	000d      	movs	r5, r1
1000409e:	f7ff f8e6 	bl	1000326e <__wrap___aeabi_dmul>
100040a2:	2200      	movs	r2, #0
100040a4:	4b6e      	ldr	r3, [pc, #440]	; (10004260 <_etoa+0x3cc>)
100040a6:	f7ff f8bb 	bl	10003220 <__wrap___aeabi_dadd>
100040aa:	f7ff f967 	bl	1000337c <__wrap___aeabi_d2iz>
100040ae:	4a6d      	ldr	r2, [pc, #436]	; (10004264 <_etoa+0x3d0>)
100040b0:	4b6d      	ldr	r3, [pc, #436]	; (10004268 <_etoa+0x3d4>)
100040b2:	0029      	movs	r1, r5
100040b4:	900c      	str	r0, [sp, #48]	; 0x30
100040b6:	0020      	movs	r0, r4
100040b8:	f7ff f8d9 	bl	1000326e <__wrap___aeabi_dmul>
100040bc:	0004      	movs	r4, r0
100040be:	980c      	ldr	r0, [sp, #48]	; 0x30
100040c0:	000d      	movs	r5, r1
100040c2:	f7ff f943 	bl	1000334c <__wrap___aeabi_i2d>
100040c6:	4a69      	ldr	r2, [pc, #420]	; (1000426c <_etoa+0x3d8>)
100040c8:	4b69      	ldr	r3, [pc, #420]	; (10004270 <_etoa+0x3dc>)
100040ca:	f7ff f8d0 	bl	1000326e <__wrap___aeabi_dmul>
100040ce:	0002      	movs	r2, r0
100040d0:	000b      	movs	r3, r1
100040d2:	0020      	movs	r0, r4
100040d4:	0029      	movs	r1, r5
100040d6:	f7ff f89a 	bl	1000320e <__wrap___aeabi_dsub>
100040da:	0002      	movs	r2, r0
100040dc:	000b      	movs	r3, r1
100040de:	0004      	movs	r4, r0
100040e0:	000d      	movs	r5, r1
100040e2:	f7ff f8c4 	bl	1000326e <__wrap___aeabi_dmul>
100040e6:	0022      	movs	r2, r4
100040e8:	002b      	movs	r3, r5
100040ea:	900a      	str	r0, [sp, #40]	; 0x28
100040ec:	910b      	str	r1, [sp, #44]	; 0x2c
100040ee:	0020      	movs	r0, r4
100040f0:	0029      	movs	r1, r5
100040f2:	f7ff f895 	bl	10003220 <__wrap___aeabi_dadd>
100040f6:	2200      	movs	r2, #0
100040f8:	900e      	str	r0, [sp, #56]	; 0x38
100040fa:	910f      	str	r1, [sp, #60]	; 0x3c
100040fc:	980a      	ldr	r0, [sp, #40]	; 0x28
100040fe:	990b      	ldr	r1, [sp, #44]	; 0x2c
10004100:	4b5c      	ldr	r3, [pc, #368]	; (10004274 <_etoa+0x3e0>)
10004102:	f7ff f896 	bl	10003232 <__wrap___aeabi_ddiv>
10004106:	2200      	movs	r2, #0
10004108:	4b5b      	ldr	r3, [pc, #364]	; (10004278 <_etoa+0x3e4>)
1000410a:	f7ff f889 	bl	10003220 <__wrap___aeabi_dadd>
1000410e:	0002      	movs	r2, r0
10004110:	000b      	movs	r3, r1
10004112:	980a      	ldr	r0, [sp, #40]	; 0x28
10004114:	990b      	ldr	r1, [sp, #44]	; 0x2c
10004116:	f7ff f88c 	bl	10003232 <__wrap___aeabi_ddiv>
1000411a:	2200      	movs	r2, #0
1000411c:	4b57      	ldr	r3, [pc, #348]	; (1000427c <_etoa+0x3e8>)
1000411e:	f7ff f87f 	bl	10003220 <__wrap___aeabi_dadd>
10004122:	0002      	movs	r2, r0
10004124:	000b      	movs	r3, r1
10004126:	980a      	ldr	r0, [sp, #40]	; 0x28
10004128:	990b      	ldr	r1, [sp, #44]	; 0x2c
1000412a:	f7ff f882 	bl	10003232 <__wrap___aeabi_ddiv>
1000412e:	900a      	str	r0, [sp, #40]	; 0x28
10004130:	910b      	str	r1, [sp, #44]	; 0x2c
10004132:	2180      	movs	r1, #128	; 0x80
10004134:	0022      	movs	r2, r4
10004136:	002b      	movs	r3, r5
10004138:	2000      	movs	r0, #0
1000413a:	05c9      	lsls	r1, r1, #23
1000413c:	f7ff f867 	bl	1000320e <__wrap___aeabi_dsub>
10004140:	0002      	movs	r2, r0
10004142:	000b      	movs	r3, r1
10004144:	980a      	ldr	r0, [sp, #40]	; 0x28
10004146:	990b      	ldr	r1, [sp, #44]	; 0x2c
10004148:	f7ff f86a 	bl	10003220 <__wrap___aeabi_dadd>
1000414c:	0002      	movs	r2, r0
1000414e:	000b      	movs	r3, r1
10004150:	980e      	ldr	r0, [sp, #56]	; 0x38
10004152:	990f      	ldr	r1, [sp, #60]	; 0x3c
10004154:	f7ff f86d 	bl	10003232 <__wrap___aeabi_ddiv>
10004158:	2200      	movs	r2, #0
1000415a:	4b3b      	ldr	r3, [pc, #236]	; (10004248 <_etoa+0x3b4>)
1000415c:	f7ff f860 	bl	10003220 <__wrap___aeabi_dadd>
10004160:	4b47      	ldr	r3, [pc, #284]	; (10004280 <_etoa+0x3ec>)
10004162:	9c0c      	ldr	r4, [sp, #48]	; 0x30
10004164:	469c      	mov	ip, r3
10004166:	4464      	add	r4, ip
10004168:	0523      	lsls	r3, r4, #20
1000416a:	2200      	movs	r2, #0
1000416c:	f7ff f87f 	bl	1000326e <__wrap___aeabi_dmul>
10004170:	0032      	movs	r2, r6
10004172:	003b      	movs	r3, r7
10004174:	0004      	movs	r4, r0
10004176:	000d      	movs	r5, r1
10004178:	f7ff f8d2 	bl	10003320 <__wrap___aeabi_dcmpgt>
1000417c:	2800      	cmp	r0, #0
1000417e:	d12c      	bne.n	100041da <_etoa+0x346>
10004180:	940a      	str	r4, [sp, #40]	; 0x28
10004182:	950b      	str	r5, [sp, #44]	; 0x2c
10004184:	24c6      	movs	r4, #198	; 0xc6
10004186:	9b09      	ldr	r3, [sp, #36]	; 0x24
10004188:	3363      	adds	r3, #99	; 0x63
1000418a:	429c      	cmp	r4, r3
1000418c:	41a4      	sbcs	r4, r4
1000418e:	9b1e      	ldr	r3, [sp, #120]	; 0x78
10004190:	4264      	negs	r4, r4
10004192:	3404      	adds	r4, #4
10004194:	051b      	lsls	r3, r3, #20
10004196:	d400      	bmi.n	1000419a <_etoa+0x306>
10004198:	e6ca      	b.n	10003f30 <_etoa+0x9c>
1000419a:	9a0a      	ldr	r2, [sp, #40]	; 0x28
1000419c:	9b0b      	ldr	r3, [sp, #44]	; 0x2c
1000419e:	0011      	movs	r1, r2
100041a0:	4319      	orrs	r1, r3
100041a2:	d028      	beq.n	100041f6 <_etoa+0x362>
100041a4:	0030      	movs	r0, r6
100041a6:	0039      	movs	r1, r7
100041a8:	4a36      	ldr	r2, [pc, #216]	; (10004284 <_etoa+0x3f0>)
100041aa:	4b37      	ldr	r3, [pc, #220]	; (10004288 <_etoa+0x3f4>)
100041ac:	f7ff f8b0 	bl	10003310 <__wrap___aeabi_dcmpge>
100041b0:	2800      	cmp	r0, #0
100041b2:	d007      	beq.n	100041c4 <_etoa+0x330>
100041b4:	2200      	movs	r2, #0
100041b6:	0030      	movs	r0, r6
100041b8:	0039      	movs	r1, r7
100041ba:	4b34      	ldr	r3, [pc, #208]	; (1000428c <_etoa+0x3f8>)
100041bc:	f7ff f89a 	bl	100032f4 <__wrap___aeabi_dcmplt>
100041c0:	2800      	cmp	r0, #0
100041c2:	d118      	bne.n	100041f6 <_etoa+0x362>
100041c4:	9b1c      	ldr	r3, [sp, #112]	; 0x70
100041c6:	2b00      	cmp	r3, #0
100041c8:	d100      	bne.n	100041cc <_etoa+0x338>
100041ca:	e6b1      	b.n	10003f30 <_etoa+0x9c>
100041cc:	9b0d      	ldr	r3, [sp, #52]	; 0x34
100041ce:	1e5a      	subs	r2, r3, #1
100041d0:	4193      	sbcs	r3, r2
100041d2:	9a1c      	ldr	r2, [sp, #112]	; 0x70
100041d4:	1ad3      	subs	r3, r2, r3
100041d6:	931c      	str	r3, [sp, #112]	; 0x70
100041d8:	e6aa      	b.n	10003f30 <_etoa+0x9c>
100041da:	9b09      	ldr	r3, [sp, #36]	; 0x24
100041dc:	2200      	movs	r2, #0
100041de:	3b01      	subs	r3, #1
100041e0:	9309      	str	r3, [sp, #36]	; 0x24
100041e2:	0020      	movs	r0, r4
100041e4:	0029      	movs	r1, r5
100041e6:	4b24      	ldr	r3, [pc, #144]	; (10004278 <_etoa+0x3e4>)
100041e8:	f7ff f823 	bl	10003232 <__wrap___aeabi_ddiv>
100041ec:	900a      	str	r0, [sp, #40]	; 0x28
100041ee:	910b      	str	r1, [sp, #44]	; 0x2c
100041f0:	e7c8      	b.n	10004184 <_etoa+0x2f0>
100041f2:	2300      	movs	r3, #0
100041f4:	9309      	str	r3, [sp, #36]	; 0x24
100041f6:	9a1c      	ldr	r2, [sp, #112]	; 0x70
100041f8:	9b09      	ldr	r3, [sp, #36]	; 0x24
100041fa:	429a      	cmp	r2, r3
100041fc:	dd11      	ble.n	10004222 <_etoa+0x38e>
100041fe:	1ad0      	subs	r0, r2, r3
10004200:	1e43      	subs	r3, r0, #1
10004202:	931c      	str	r3, [sp, #112]	; 0x70
10004204:	2380      	movs	r3, #128	; 0x80
10004206:	9a1e      	ldr	r2, [sp, #120]	; 0x78
10004208:	00db      	lsls	r3, r3, #3
1000420a:	431a      	orrs	r2, r3
1000420c:	2300      	movs	r3, #0
1000420e:	2400      	movs	r4, #0
10004210:	921e      	str	r2, [sp, #120]	; 0x78
10004212:	9309      	str	r3, [sp, #36]	; 0x24
10004214:	e68c      	b.n	10003f30 <_etoa+0x9c>
10004216:	2380      	movs	r3, #128	; 0x80
10004218:	061b      	lsls	r3, r3, #24
1000421a:	4443      	add	r3, r8
1000421c:	464e      	mov	r6, r9
1000421e:	001f      	movs	r7, r3
10004220:	e66f      	b.n	10003f02 <_etoa+0x6e>
10004222:	2300      	movs	r3, #0
10004224:	931c      	str	r3, [sp, #112]	; 0x70
10004226:	e7ed      	b.n	10004204 <_etoa+0x370>
10004228:	7fefffff 	.word	0x7fefffff
1000422c:	ffefffff 	.word	0xffefffff
10004230:	fffff7ff 	.word	0xfffff7ff
10004234:	fffffc01 	.word	0xfffffc01
10004238:	509f79fb 	.word	0x509f79fb
1000423c:	3fd34413 	.word	0x3fd34413
10004240:	8b60c8b3 	.word	0x8b60c8b3
10004244:	3fc68a28 	.word	0x3fc68a28
10004248:	3ff00000 	.word	0x3ff00000
1000424c:	3ff80000 	.word	0x3ff80000
10004250:	636f4361 	.word	0x636f4361
10004254:	3fd287a7 	.word	0x3fd287a7
10004258:	0979a371 	.word	0x0979a371
1000425c:	400a934f 	.word	0x400a934f
10004260:	3fe00000 	.word	0x3fe00000
10004264:	bbb55516 	.word	0xbbb55516
10004268:	40026bb1 	.word	0x40026bb1
1000426c:	fefa39ef 	.word	0xfefa39ef
10004270:	3fe62e42 	.word	0x3fe62e42
10004274:	402c0000 	.word	0x402c0000
10004278:	40240000 	.word	0x40240000
1000427c:	40180000 	.word	0x40180000
10004280:	000003ff 	.word	0x000003ff
10004284:	eb1c432d 	.word	0xeb1c432d
10004288:	3f1a36e2 	.word	0x3f1a36e2
1000428c:	412e8480 	.word	0x412e8480

10004290 <_ftoa>:
10004290:	b5f0      	push	{r4, r5, r6, r7, lr}
10004292:	464e      	mov	r6, r9
10004294:	46de      	mov	lr, fp
10004296:	4657      	mov	r7, sl
10004298:	4645      	mov	r5, r8
1000429a:	b5e0      	push	{r5, r6, r7, lr}
1000429c:	b097      	sub	sp, #92	; 0x5c
1000429e:	4699      	mov	r9, r3
100042a0:	9e20      	ldr	r6, [sp, #128]	; 0x80
100042a2:	9f21      	ldr	r7, [sp, #132]	; 0x84
100042a4:	9b22      	ldr	r3, [sp, #136]	; 0x88
100042a6:	4683      	mov	fp, r0
100042a8:	4698      	mov	r8, r3
100042aa:	9107      	str	r1, [sp, #28]
100042ac:	920c      	str	r2, [sp, #48]	; 0x30
100042ae:	003b      	movs	r3, r7
100042b0:	0032      	movs	r2, r6
100042b2:	0030      	movs	r0, r6
100042b4:	0039      	movs	r1, r7
100042b6:	f7ff f838 	bl	1000332a <__wrap___aeabi_dcmpun>
100042ba:	2800      	cmp	r0, #0
100042bc:	d000      	beq.n	100042c0 <_ftoa+0x30>
100042be:	e1a9      	b.n	10004614 <_ftoa+0x384>
100042c0:	2201      	movs	r2, #1
100042c2:	0030      	movs	r0, r6
100042c4:	0039      	movs	r1, r7
100042c6:	4bca      	ldr	r3, [pc, #808]	; (100045f0 <_ftoa+0x360>)
100042c8:	4252      	negs	r2, r2
100042ca:	f7ff f813 	bl	100032f4 <__wrap___aeabi_dcmplt>
100042ce:	2800      	cmp	r0, #0
100042d0:	d000      	beq.n	100042d4 <_ftoa+0x44>
100042d2:	e0e1      	b.n	10004498 <_ftoa+0x208>
100042d4:	2201      	movs	r2, #1
100042d6:	0030      	movs	r0, r6
100042d8:	0039      	movs	r1, r7
100042da:	4bc6      	ldr	r3, [pc, #792]	; (100045f4 <_ftoa+0x364>)
100042dc:	4252      	negs	r2, r2
100042de:	f7ff f81f 	bl	10003320 <__wrap___aeabi_dcmpgt>
100042e2:	2800      	cmp	r0, #0
100042e4:	d000      	beq.n	100042e8 <_ftoa+0x58>
100042e6:	e0b7      	b.n	10004458 <_ftoa+0x1c8>
100042e8:	2200      	movs	r2, #0
100042ea:	0030      	movs	r0, r6
100042ec:	0039      	movs	r1, r7
100042ee:	4bc2      	ldr	r3, [pc, #776]	; (100045f8 <_ftoa+0x368>)
100042f0:	f7ff f816 	bl	10003320 <__wrap___aeabi_dcmpgt>
100042f4:	2800      	cmp	r0, #0
100042f6:	d000      	beq.n	100042fa <_ftoa+0x6a>
100042f8:	e099      	b.n	1000442e <_ftoa+0x19e>
100042fa:	2200      	movs	r2, #0
100042fc:	0030      	movs	r0, r6
100042fe:	0039      	movs	r1, r7
10004300:	4bbe      	ldr	r3, [pc, #760]	; (100045fc <_ftoa+0x36c>)
10004302:	f7fe fff7 	bl	100032f4 <__wrap___aeabi_dcmplt>
10004306:	2800      	cmp	r0, #0
10004308:	d000      	beq.n	1000430c <_ftoa+0x7c>
1000430a:	e090      	b.n	1000442e <_ftoa+0x19e>
1000430c:	2200      	movs	r2, #0
1000430e:	2300      	movs	r3, #0
10004310:	0030      	movs	r0, r6
10004312:	0039      	movs	r1, r7
10004314:	f7fe ffee 	bl	100032f4 <__wrap___aeabi_dcmplt>
10004318:	2800      	cmp	r0, #0
1000431a:	d000      	beq.n	1000431e <_ftoa+0x8e>
1000431c:	e0b1      	b.n	10004482 <_ftoa+0x1f2>
1000431e:	2300      	movs	r3, #0
10004320:	930d      	str	r3, [sp, #52]	; 0x34
10004322:	9b24      	ldr	r3, [sp, #144]	; 0x90
10004324:	055b      	lsls	r3, r3, #21
10004326:	d401      	bmi.n	1000432c <_ftoa+0x9c>
10004328:	2306      	movs	r3, #6
1000432a:	4698      	mov	r8, r3
1000432c:	ab08      	add	r3, sp, #32
1000432e:	469c      	mov	ip, r3
10004330:	2217      	movs	r2, #23
10004332:	2400      	movs	r4, #0
10004334:	2330      	movs	r3, #48	; 0x30
10004336:	4641      	mov	r1, r8
10004338:	4462      	add	r2, ip
1000433a:	e004      	b.n	10004346 <_ftoa+0xb6>
1000433c:	3401      	adds	r4, #1
1000433e:	5513      	strb	r3, [r2, r4]
10004340:	3901      	subs	r1, #1
10004342:	2c20      	cmp	r4, #32
10004344:	d001      	beq.n	1000434a <_ftoa+0xba>
10004346:	2909      	cmp	r1, #9
10004348:	d8f8      	bhi.n	1000433c <_ftoa+0xac>
1000434a:	4688      	mov	r8, r1
1000434c:	0030      	movs	r0, r6
1000434e:	0039      	movs	r1, r7
10004350:	f7ff f814 	bl	1000337c <__wrap___aeabi_d2iz>
10004354:	4643      	mov	r3, r8
10004356:	00da      	lsls	r2, r3, #3
10004358:	4ba9      	ldr	r3, [pc, #676]	; (10004600 <_ftoa+0x370>)
1000435a:	0005      	movs	r5, r0
1000435c:	189b      	adds	r3, r3, r2
1000435e:	681a      	ldr	r2, [r3, #0]
10004360:	685b      	ldr	r3, [r3, #4]
10004362:	9208      	str	r2, [sp, #32]
10004364:	9309      	str	r3, [sp, #36]	; 0x24
10004366:	f7fe fff1 	bl	1000334c <__wrap___aeabi_i2d>
1000436a:	0002      	movs	r2, r0
1000436c:	000b      	movs	r3, r1
1000436e:	0030      	movs	r0, r6
10004370:	0039      	movs	r1, r7
10004372:	f7fe ff4c 	bl	1000320e <__wrap___aeabi_dsub>
10004376:	9a08      	ldr	r2, [sp, #32]
10004378:	9b09      	ldr	r3, [sp, #36]	; 0x24
1000437a:	f7fe ff78 	bl	1000326e <__wrap___aeabi_dmul>
1000437e:	900a      	str	r0, [sp, #40]	; 0x28
10004380:	910b      	str	r1, [sp, #44]	; 0x2c
10004382:	f7ff f81f 	bl	100033c4 <__wrap___aeabi_d2uiz>
10004386:	4682      	mov	sl, r0
10004388:	f7fe ffdc 	bl	10003344 <__wrap___aeabi_ui2d>
1000438c:	0002      	movs	r2, r0
1000438e:	000b      	movs	r3, r1
10004390:	980a      	ldr	r0, [sp, #40]	; 0x28
10004392:	990b      	ldr	r1, [sp, #44]	; 0x2c
10004394:	f7fe ff3b 	bl	1000320e <__wrap___aeabi_dsub>
10004398:	2200      	movs	r2, #0
1000439a:	4b9a      	ldr	r3, [pc, #616]	; (10004604 <_ftoa+0x374>)
1000439c:	900a      	str	r0, [sp, #40]	; 0x28
1000439e:	910b      	str	r1, [sp, #44]	; 0x2c
100043a0:	f7fe ffbe 	bl	10003320 <__wrap___aeabi_dcmpgt>
100043a4:	2800      	cmp	r0, #0
100043a6:	d100      	bne.n	100043aa <_ftoa+0x11a>
100043a8:	e0c0      	b.n	1000452c <_ftoa+0x29c>
100043aa:	2301      	movs	r3, #1
100043ac:	469c      	mov	ip, r3
100043ae:	44e2      	add	sl, ip
100043b0:	4650      	mov	r0, sl
100043b2:	f7fe ffc7 	bl	10003344 <__wrap___aeabi_ui2d>
100043b6:	0002      	movs	r2, r0
100043b8:	000b      	movs	r3, r1
100043ba:	9808      	ldr	r0, [sp, #32]
100043bc:	9909      	ldr	r1, [sp, #36]	; 0x24
100043be:	f7fe ff9f 	bl	10003300 <__wrap___aeabi_dcmple>
100043c2:	2800      	cmp	r0, #0
100043c4:	d002      	beq.n	100043cc <_ftoa+0x13c>
100043c6:	2300      	movs	r3, #0
100043c8:	469a      	mov	sl, r3
100043ca:	3501      	adds	r5, #1
100043cc:	4643      	mov	r3, r8
100043ce:	2b00      	cmp	r3, #0
100043d0:	d06a      	beq.n	100044a8 <_ftoa+0x218>
100043d2:	ab08      	add	r3, sp, #32
100043d4:	2617      	movs	r6, #23
100043d6:	469c      	mov	ip, r3
100043d8:	9508      	str	r5, [sp, #32]
100043da:	4466      	add	r6, ip
100043dc:	4655      	mov	r5, sl
100043de:	e014      	b.n	1000440a <_ftoa+0x17a>
100043e0:	2301      	movs	r3, #1
100043e2:	425b      	negs	r3, r3
100043e4:	4443      	add	r3, r8
100043e6:	210a      	movs	r1, #10
100043e8:	0028      	movs	r0, r5
100043ea:	469a      	mov	sl, r3
100043ec:	f7fe fcd4 	bl	10002d98 <__wrap___aeabi_uidiv>
100043f0:	3401      	adds	r4, #1
100043f2:	3130      	adds	r1, #48	; 0x30
100043f4:	1937      	adds	r7, r6, r4
100043f6:	7039      	strb	r1, [r7, #0]
100043f8:	0028      	movs	r0, r5
100043fa:	210a      	movs	r1, #10
100043fc:	f7fe fccc 	bl	10002d98 <__wrap___aeabi_uidiv>
10004400:	2d09      	cmp	r5, #9
10004402:	d800      	bhi.n	10004406 <_ftoa+0x176>
10004404:	e0d0      	b.n	100045a8 <_ftoa+0x318>
10004406:	46d0      	mov	r8, sl
10004408:	0005      	movs	r5, r0
1000440a:	2c20      	cmp	r4, #32
1000440c:	d1e8      	bne.n	100043e0 <_ftoa+0x150>
1000440e:	ab0e      	add	r3, sp, #56	; 0x38
10004410:	4698      	mov	r8, r3
10004412:	2303      	movs	r3, #3
10004414:	9a24      	ldr	r2, [sp, #144]	; 0x90
10004416:	4013      	ands	r3, r2
10004418:	2b01      	cmp	r3, #1
1000441a:	d100      	bne.n	1000441e <_ftoa+0x18e>
1000441c:	e096      	b.n	1000454c <_ftoa+0x2bc>
1000441e:	2320      	movs	r3, #32
10004420:	9a24      	ldr	r2, [sp, #144]	; 0x90
10004422:	9301      	str	r3, [sp, #4]
10004424:	9203      	str	r2, [sp, #12]
10004426:	9a23      	ldr	r2, [sp, #140]	; 0x8c
10004428:	4643      	mov	r3, r8
1000442a:	9202      	str	r2, [sp, #8]
1000442c:	e01e      	b.n	1000446c <_ftoa+0x1dc>
1000442e:	9b24      	ldr	r3, [sp, #144]	; 0x90
10004430:	4658      	mov	r0, fp
10004432:	9304      	str	r3, [sp, #16]
10004434:	9b23      	ldr	r3, [sp, #140]	; 0x8c
10004436:	9600      	str	r6, [sp, #0]
10004438:	9701      	str	r7, [sp, #4]
1000443a:	9303      	str	r3, [sp, #12]
1000443c:	4643      	mov	r3, r8
1000443e:	9a0c      	ldr	r2, [sp, #48]	; 0x30
10004440:	9302      	str	r3, [sp, #8]
10004442:	9907      	ldr	r1, [sp, #28]
10004444:	464b      	mov	r3, r9
10004446:	f7ff fd25 	bl	10003e94 <_etoa>
1000444a:	b017      	add	sp, #92	; 0x5c
1000444c:	bcf0      	pop	{r4, r5, r6, r7}
1000444e:	46bb      	mov	fp, r7
10004450:	46b2      	mov	sl, r6
10004452:	46a9      	mov	r9, r5
10004454:	46a0      	mov	r8, r4
10004456:	bdf0      	pop	{r4, r5, r6, r7, pc}
10004458:	9b24      	ldr	r3, [sp, #144]	; 0x90
1000445a:	075b      	lsls	r3, r3, #29
1000445c:	d40e      	bmi.n	1000447c <_ftoa+0x1ec>
1000445e:	2203      	movs	r2, #3
10004460:	4b69      	ldr	r3, [pc, #420]	; (10004608 <_ftoa+0x378>)
10004462:	9924      	ldr	r1, [sp, #144]	; 0x90
10004464:	9201      	str	r2, [sp, #4]
10004466:	9103      	str	r1, [sp, #12]
10004468:	9923      	ldr	r1, [sp, #140]	; 0x8c
1000446a:	9102      	str	r1, [sp, #8]
1000446c:	9300      	str	r3, [sp, #0]
1000446e:	4658      	mov	r0, fp
10004470:	464b      	mov	r3, r9
10004472:	9a0c      	ldr	r2, [sp, #48]	; 0x30
10004474:	9907      	ldr	r1, [sp, #28]
10004476:	f7ff fb0f 	bl	10003a98 <_out_rev>
1000447a:	e7e6      	b.n	1000444a <_ftoa+0x1ba>
1000447c:	2204      	movs	r2, #4
1000447e:	4b63      	ldr	r3, [pc, #396]	; (1000460c <_ftoa+0x37c>)
10004480:	e7ef      	b.n	10004462 <_ftoa+0x1d2>
10004482:	003b      	movs	r3, r7
10004484:	0032      	movs	r2, r6
10004486:	2000      	movs	r0, #0
10004488:	2100      	movs	r1, #0
1000448a:	f7fe fec0 	bl	1000320e <__wrap___aeabi_dsub>
1000448e:	2301      	movs	r3, #1
10004490:	0006      	movs	r6, r0
10004492:	000f      	movs	r7, r1
10004494:	930d      	str	r3, [sp, #52]	; 0x34
10004496:	e744      	b.n	10004322 <_ftoa+0x92>
10004498:	9b24      	ldr	r3, [sp, #144]	; 0x90
1000449a:	9303      	str	r3, [sp, #12]
1000449c:	9b23      	ldr	r3, [sp, #140]	; 0x8c
1000449e:	9302      	str	r3, [sp, #8]
100044a0:	2304      	movs	r3, #4
100044a2:	9301      	str	r3, [sp, #4]
100044a4:	4b5a      	ldr	r3, [pc, #360]	; (10004610 <_ftoa+0x380>)
100044a6:	e7e1      	b.n	1000446c <_ftoa+0x1dc>
100044a8:	0028      	movs	r0, r5
100044aa:	f7fe ff4f 	bl	1000334c <__wrap___aeabi_i2d>
100044ae:	0002      	movs	r2, r0
100044b0:	000b      	movs	r3, r1
100044b2:	0030      	movs	r0, r6
100044b4:	0039      	movs	r1, r7
100044b6:	f7fe feaa 	bl	1000320e <__wrap___aeabi_dsub>
100044ba:	4b52      	ldr	r3, [pc, #328]	; (10004604 <_ftoa+0x374>)
100044bc:	2200      	movs	r2, #0
100044be:	0006      	movs	r6, r0
100044c0:	000f      	movs	r7, r1
100044c2:	f7fe ff17 	bl	100032f4 <__wrap___aeabi_dcmplt>
100044c6:	ab0e      	add	r3, sp, #56	; 0x38
100044c8:	4698      	mov	r8, r3
100044ca:	2800      	cmp	r0, #0
100044cc:	d10a      	bne.n	100044e4 <_ftoa+0x254>
100044ce:	2200      	movs	r2, #0
100044d0:	0030      	movs	r0, r6
100044d2:	0039      	movs	r1, r7
100044d4:	4b4b      	ldr	r3, [pc, #300]	; (10004604 <_ftoa+0x374>)
100044d6:	f7fe ff23 	bl	10003320 <__wrap___aeabi_dcmpgt>
100044da:	2800      	cmp	r0, #0
100044dc:	d102      	bne.n	100044e4 <_ftoa+0x254>
100044de:	07eb      	lsls	r3, r5, #31
100044e0:	d500      	bpl.n	100044e4 <_ftoa+0x254>
100044e2:	3501      	adds	r5, #1
100044e4:	2c20      	cmp	r4, #32
100044e6:	d094      	beq.n	10004412 <_ftoa+0x182>
100044e8:	aa08      	add	r2, sp, #32
100044ea:	4694      	mov	ip, r2
100044ec:	2317      	movs	r3, #23
100044ee:	0028      	movs	r0, r5
100044f0:	4463      	add	r3, ip
100044f2:	210a      	movs	r1, #10
100044f4:	3401      	adds	r4, #1
100044f6:	191e      	adds	r6, r3, r4
100044f8:	f7fe fc26 	bl	10002d48 <__wrap___aeabi_idiv>
100044fc:	3130      	adds	r1, #48	; 0x30
100044fe:	0028      	movs	r0, r5
10004500:	7031      	strb	r1, [r6, #0]
10004502:	210a      	movs	r1, #10
10004504:	f7fe fc20 	bl	10002d48 <__wrap___aeabi_idiv>
10004508:	1e05      	subs	r5, r0, #0
1000450a:	d1eb      	bne.n	100044e4 <_ftoa+0x254>
1000450c:	2303      	movs	r3, #3
1000450e:	9a24      	ldr	r2, [sp, #144]	; 0x90
10004510:	4013      	ands	r3, r2
10004512:	2b01      	cmp	r3, #1
10004514:	d01b      	beq.n	1000454e <_ftoa+0x2be>
10004516:	2c20      	cmp	r4, #32
10004518:	d100      	bne.n	1000451c <_ftoa+0x28c>
1000451a:	e780      	b.n	1000441e <_ftoa+0x18e>
1000451c:	9b0d      	ldr	r3, [sp, #52]	; 0x34
1000451e:	2b00      	cmp	r3, #0
10004520:	d035      	beq.n	1000458e <_ftoa+0x2fe>
10004522:	222d      	movs	r2, #45	; 0x2d
10004524:	4641      	mov	r1, r8
10004526:	1c63      	adds	r3, r4, #1
10004528:	550a      	strb	r2, [r1, r4]
1000452a:	e779      	b.n	10004420 <_ftoa+0x190>
1000452c:	2200      	movs	r2, #0
1000452e:	980a      	ldr	r0, [sp, #40]	; 0x28
10004530:	990b      	ldr	r1, [sp, #44]	; 0x2c
10004532:	4b34      	ldr	r3, [pc, #208]	; (10004604 <_ftoa+0x374>)
10004534:	f7fe fede 	bl	100032f4 <__wrap___aeabi_dcmplt>
10004538:	2800      	cmp	r0, #0
1000453a:	d000      	beq.n	1000453e <_ftoa+0x2ae>
1000453c:	e746      	b.n	100043cc <_ftoa+0x13c>
1000453e:	4653      	mov	r3, sl
10004540:	2b00      	cmp	r3, #0
10004542:	d151      	bne.n	100045e8 <_ftoa+0x358>
10004544:	2301      	movs	r3, #1
10004546:	469c      	mov	ip, r3
10004548:	44e2      	add	sl, ip
1000454a:	e73f      	b.n	100043cc <_ftoa+0x13c>
1000454c:	2420      	movs	r4, #32
1000454e:	9b23      	ldr	r3, [sp, #140]	; 0x8c
10004550:	2b00      	cmp	r3, #0
10004552:	d0e0      	beq.n	10004516 <_ftoa+0x286>
10004554:	9b0d      	ldr	r3, [sp, #52]	; 0x34
10004556:	2b00      	cmp	r3, #0
10004558:	d103      	bne.n	10004562 <_ftoa+0x2d2>
1000455a:	9a24      	ldr	r2, [sp, #144]	; 0x90
1000455c:	330c      	adds	r3, #12
1000455e:	4213      	tst	r3, r2
10004560:	d002      	beq.n	10004568 <_ftoa+0x2d8>
10004562:	9b23      	ldr	r3, [sp, #140]	; 0x8c
10004564:	3b01      	subs	r3, #1
10004566:	9323      	str	r3, [sp, #140]	; 0x8c
10004568:	9b23      	ldr	r3, [sp, #140]	; 0x8c
1000456a:	42a3      	cmp	r3, r4
1000456c:	d9d3      	bls.n	10004516 <_ftoa+0x286>
1000456e:	ab08      	add	r3, sp, #32
10004570:	469c      	mov	ip, r3
10004572:	2217      	movs	r2, #23
10004574:	2330      	movs	r3, #48	; 0x30
10004576:	4462      	add	r2, ip
10004578:	2c20      	cmp	r4, #32
1000457a:	d100      	bne.n	1000457e <_ftoa+0x2ee>
1000457c:	e74f      	b.n	1000441e <_ftoa+0x18e>
1000457e:	9923      	ldr	r1, [sp, #140]	; 0x8c
10004580:	3401      	adds	r4, #1
10004582:	5513      	strb	r3, [r2, r4]
10004584:	428c      	cmp	r4, r1
10004586:	d0c6      	beq.n	10004516 <_ftoa+0x286>
10004588:	2c20      	cmp	r4, #32
1000458a:	d1f8      	bne.n	1000457e <_ftoa+0x2ee>
1000458c:	e747      	b.n	1000441e <_ftoa+0x18e>
1000458e:	9b24      	ldr	r3, [sp, #144]	; 0x90
10004590:	075b      	lsls	r3, r3, #29
10004592:	d424      	bmi.n	100045de <_ftoa+0x34e>
10004594:	9a24      	ldr	r2, [sp, #144]	; 0x90
10004596:	0023      	movs	r3, r4
10004598:	0712      	lsls	r2, r2, #28
1000459a:	d400      	bmi.n	1000459e <_ftoa+0x30e>
1000459c:	e740      	b.n	10004420 <_ftoa+0x190>
1000459e:	2220      	movs	r2, #32
100045a0:	4641      	mov	r1, r8
100045a2:	3301      	adds	r3, #1
100045a4:	550a      	strb	r2, [r1, r4]
100045a6:	e73b      	b.n	10004420 <_ftoa+0x190>
100045a8:	4657      	mov	r7, sl
100045aa:	9d08      	ldr	r5, [sp, #32]
100045ac:	2c20      	cmp	r4, #32
100045ae:	d100      	bne.n	100045b2 <_ftoa+0x322>
100045b0:	e72d      	b.n	1000440e <_ftoa+0x17e>
100045b2:	0022      	movs	r2, r4
100045b4:	2130      	movs	r1, #48	; 0x30
100045b6:	4640      	mov	r0, r8
100045b8:	2f00      	cmp	r7, #0
100045ba:	d009      	beq.n	100045d0 <_ftoa+0x340>
100045bc:	3201      	adds	r2, #1
100045be:	54b1      	strb	r1, [r6, r2]
100045c0:	2a20      	cmp	r2, #32
100045c2:	d100      	bne.n	100045c6 <_ftoa+0x336>
100045c4:	e723      	b.n	1000440e <_ftoa+0x17e>
100045c6:	43d3      	mvns	r3, r2
100045c8:	191b      	adds	r3, r3, r4
100045ca:	181b      	adds	r3, r3, r0
100045cc:	2b00      	cmp	r3, #0
100045ce:	d1f5      	bne.n	100045bc <_ftoa+0x32c>
100045d0:	ab0e      	add	r3, sp, #56	; 0x38
100045d2:	4698      	mov	r8, r3
100045d4:	232e      	movs	r3, #46	; 0x2e
100045d6:	4641      	mov	r1, r8
100045d8:	1c54      	adds	r4, r2, #1
100045da:	548b      	strb	r3, [r1, r2]
100045dc:	e782      	b.n	100044e4 <_ftoa+0x254>
100045de:	222b      	movs	r2, #43	; 0x2b
100045e0:	4641      	mov	r1, r8
100045e2:	1c63      	adds	r3, r4, #1
100045e4:	550a      	strb	r2, [r1, r4]
100045e6:	e71b      	b.n	10004420 <_ftoa+0x190>
100045e8:	07db      	lsls	r3, r3, #31
100045ea:	d400      	bmi.n	100045ee <_ftoa+0x35e>
100045ec:	e6ee      	b.n	100043cc <_ftoa+0x13c>
100045ee:	e7a9      	b.n	10004544 <_ftoa+0x2b4>
100045f0:	ffefffff 	.word	0xffefffff
100045f4:	7fefffff 	.word	0x7fefffff
100045f8:	41cdcd65 	.word	0x41cdcd65
100045fc:	c1cdcd65 	.word	0xc1cdcd65
10004600:	10006370 	.word	0x10006370
10004604:	3fe00000 	.word	0x3fe00000
10004608:	10006174 	.word	0x10006174
1000460c:	10006178 	.word	0x10006178
10004610:	10006184 	.word	0x10006184
10004614:	9b24      	ldr	r3, [sp, #144]	; 0x90
10004616:	9303      	str	r3, [sp, #12]
10004618:	9b23      	ldr	r3, [sp, #140]	; 0x8c
1000461a:	9302      	str	r3, [sp, #8]
1000461c:	2303      	movs	r3, #3
1000461e:	9301      	str	r3, [sp, #4]
10004620:	4b00      	ldr	r3, [pc, #0]	; (10004624 <_ftoa+0x394>)
10004622:	e723      	b.n	1000446c <_ftoa+0x1dc>
10004624:	10006180 	.word	0x10006180

10004628 <_out_char>:
10004628:	b510      	push	{r4, lr}
1000462a:	2800      	cmp	r0, #0
1000462c:	d100      	bne.n	10004630 <_out_char+0x8>
1000462e:	bd10      	pop	{r4, pc}
10004630:	f000 fd4e 	bl	100050d0 <__wrap_putchar>
10004634:	e7fb      	b.n	1000462e <_out_char+0x6>
10004636:	46c0      	nop			; (mov r8, r8)

10004638 <_out_fct>:
10004638:	000b      	movs	r3, r1
1000463a:	b510      	push	{r4, lr}
1000463c:	2800      	cmp	r0, #0
1000463e:	d002      	beq.n	10004646 <_out_fct+0xe>
10004640:	6849      	ldr	r1, [r1, #4]
10004642:	681b      	ldr	r3, [r3, #0]
10004644:	4798      	blx	r3
10004646:	bd10      	pop	{r4, pc}

10004648 <_vsnprintf>:
10004648:	b5f0      	push	{r4, r5, r6, r7, lr}
1000464a:	4657      	mov	r7, sl
1000464c:	46de      	mov	lr, fp
1000464e:	464e      	mov	r6, r9
10004650:	4645      	mov	r5, r8
10004652:	b5e0      	push	{r5, r6, r7, lr}
10004654:	b095      	sub	sp, #84	; 0x54
10004656:	001c      	movs	r4, r3
10004658:	9b1e      	ldr	r3, [sp, #120]	; 0x78
1000465a:	4691      	mov	r9, r2
1000465c:	469b      	mov	fp, r3
1000465e:	4ac8      	ldr	r2, [pc, #800]	; (10004980 <_vsnprintf+0x338>)
10004660:	4bc8      	ldr	r3, [pc, #800]	; (10004984 <_vsnprintf+0x33c>)
10004662:	4682      	mov	sl, r0
10004664:	1e0f      	subs	r7, r1, #0
10004666:	601a      	str	r2, [r3, #0]
10004668:	d100      	bne.n	1000466c <_vsnprintf+0x24>
1000466a:	e1cf      	b.n	10004a0c <_vsnprintf+0x3c4>
1000466c:	2300      	movs	r3, #0
1000466e:	7820      	ldrb	r0, [r4, #0]
10004670:	4698      	mov	r8, r3
10004672:	2800      	cmp	r0, #0
10004674:	d100      	bne.n	10004678 <_vsnprintf+0x30>
10004676:	e1d1      	b.n	10004a1c <_vsnprintf+0x3d4>
10004678:	001e      	movs	r6, r3
1000467a:	465b      	mov	r3, fp
1000467c:	930b      	str	r3, [sp, #44]	; 0x2c
1000467e:	e009      	b.n	10004694 <_vsnprintf+0x4c>
10004680:	0032      	movs	r2, r6
10004682:	464b      	mov	r3, r9
10004684:	0039      	movs	r1, r7
10004686:	1c75      	adds	r5, r6, #1
10004688:	47d0      	blx	sl
1000468a:	002e      	movs	r6, r5
1000468c:	3401      	adds	r4, #1
1000468e:	7820      	ldrb	r0, [r4, #0]
10004690:	2800      	cmp	r0, #0
10004692:	d04a      	beq.n	1000472a <_vsnprintf+0xe2>
10004694:	2825      	cmp	r0, #37	; 0x25
10004696:	d1f3      	bne.n	10004680 <_vsnprintf+0x38>
10004698:	2310      	movs	r3, #16
1000469a:	469b      	mov	fp, r3
1000469c:	3b0c      	subs	r3, #12
1000469e:	4698      	mov	r8, r3
100046a0:	3b02      	subs	r3, #2
100046a2:	2200      	movs	r2, #0
100046a4:	469c      	mov	ip, r3
100046a6:	3401      	adds	r4, #1
100046a8:	7820      	ldrb	r0, [r4, #0]
100046aa:	0025      	movs	r5, r4
100046ac:	0003      	movs	r3, r0
100046ae:	3b20      	subs	r3, #32
100046b0:	b2db      	uxtb	r3, r3
100046b2:	2b10      	cmp	r3, #16
100046b4:	d803      	bhi.n	100046be <_vsnprintf+0x76>
100046b6:	49b4      	ldr	r1, [pc, #720]	; (10004988 <_vsnprintf+0x340>)
100046b8:	009b      	lsls	r3, r3, #2
100046ba:	58cb      	ldr	r3, [r1, r3]
100046bc:	469f      	mov	pc, r3
100046be:	0003      	movs	r3, r0
100046c0:	3b30      	subs	r3, #48	; 0x30
100046c2:	2b09      	cmp	r3, #9
100046c4:	d955      	bls.n	10004772 <_vsnprintf+0x12a>
100046c6:	2300      	movs	r3, #0
100046c8:	4698      	mov	r8, r3
100046ca:	282a      	cmp	r0, #42	; 0x2a
100046cc:	d064      	beq.n	10004798 <_vsnprintf+0x150>
100046ce:	2400      	movs	r4, #0
100046d0:	282e      	cmp	r0, #46	; 0x2e
100046d2:	d03f      	beq.n	10004754 <_vsnprintf+0x10c>
100046d4:	0003      	movs	r3, r0
100046d6:	3b68      	subs	r3, #104	; 0x68
100046d8:	b2db      	uxtb	r3, r3
100046da:	2b12      	cmp	r3, #18
100046dc:	d808      	bhi.n	100046f0 <_vsnprintf+0xa8>
100046de:	49ab      	ldr	r1, [pc, #684]	; (1000498c <_vsnprintf+0x344>)
100046e0:	009b      	lsls	r3, r3, #2
100046e2:	58cb      	ldr	r3, [r1, r3]
100046e4:	469f      	mov	pc, r3
100046e6:	2380      	movs	r3, #128	; 0x80
100046e8:	005b      	lsls	r3, r3, #1
100046ea:	7868      	ldrb	r0, [r5, #1]
100046ec:	431a      	orrs	r2, r3
100046ee:	3501      	adds	r5, #1
100046f0:	0003      	movs	r3, r0
100046f2:	3b25      	subs	r3, #37	; 0x25
100046f4:	b2db      	uxtb	r3, r3
100046f6:	2b53      	cmp	r3, #83	; 0x53
100046f8:	d857      	bhi.n	100047aa <_vsnprintf+0x162>
100046fa:	49a5      	ldr	r1, [pc, #660]	; (10004990 <_vsnprintf+0x348>)
100046fc:	009b      	lsls	r3, r3, #2
100046fe:	58cb      	ldr	r3, [r1, r3]
10004700:	469f      	mov	pc, r3
10004702:	2301      	movs	r3, #1
10004704:	3401      	adds	r4, #1
10004706:	431a      	orrs	r2, r3
10004708:	e7ce      	b.n	100046a8 <_vsnprintf+0x60>
1000470a:	4663      	mov	r3, ip
1000470c:	3401      	adds	r4, #1
1000470e:	431a      	orrs	r2, r3
10004710:	e7ca      	b.n	100046a8 <_vsnprintf+0x60>
10004712:	4643      	mov	r3, r8
10004714:	3401      	adds	r4, #1
10004716:	431a      	orrs	r2, r3
10004718:	e7c6      	b.n	100046a8 <_vsnprintf+0x60>
1000471a:	465b      	mov	r3, fp
1000471c:	3401      	adds	r4, #1
1000471e:	431a      	orrs	r2, r3
10004720:	e7c2      	b.n	100046a8 <_vsnprintf+0x60>
10004722:	2308      	movs	r3, #8
10004724:	3401      	adds	r4, #1
10004726:	431a      	orrs	r2, r3
10004728:	e7be      	b.n	100046a8 <_vsnprintf+0x60>
1000472a:	46b0      	mov	r8, r6
1000472c:	0034      	movs	r4, r6
1000472e:	45c1      	cmp	r9, r8
10004730:	d803      	bhi.n	1000473a <_vsnprintf+0xf2>
10004732:	2301      	movs	r3, #1
10004734:	425b      	negs	r3, r3
10004736:	444b      	add	r3, r9
10004738:	4698      	mov	r8, r3
1000473a:	464b      	mov	r3, r9
1000473c:	4642      	mov	r2, r8
1000473e:	0039      	movs	r1, r7
10004740:	2000      	movs	r0, #0
10004742:	47d0      	blx	sl
10004744:	0020      	movs	r0, r4
10004746:	b015      	add	sp, #84	; 0x54
10004748:	bcf0      	pop	{r4, r5, r6, r7}
1000474a:	46bb      	mov	fp, r7
1000474c:	46b2      	mov	sl, r6
1000474e:	46a9      	mov	r9, r5
10004750:	46a0      	mov	r8, r4
10004752:	bdf0      	pop	{r4, r5, r6, r7, pc}
10004754:	7868      	ldrb	r0, [r5, #1]
10004756:	2380      	movs	r3, #128	; 0x80
10004758:	0001      	movs	r1, r0
1000475a:	00db      	lsls	r3, r3, #3
1000475c:	3930      	subs	r1, #48	; 0x30
1000475e:	431a      	orrs	r2, r3
10004760:	1c6b      	adds	r3, r5, #1
10004762:	2909      	cmp	r1, #9
10004764:	d800      	bhi.n	10004768 <_vsnprintf+0x120>
10004766:	e15b      	b.n	10004a20 <_vsnprintf+0x3d8>
10004768:	282a      	cmp	r0, #42	; 0x2a
1000476a:	d100      	bne.n	1000476e <_vsnprintf+0x126>
1000476c:	e168      	b.n	10004a40 <_vsnprintf+0x3f8>
1000476e:	001d      	movs	r5, r3
10004770:	e7b0      	b.n	100046d4 <_vsnprintf+0x8c>
10004772:	2300      	movs	r3, #0
10004774:	4698      	mov	r8, r3
10004776:	0003      	movs	r3, r0
10004778:	4641      	mov	r1, r8
1000477a:	0088      	lsls	r0, r1, #2
1000477c:	1840      	adds	r0, r0, r1
1000477e:	3501      	adds	r5, #1
10004780:	0040      	lsls	r0, r0, #1
10004782:	18c0      	adds	r0, r0, r3
10004784:	782b      	ldrb	r3, [r5, #0]
10004786:	0001      	movs	r1, r0
10004788:	0018      	movs	r0, r3
1000478a:	3830      	subs	r0, #48	; 0x30
1000478c:	3930      	subs	r1, #48	; 0x30
1000478e:	2809      	cmp	r0, #9
10004790:	d9f3      	bls.n	1000477a <_vsnprintf+0x132>
10004792:	0018      	movs	r0, r3
10004794:	4688      	mov	r8, r1
10004796:	e79a      	b.n	100046ce <_vsnprintf+0x86>
10004798:	9b0b      	ldr	r3, [sp, #44]	; 0x2c
1000479a:	cb02      	ldmia	r3!, {r1}
1000479c:	4688      	mov	r8, r1
1000479e:	2900      	cmp	r1, #0
100047a0:	db0c      	blt.n	100047bc <_vsnprintf+0x174>
100047a2:	7860      	ldrb	r0, [r4, #1]
100047a4:	930b      	str	r3, [sp, #44]	; 0x2c
100047a6:	1c65      	adds	r5, r4, #1
100047a8:	e791      	b.n	100046ce <_vsnprintf+0x86>
100047aa:	1c73      	adds	r3, r6, #1
100047ac:	4698      	mov	r8, r3
100047ae:	0032      	movs	r2, r6
100047b0:	464b      	mov	r3, r9
100047b2:	0039      	movs	r1, r7
100047b4:	47d0      	blx	sl
100047b6:	4646      	mov	r6, r8
100047b8:	1c6c      	adds	r4, r5, #1
100047ba:	e768      	b.n	1000468e <_vsnprintf+0x46>
100047bc:	2102      	movs	r1, #2
100047be:	430a      	orrs	r2, r1
100047c0:	4641      	mov	r1, r8
100047c2:	4249      	negs	r1, r1
100047c4:	4688      	mov	r8, r1
100047c6:	7860      	ldrb	r0, [r4, #1]
100047c8:	930b      	str	r3, [sp, #44]	; 0x2c
100047ca:	1c65      	adds	r5, r4, #1
100047cc:	e77f      	b.n	100046ce <_vsnprintf+0x86>
100047ce:	2878      	cmp	r0, #120	; 0x78
100047d0:	d100      	bne.n	100047d4 <_vsnprintf+0x18c>
100047d2:	e16d      	b.n	10004ab0 <_vsnprintf+0x468>
100047d4:	2858      	cmp	r0, #88	; 0x58
100047d6:	d100      	bne.n	100047da <_vsnprintf+0x192>
100047d8:	e197      	b.n	10004b0a <_vsnprintf+0x4c2>
100047da:	286f      	cmp	r0, #111	; 0x6f
100047dc:	d100      	bne.n	100047e0 <_vsnprintf+0x198>
100047de:	e258      	b.n	10004c92 <_vsnprintf+0x64a>
100047e0:	2862      	cmp	r0, #98	; 0x62
100047e2:	d100      	bne.n	100047e6 <_vsnprintf+0x19e>
100047e4:	e28c      	b.n	10004d00 <_vsnprintf+0x6b8>
100047e6:	2310      	movs	r3, #16
100047e8:	0011      	movs	r1, r2
100047ea:	4399      	bics	r1, r3
100047ec:	000b      	movs	r3, r1
100047ee:	2869      	cmp	r0, #105	; 0x69
100047f0:	d000      	beq.n	100047f4 <_vsnprintf+0x1ac>
100047f2:	e2a6      	b.n	10004d42 <_vsnprintf+0x6fa>
100047f4:	0552      	lsls	r2, r2, #21
100047f6:	d500      	bpl.n	100047fa <_vsnprintf+0x1b2>
100047f8:	e233      	b.n	10004c62 <_vsnprintf+0x61a>
100047fa:	220a      	movs	r2, #10
100047fc:	920c      	str	r2, [sp, #48]	; 0x30
100047fe:	059a      	lsls	r2, r3, #22
10004800:	d500      	bpl.n	10004804 <_vsnprintf+0x1bc>
10004802:	e1fe      	b.n	10004c02 <_vsnprintf+0x5ba>
10004804:	05da      	lsls	r2, r3, #23
10004806:	d500      	bpl.n	1000480a <_vsnprintf+0x1c2>
10004808:	e25f      	b.n	10004cca <_vsnprintf+0x682>
1000480a:	065a      	lsls	r2, r3, #25
1000480c:	d500      	bpl.n	10004810 <_vsnprintf+0x1c8>
1000480e:	e22b      	b.n	10004c68 <_vsnprintf+0x620>
10004810:	9a0b      	ldr	r2, [sp, #44]	; 0x2c
10004812:	0011      	movs	r1, r2
10004814:	061a      	lsls	r2, r3, #24
10004816:	d400      	bmi.n	1000481a <_vsnprintf+0x1d2>
10004818:	e281      	b.n	10004d1e <_vsnprintf+0x6d6>
1000481a:	c904      	ldmia	r1!, {r2}
1000481c:	468c      	mov	ip, r1
1000481e:	b212      	sxth	r2, r2
10004820:	17d1      	asrs	r1, r2, #31
10004822:	1850      	adds	r0, r2, r1
10004824:	4048      	eors	r0, r1
10004826:	4661      	mov	r1, ip
10004828:	b280      	uxth	r0, r0
1000482a:	910b      	str	r1, [sp, #44]	; 0x2c
1000482c:	9305      	str	r3, [sp, #20]
1000482e:	4643      	mov	r3, r8
10004830:	9304      	str	r3, [sp, #16]
10004832:	9b0c      	ldr	r3, [sp, #48]	; 0x30
10004834:	0fd2      	lsrs	r2, r2, #31
10004836:	9403      	str	r4, [sp, #12]
10004838:	9302      	str	r3, [sp, #8]
1000483a:	9201      	str	r2, [sp, #4]
1000483c:	9000      	str	r0, [sp, #0]
1000483e:	0032      	movs	r2, r6
10004840:	464b      	mov	r3, r9
10004842:	0039      	movs	r1, r7
10004844:	4650      	mov	r0, sl
10004846:	f7ff fa5d 	bl	10003d04 <_ntoa_long>
1000484a:	1c6c      	adds	r4, r5, #1
1000484c:	0006      	movs	r6, r0
1000484e:	e71e      	b.n	1000468e <_vsnprintf+0x46>
10004850:	2380      	movs	r3, #128	; 0x80
10004852:	009b      	lsls	r3, r3, #2
10004854:	7868      	ldrb	r0, [r5, #1]
10004856:	431a      	orrs	r2, r3
10004858:	3501      	adds	r5, #1
1000485a:	e749      	b.n	100046f0 <_vsnprintf+0xa8>
1000485c:	7868      	ldrb	r0, [r5, #1]
1000485e:	2868      	cmp	r0, #104	; 0x68
10004860:	d100      	bne.n	10004864 <_vsnprintf+0x21c>
10004862:	e15e      	b.n	10004b22 <_vsnprintf+0x4da>
10004864:	2380      	movs	r3, #128	; 0x80
10004866:	3501      	adds	r5, #1
10004868:	431a      	orrs	r2, r3
1000486a:	e741      	b.n	100046f0 <_vsnprintf+0xa8>
1000486c:	7868      	ldrb	r0, [r5, #1]
1000486e:	286c      	cmp	r0, #108	; 0x6c
10004870:	d100      	bne.n	10004874 <_vsnprintf+0x22c>
10004872:	e15b      	b.n	10004b2c <_vsnprintf+0x4e4>
10004874:	2380      	movs	r3, #128	; 0x80
10004876:	005b      	lsls	r3, r3, #1
10004878:	431a      	orrs	r2, r3
1000487a:	3501      	adds	r5, #1
1000487c:	e738      	b.n	100046f0 <_vsnprintf+0xa8>
1000487e:	2846      	cmp	r0, #70	; 0x46
10004880:	d100      	bne.n	10004884 <_vsnprintf+0x23c>
10004882:	e112      	b.n	10004aaa <_vsnprintf+0x462>
10004884:	2107      	movs	r1, #7
10004886:	9b0b      	ldr	r3, [sp, #44]	; 0x2c
10004888:	9204      	str	r2, [sp, #16]
1000488a:	3307      	adds	r3, #7
1000488c:	4642      	mov	r2, r8
1000488e:	438b      	bics	r3, r1
10004890:	0019      	movs	r1, r3
10004892:	9402      	str	r4, [sp, #8]
10004894:	9203      	str	r2, [sp, #12]
10004896:	c90c      	ldmia	r1!, {r2, r3}
10004898:	4650      	mov	r0, sl
1000489a:	9200      	str	r2, [sp, #0]
1000489c:	9301      	str	r3, [sp, #4]
1000489e:	910b      	str	r1, [sp, #44]	; 0x2c
100048a0:	0032      	movs	r2, r6
100048a2:	464b      	mov	r3, r9
100048a4:	0039      	movs	r1, r7
100048a6:	f7ff fcf3 	bl	10004290 <_ftoa>
100048aa:	1c6c      	adds	r4, r5, #1
100048ac:	0006      	movs	r6, r0
100048ae:	e6ee      	b.n	1000468e <_vsnprintf+0x46>
100048b0:	9b0b      	ldr	r3, [sp, #44]	; 0x2c
100048b2:	cb02      	ldmia	r3!, {r1}
100048b4:	910b      	str	r1, [sp, #44]	; 0x2c
100048b6:	930d      	str	r3, [sp, #52]	; 0x34
100048b8:	2c00      	cmp	r4, #0
100048ba:	d000      	beq.n	100048be <_vsnprintf+0x276>
100048bc:	e0c9      	b.n	10004a52 <_vsnprintf+0x40a>
100048be:	780b      	ldrb	r3, [r1, #0]
100048c0:	469c      	mov	ip, r3
100048c2:	2b00      	cmp	r3, #0
100048c4:	d100      	bne.n	100048c8 <_vsnprintf+0x280>
100048c6:	e233      	b.n	10004d30 <_vsnprintf+0x6e8>
100048c8:	2302      	movs	r3, #2
100048ca:	425b      	negs	r3, r3
100048cc:	990b      	ldr	r1, [sp, #44]	; 0x2c
100048ce:	3301      	adds	r3, #1
100048d0:	18c8      	adds	r0, r1, r3
100048d2:	000b      	movs	r3, r1
100048d4:	e002      	b.n	100048dc <_vsnprintf+0x294>
100048d6:	4298      	cmp	r0, r3
100048d8:	d100      	bne.n	100048dc <_vsnprintf+0x294>
100048da:	e12d      	b.n	10004b38 <_vsnprintf+0x4f0>
100048dc:	7859      	ldrb	r1, [r3, #1]
100048de:	3301      	adds	r3, #1
100048e0:	2900      	cmp	r1, #0
100048e2:	d1f8      	bne.n	100048d6 <_vsnprintf+0x28e>
100048e4:	990b      	ldr	r1, [sp, #44]	; 0x2c
100048e6:	1a5b      	subs	r3, r3, r1
100048e8:	930c      	str	r3, [sp, #48]	; 0x30
100048ea:	2380      	movs	r3, #128	; 0x80
100048ec:	0011      	movs	r1, r2
100048ee:	00db      	lsls	r3, r3, #3
100048f0:	4019      	ands	r1, r3
100048f2:	910e      	str	r1, [sp, #56]	; 0x38
100048f4:	421a      	tst	r2, r3
100048f6:	d003      	beq.n	10004900 <_vsnprintf+0x2b8>
100048f8:	9b0c      	ldr	r3, [sp, #48]	; 0x30
100048fa:	42a3      	cmp	r3, r4
100048fc:	d900      	bls.n	10004900 <_vsnprintf+0x2b8>
100048fe:	940c      	str	r4, [sp, #48]	; 0x30
10004900:	2302      	movs	r3, #2
10004902:	0019      	movs	r1, r3
10004904:	4011      	ands	r1, r2
10004906:	910f      	str	r1, [sp, #60]	; 0x3c
10004908:	4213      	tst	r3, r2
1000490a:	d100      	bne.n	1000490e <_vsnprintf+0x2c6>
1000490c:	e154      	b.n	10004bb8 <_vsnprintf+0x570>
1000490e:	4660      	mov	r0, ip
10004910:	2800      	cmp	r0, #0
10004912:	d100      	bne.n	10004916 <_vsnprintf+0x2ce>
10004914:	e13b      	b.n	10004b8e <_vsnprintf+0x546>
10004916:	9b0b      	ldr	r3, [sp, #44]	; 0x2c
10004918:	0032      	movs	r2, r6
1000491a:	1b9e      	subs	r6, r3, r6
1000491c:	4643      	mov	r3, r8
1000491e:	46ab      	mov	fp, r5
10004920:	46b8      	mov	r8, r7
10004922:	9d0e      	ldr	r5, [sp, #56]	; 0x38
10004924:	4657      	mov	r7, sl
10004926:	930b      	str	r3, [sp, #44]	; 0x2c
10004928:	46b2      	mov	sl, r6
1000492a:	0026      	movs	r6, r4
1000492c:	e000      	b.n	10004930 <_vsnprintf+0x2e8>
1000492e:	0022      	movs	r2, r4
10004930:	2d00      	cmp	r5, #0
10004932:	d004      	beq.n	1000493e <_vsnprintf+0x2f6>
10004934:	1e73      	subs	r3, r6, #1
10004936:	2e00      	cmp	r6, #0
10004938:	d100      	bne.n	1000493c <_vsnprintf+0x2f4>
1000493a:	e101      	b.n	10004b40 <_vsnprintf+0x4f8>
1000493c:	001e      	movs	r6, r3
1000493e:	464b      	mov	r3, r9
10004940:	4641      	mov	r1, r8
10004942:	1c54      	adds	r4, r2, #1
10004944:	47b8      	blx	r7
10004946:	4653      	mov	r3, sl
10004948:	5d18      	ldrb	r0, [r3, r4]
1000494a:	2800      	cmp	r0, #0
1000494c:	d1ef      	bne.n	1000492e <_vsnprintf+0x2e6>
1000494e:	9b0b      	ldr	r3, [sp, #44]	; 0x2c
10004950:	465d      	mov	r5, fp
10004952:	46ba      	mov	sl, r7
10004954:	46a3      	mov	fp, r4
10004956:	4647      	mov	r7, r8
10004958:	4698      	mov	r8, r3
1000495a:	9b0f      	ldr	r3, [sp, #60]	; 0x3c
1000495c:	2b00      	cmp	r3, #0
1000495e:	d000      	beq.n	10004962 <_vsnprintf+0x31a>
10004960:	e114      	b.n	10004b8c <_vsnprintf+0x544>
10004962:	9b0d      	ldr	r3, [sp, #52]	; 0x34
10004964:	465e      	mov	r6, fp
10004966:	1c6c      	adds	r4, r5, #1
10004968:	930b      	str	r3, [sp, #44]	; 0x2c
1000496a:	e690      	b.n	1000468e <_vsnprintf+0x46>
1000496c:	1c73      	adds	r3, r6, #1
1000496e:	4698      	mov	r8, r3
10004970:	0032      	movs	r2, r6
10004972:	464b      	mov	r3, r9
10004974:	0039      	movs	r1, r7
10004976:	2025      	movs	r0, #37	; 0x25
10004978:	47d0      	blx	sl
1000497a:	4646      	mov	r6, r8
1000497c:	1c6c      	adds	r4, r5, #1
1000497e:	e686      	b.n	1000468e <_vsnprintf+0x46>
10004980:	10004649 	.word	0x10004649
10004984:	20000bc8 	.word	0x20000bc8
10004988:	1000618c 	.word	0x1000618c
1000498c:	100061d0 	.word	0x100061d0
10004990:	1000621c 	.word	0x1000621c
10004994:	9b0b      	ldr	r3, [sp, #44]	; 0x2c
10004996:	9403      	str	r4, [sp, #12]
10004998:	4698      	mov	r8, r3
1000499a:	2321      	movs	r3, #33	; 0x21
1000499c:	431a      	orrs	r2, r3
1000499e:	3b19      	subs	r3, #25
100049a0:	9304      	str	r3, [sp, #16]
100049a2:	3308      	adds	r3, #8
100049a4:	9302      	str	r3, [sp, #8]
100049a6:	2300      	movs	r3, #0
100049a8:	9205      	str	r2, [sp, #20]
100049aa:	4642      	mov	r2, r8
100049ac:	9301      	str	r3, [sp, #4]
100049ae:	ca08      	ldmia	r2!, {r3}
100049b0:	0039      	movs	r1, r7
100049b2:	4690      	mov	r8, r2
100049b4:	9300      	str	r3, [sp, #0]
100049b6:	0032      	movs	r2, r6
100049b8:	464b      	mov	r3, r9
100049ba:	4650      	mov	r0, sl
100049bc:	f7ff f9a2 	bl	10003d04 <_ntoa_long>
100049c0:	4643      	mov	r3, r8
100049c2:	0006      	movs	r6, r0
100049c4:	1c6c      	adds	r4, r5, #1
100049c6:	930b      	str	r3, [sp, #44]	; 0x2c
100049c8:	e661      	b.n	1000468e <_vsnprintf+0x46>
100049ca:	0793      	lsls	r3, r2, #30
100049cc:	d400      	bmi.n	100049d0 <_vsnprintf+0x388>
100049ce:	e0be      	b.n	10004b4e <_vsnprintf+0x506>
100049d0:	9b0b      	ldr	r3, [sp, #44]	; 0x2c
100049d2:	0032      	movs	r2, r6
100049d4:	cb01      	ldmia	r3!, {r0}
100049d6:	0039      	movs	r1, r7
100049d8:	469b      	mov	fp, r3
100049da:	b2c0      	uxtb	r0, r0
100049dc:	464b      	mov	r3, r9
100049de:	47d0      	blx	sl
100049e0:	4643      	mov	r3, r8
100049e2:	1c74      	adds	r4, r6, #1
100049e4:	4446      	add	r6, r8
100049e6:	2b01      	cmp	r3, #1
100049e8:	d800      	bhi.n	100049ec <_vsnprintf+0x3a4>
100049ea:	e14d      	b.n	10004c88 <_vsnprintf+0x640>
100049ec:	46a8      	mov	r8, r5
100049ee:	4655      	mov	r5, sl
100049f0:	0022      	movs	r2, r4
100049f2:	464b      	mov	r3, r9
100049f4:	3401      	adds	r4, #1
100049f6:	0039      	movs	r1, r7
100049f8:	2020      	movs	r0, #32
100049fa:	47a8      	blx	r5
100049fc:	42b4      	cmp	r4, r6
100049fe:	d1f7      	bne.n	100049f0 <_vsnprintf+0x3a8>
10004a00:	46aa      	mov	sl, r5
10004a02:	465b      	mov	r3, fp
10004a04:	4645      	mov	r5, r8
10004a06:	930b      	str	r3, [sp, #44]	; 0x2c
10004a08:	1c6c      	adds	r4, r5, #1
10004a0a:	e640      	b.n	1000468e <_vsnprintf+0x46>
10004a0c:	4bce      	ldr	r3, [pc, #824]	; (10004d48 <_vsnprintf+0x700>)
10004a0e:	7820      	ldrb	r0, [r4, #0]
10004a10:	469a      	mov	sl, r3
10004a12:	2300      	movs	r3, #0
10004a14:	4698      	mov	r8, r3
10004a16:	2800      	cmp	r0, #0
10004a18:	d000      	beq.n	10004a1c <_vsnprintf+0x3d4>
10004a1a:	e62d      	b.n	10004678 <_vsnprintf+0x30>
10004a1c:	2400      	movs	r4, #0
10004a1e:	e686      	b.n	1000472e <_vsnprintf+0xe6>
10004a20:	0001      	movs	r1, r0
10004a22:	00a0      	lsls	r0, r4, #2
10004a24:	1900      	adds	r0, r0, r4
10004a26:	3301      	adds	r3, #1
10004a28:	0040      	lsls	r0, r0, #1
10004a2a:	1840      	adds	r0, r0, r1
10004a2c:	7819      	ldrb	r1, [r3, #0]
10004a2e:	3830      	subs	r0, #48	; 0x30
10004a30:	0004      	movs	r4, r0
10004a32:	0008      	movs	r0, r1
10004a34:	3830      	subs	r0, #48	; 0x30
10004a36:	2809      	cmp	r0, #9
10004a38:	d9f3      	bls.n	10004a22 <_vsnprintf+0x3da>
10004a3a:	0008      	movs	r0, r1
10004a3c:	001d      	movs	r5, r3
10004a3e:	e649      	b.n	100046d4 <_vsnprintf+0x8c>
10004a40:	9b0b      	ldr	r3, [sp, #44]	; 0x2c
10004a42:	78a8      	ldrb	r0, [r5, #2]
10004a44:	cb10      	ldmia	r3!, {r4}
10004a46:	3502      	adds	r5, #2
10004a48:	43e1      	mvns	r1, r4
10004a4a:	17c9      	asrs	r1, r1, #31
10004a4c:	400c      	ands	r4, r1
10004a4e:	930b      	str	r3, [sp, #44]	; 0x2c
10004a50:	e640      	b.n	100046d4 <_vsnprintf+0x8c>
10004a52:	9b0b      	ldr	r3, [sp, #44]	; 0x2c
10004a54:	781b      	ldrb	r3, [r3, #0]
10004a56:	469c      	mov	ip, r3
10004a58:	2b00      	cmp	r3, #0
10004a5a:	d100      	bne.n	10004a5e <_vsnprintf+0x416>
10004a5c:	e167      	b.n	10004d2e <_vsnprintf+0x6e6>
10004a5e:	1e63      	subs	r3, r4, #1
10004a60:	e734      	b.n	100048cc <_vsnprintf+0x284>
10004a62:	2320      	movs	r3, #32
10004a64:	0001      	movs	r1, r0
10004a66:	4399      	bics	r1, r3
10004a68:	2947      	cmp	r1, #71	; 0x47
10004a6a:	d104      	bne.n	10004a76 <_vsnprintf+0x42e>
10004a6c:	2380      	movs	r3, #128	; 0x80
10004a6e:	011b      	lsls	r3, r3, #4
10004a70:	431a      	orrs	r2, r3
10004a72:	2302      	movs	r3, #2
10004a74:	4398      	bics	r0, r3
10004a76:	2845      	cmp	r0, #69	; 0x45
10004a78:	d101      	bne.n	10004a7e <_vsnprintf+0x436>
10004a7a:	2320      	movs	r3, #32
10004a7c:	431a      	orrs	r2, r3
10004a7e:	2107      	movs	r1, #7
10004a80:	9b0b      	ldr	r3, [sp, #44]	; 0x2c
10004a82:	9204      	str	r2, [sp, #16]
10004a84:	3307      	adds	r3, #7
10004a86:	4642      	mov	r2, r8
10004a88:	438b      	bics	r3, r1
10004a8a:	0019      	movs	r1, r3
10004a8c:	9402      	str	r4, [sp, #8]
10004a8e:	9203      	str	r2, [sp, #12]
10004a90:	c90c      	ldmia	r1!, {r2, r3}
10004a92:	4650      	mov	r0, sl
10004a94:	9200      	str	r2, [sp, #0]
10004a96:	9301      	str	r3, [sp, #4]
10004a98:	910b      	str	r1, [sp, #44]	; 0x2c
10004a9a:	0032      	movs	r2, r6
10004a9c:	464b      	mov	r3, r9
10004a9e:	0039      	movs	r1, r7
10004aa0:	f7ff f9f8 	bl	10003e94 <_etoa>
10004aa4:	1c6c      	adds	r4, r5, #1
10004aa6:	0006      	movs	r6, r0
10004aa8:	e5f1      	b.n	1000468e <_vsnprintf+0x46>
10004aaa:	2320      	movs	r3, #32
10004aac:	431a      	orrs	r2, r3
10004aae:	e6e9      	b.n	10004884 <_vsnprintf+0x23c>
10004ab0:	2310      	movs	r3, #16
10004ab2:	930c      	str	r3, [sp, #48]	; 0x30
10004ab4:	230c      	movs	r3, #12
10004ab6:	0011      	movs	r1, r2
10004ab8:	4399      	bics	r1, r3
10004aba:	000b      	movs	r3, r1
10004abc:	0552      	lsls	r2, r2, #21
10004abe:	d42d      	bmi.n	10004b1c <_vsnprintf+0x4d4>
10004ac0:	2869      	cmp	r0, #105	; 0x69
10004ac2:	d100      	bne.n	10004ac6 <_vsnprintf+0x47e>
10004ac4:	e69b      	b.n	100047fe <_vsnprintf+0x1b6>
10004ac6:	2864      	cmp	r0, #100	; 0x64
10004ac8:	d100      	bne.n	10004acc <_vsnprintf+0x484>
10004aca:	e698      	b.n	100047fe <_vsnprintf+0x1b6>
10004acc:	2280      	movs	r2, #128	; 0x80
10004ace:	0018      	movs	r0, r3
10004ad0:	0092      	lsls	r2, r2, #2
10004ad2:	4010      	ands	r0, r2
10004ad4:	4213      	tst	r3, r2
10004ad6:	d000      	beq.n	10004ada <_vsnprintf+0x492>
10004ad8:	e0e6      	b.n	10004ca8 <_vsnprintf+0x660>
10004ada:	05da      	lsls	r2, r3, #23
10004adc:	d500      	bpl.n	10004ae0 <_vsnprintf+0x498>
10004ade:	e112      	b.n	10004d06 <_vsnprintf+0x6be>
10004ae0:	980b      	ldr	r0, [sp, #44]	; 0x2c
10004ae2:	065a      	lsls	r2, r3, #25
10004ae4:	d500      	bpl.n	10004ae8 <_vsnprintf+0x4a0>
10004ae6:	e0c8      	b.n	10004c7a <_vsnprintf+0x632>
10004ae8:	061a      	lsls	r2, r3, #24
10004aea:	d400      	bmi.n	10004aee <_vsnprintf+0x4a6>
10004aec:	e122      	b.n	10004d34 <_vsnprintf+0x6ec>
10004aee:	c804      	ldmia	r0!, {r2}
10004af0:	0412      	lsls	r2, r2, #16
10004af2:	0c12      	lsrs	r2, r2, #16
10004af4:	900b      	str	r0, [sp, #44]	; 0x2c
10004af6:	9305      	str	r3, [sp, #20]
10004af8:	4643      	mov	r3, r8
10004afa:	9304      	str	r3, [sp, #16]
10004afc:	9b0c      	ldr	r3, [sp, #48]	; 0x30
10004afe:	9403      	str	r4, [sp, #12]
10004b00:	9302      	str	r3, [sp, #8]
10004b02:	2300      	movs	r3, #0
10004b04:	9200      	str	r2, [sp, #0]
10004b06:	9301      	str	r3, [sp, #4]
10004b08:	e699      	b.n	1000483e <_vsnprintf+0x1f6>
10004b0a:	230c      	movs	r3, #12
10004b0c:	0011      	movs	r1, r2
10004b0e:	4399      	bics	r1, r3
10004b10:	3314      	adds	r3, #20
10004b12:	430b      	orrs	r3, r1
10004b14:	2110      	movs	r1, #16
10004b16:	910c      	str	r1, [sp, #48]	; 0x30
10004b18:	0552      	lsls	r2, r2, #21
10004b1a:	d5d7      	bpl.n	10004acc <_vsnprintf+0x484>
10004b1c:	2201      	movs	r2, #1
10004b1e:	4393      	bics	r3, r2
10004b20:	e7ce      	b.n	10004ac0 <_vsnprintf+0x478>
10004b22:	23c0      	movs	r3, #192	; 0xc0
10004b24:	78a8      	ldrb	r0, [r5, #2]
10004b26:	431a      	orrs	r2, r3
10004b28:	3502      	adds	r5, #2
10004b2a:	e5e1      	b.n	100046f0 <_vsnprintf+0xa8>
10004b2c:	23c0      	movs	r3, #192	; 0xc0
10004b2e:	009b      	lsls	r3, r3, #2
10004b30:	78a8      	ldrb	r0, [r5, #2]
10004b32:	431a      	orrs	r2, r3
10004b34:	3502      	adds	r5, #2
10004b36:	e5db      	b.n	100046f0 <_vsnprintf+0xa8>
10004b38:	9b0b      	ldr	r3, [sp, #44]	; 0x2c
10004b3a:	1ac3      	subs	r3, r0, r3
10004b3c:	930c      	str	r3, [sp, #48]	; 0x30
10004b3e:	e6d4      	b.n	100048ea <_vsnprintf+0x2a2>
10004b40:	9b0b      	ldr	r3, [sp, #44]	; 0x2c
10004b42:	465d      	mov	r5, fp
10004b44:	46ba      	mov	sl, r7
10004b46:	4693      	mov	fp, r2
10004b48:	4647      	mov	r7, r8
10004b4a:	4698      	mov	r8, r3
10004b4c:	e705      	b.n	1000495a <_vsnprintf+0x312>
10004b4e:	4643      	mov	r3, r8
10004b50:	2b01      	cmp	r3, #1
10004b52:	d800      	bhi.n	10004b56 <_vsnprintf+0x50e>
10004b54:	e0f3      	b.n	10004d3e <_vsnprintf+0x6f6>
10004b56:	1e74      	subs	r4, r6, #1
10004b58:	4444      	add	r4, r8
10004b5a:	46a8      	mov	r8, r5
10004b5c:	4655      	mov	r5, sl
10004b5e:	0032      	movs	r2, r6
10004b60:	464b      	mov	r3, r9
10004b62:	3601      	adds	r6, #1
10004b64:	0039      	movs	r1, r7
10004b66:	2020      	movs	r0, #32
10004b68:	47a8      	blx	r5
10004b6a:	42a6      	cmp	r6, r4
10004b6c:	d1f7      	bne.n	10004b5e <_vsnprintf+0x516>
10004b6e:	46aa      	mov	sl, r5
10004b70:	4645      	mov	r5, r8
10004b72:	9b0b      	ldr	r3, [sp, #44]	; 0x2c
10004b74:	0022      	movs	r2, r4
10004b76:	cb01      	ldmia	r3!, {r0}
10004b78:	0039      	movs	r1, r7
10004b7a:	4698      	mov	r8, r3
10004b7c:	b2c0      	uxtb	r0, r0
10004b7e:	464b      	mov	r3, r9
10004b80:	47d0      	blx	sl
10004b82:	4643      	mov	r3, r8
10004b84:	1c66      	adds	r6, r4, #1
10004b86:	930b      	str	r3, [sp, #44]	; 0x2c
10004b88:	1c6c      	adds	r4, r5, #1
10004b8a:	e580      	b.n	1000468e <_vsnprintf+0x46>
10004b8c:	465e      	mov	r6, fp
10004b8e:	9a0c      	ldr	r2, [sp, #48]	; 0x30
10004b90:	4590      	cmp	r8, r2
10004b92:	d934      	bls.n	10004bfe <_vsnprintf+0x5b6>
10004b94:	4643      	mov	r3, r8
10004b96:	199b      	adds	r3, r3, r6
10004b98:	1a9b      	subs	r3, r3, r2
10004b9a:	46a8      	mov	r8, r5
10004b9c:	001c      	movs	r4, r3
10004b9e:	4655      	mov	r5, sl
10004ba0:	0032      	movs	r2, r6
10004ba2:	464b      	mov	r3, r9
10004ba4:	3601      	adds	r6, #1
10004ba6:	0039      	movs	r1, r7
10004ba8:	2020      	movs	r0, #32
10004baa:	47a8      	blx	r5
10004bac:	42a6      	cmp	r6, r4
10004bae:	d1f7      	bne.n	10004ba0 <_vsnprintf+0x558>
10004bb0:	46aa      	mov	sl, r5
10004bb2:	46a3      	mov	fp, r4
10004bb4:	4645      	mov	r5, r8
10004bb6:	e6d4      	b.n	10004962 <_vsnprintf+0x31a>
10004bb8:	9a0c      	ldr	r2, [sp, #48]	; 0x30
10004bba:	1c53      	adds	r3, r2, #1
10004bbc:	4590      	cmp	r8, r2
10004bbe:	d800      	bhi.n	10004bc2 <_vsnprintf+0x57a>
10004bc0:	e0bb      	b.n	10004d3a <_vsnprintf+0x6f2>
10004bc2:	4643      	mov	r3, r8
10004bc4:	199b      	adds	r3, r3, r6
10004bc6:	1a9b      	subs	r3, r3, r2
10004bc8:	469b      	mov	fp, r3
10004bca:	4653      	mov	r3, sl
10004bcc:	46a2      	mov	sl, r4
10004bce:	465c      	mov	r4, fp
10004bd0:	46ab      	mov	fp, r5
10004bd2:	001d      	movs	r5, r3
10004bd4:	0032      	movs	r2, r6
10004bd6:	464b      	mov	r3, r9
10004bd8:	3601      	adds	r6, #1
10004bda:	0039      	movs	r1, r7
10004bdc:	2020      	movs	r0, #32
10004bde:	47a8      	blx	r5
10004be0:	42a6      	cmp	r6, r4
10004be2:	d1f7      	bne.n	10004bd4 <_vsnprintf+0x58c>
10004be4:	4643      	mov	r3, r8
10004be6:	3301      	adds	r3, #1
10004be8:	930c      	str	r3, [sp, #48]	; 0x30
10004bea:	9b0b      	ldr	r3, [sp, #44]	; 0x2c
10004bec:	4654      	mov	r4, sl
10004bee:	781b      	ldrb	r3, [r3, #0]
10004bf0:	46aa      	mov	sl, r5
10004bf2:	469c      	mov	ip, r3
10004bf4:	465d      	mov	r5, fp
10004bf6:	4660      	mov	r0, ip
10004bf8:	2800      	cmp	r0, #0
10004bfa:	d000      	beq.n	10004bfe <_vsnprintf+0x5b6>
10004bfc:	e68b      	b.n	10004916 <_vsnprintf+0x2ce>
10004bfe:	46b3      	mov	fp, r6
10004c00:	e6af      	b.n	10004962 <_vsnprintf+0x31a>
10004c02:	2108      	movs	r1, #8
10004c04:	2007      	movs	r0, #7
10004c06:	468c      	mov	ip, r1
10004c08:	9a0b      	ldr	r2, [sp, #44]	; 0x2c
10004c0a:	3207      	adds	r2, #7
10004c0c:	4382      	bics	r2, r0
10004c0e:	4494      	add	ip, r2
10004c10:	ca05      	ldmia	r2, {r0, r2}
10004c12:	9308      	str	r3, [sp, #32]
10004c14:	4643      	mov	r3, r8
10004c16:	9307      	str	r3, [sp, #28]
10004c18:	9b0c      	ldr	r3, [sp, #48]	; 0x30
10004c1a:	4661      	mov	r1, ip
10004c1c:	9304      	str	r3, [sp, #16]
10004c1e:	2300      	movs	r3, #0
10004c20:	9305      	str	r3, [sp, #20]
10004c22:	0fd3      	lsrs	r3, r2, #31
10004c24:	9302      	str	r3, [sp, #8]
10004c26:	17d3      	asrs	r3, r2, #31
10004c28:	9310      	str	r3, [sp, #64]	; 0x40
10004c2a:	9311      	str	r3, [sp, #68]	; 0x44
10004c2c:	910b      	str	r1, [sp, #44]	; 0x2c
10004c2e:	9406      	str	r4, [sp, #24]
10004c30:	9b10      	ldr	r3, [sp, #64]	; 0x40
10004c32:	9c11      	ldr	r4, [sp, #68]	; 0x44
10004c34:	0019      	movs	r1, r3
10004c36:	4041      	eors	r1, r0
10004c38:	9112      	str	r1, [sp, #72]	; 0x48
10004c3a:	0021      	movs	r1, r4
10004c3c:	4051      	eors	r1, r2
10004c3e:	9113      	str	r1, [sp, #76]	; 0x4c
10004c40:	9912      	ldr	r1, [sp, #72]	; 0x48
10004c42:	9a13      	ldr	r2, [sp, #76]	; 0x4c
10004c44:	1ac9      	subs	r1, r1, r3
10004c46:	41a2      	sbcs	r2, r4
10004c48:	0013      	movs	r3, r2
10004c4a:	000a      	movs	r2, r1
10004c4c:	9200      	str	r2, [sp, #0]
10004c4e:	9301      	str	r3, [sp, #4]
10004c50:	0039      	movs	r1, r7
10004c52:	0032      	movs	r2, r6
10004c54:	464b      	mov	r3, r9
10004c56:	4650      	mov	r0, sl
10004c58:	f7ff f8b0 	bl	10003dbc <_ntoa_long_long>
10004c5c:	1c6c      	adds	r4, r5, #1
10004c5e:	0006      	movs	r6, r0
10004c60:	e515      	b.n	1000468e <_vsnprintf+0x46>
10004c62:	220a      	movs	r2, #10
10004c64:	920c      	str	r2, [sp, #48]	; 0x30
10004c66:	e759      	b.n	10004b1c <_vsnprintf+0x4d4>
10004c68:	9a0b      	ldr	r2, [sp, #44]	; 0x2c
10004c6a:	ca01      	ldmia	r2!, {r0}
10004c6c:	4694      	mov	ip, r2
10004c6e:	22ff      	movs	r2, #255	; 0xff
10004c70:	4661      	mov	r1, ip
10004c72:	4002      	ands	r2, r0
10004c74:	0010      	movs	r0, r2
10004c76:	910b      	str	r1, [sp, #44]	; 0x2c
10004c78:	e5d8      	b.n	1000482c <_vsnprintf+0x1e4>
10004c7a:	c804      	ldmia	r0!, {r2}
10004c7c:	4694      	mov	ip, r2
10004c7e:	22ff      	movs	r2, #255	; 0xff
10004c80:	4661      	mov	r1, ip
10004c82:	900b      	str	r0, [sp, #44]	; 0x2c
10004c84:	400a      	ands	r2, r1
10004c86:	e736      	b.n	10004af6 <_vsnprintf+0x4ae>
10004c88:	465b      	mov	r3, fp
10004c8a:	0026      	movs	r6, r4
10004c8c:	930b      	str	r3, [sp, #44]	; 0x2c
10004c8e:	1c6c      	adds	r4, r5, #1
10004c90:	e4fd      	b.n	1000468e <_vsnprintf+0x46>
10004c92:	2308      	movs	r3, #8
10004c94:	930c      	str	r3, [sp, #48]	; 0x30
10004c96:	0013      	movs	r3, r2
10004c98:	001a      	movs	r2, r3
10004c9a:	2864      	cmp	r0, #100	; 0x64
10004c9c:	d000      	beq.n	10004ca0 <_vsnprintf+0x658>
10004c9e:	e709      	b.n	10004ab4 <_vsnprintf+0x46c>
10004ca0:	055a      	lsls	r2, r3, #21
10004ca2:	d400      	bmi.n	10004ca6 <_vsnprintf+0x65e>
10004ca4:	e5ab      	b.n	100047fe <_vsnprintf+0x1b6>
10004ca6:	e739      	b.n	10004b1c <_vsnprintf+0x4d4>
10004ca8:	9308      	str	r3, [sp, #32]
10004caa:	4643      	mov	r3, r8
10004cac:	2007      	movs	r0, #7
10004cae:	9a0b      	ldr	r2, [sp, #44]	; 0x2c
10004cb0:	9307      	str	r3, [sp, #28]
10004cb2:	9b0c      	ldr	r3, [sp, #48]	; 0x30
10004cb4:	3207      	adds	r2, #7
10004cb6:	4382      	bics	r2, r0
10004cb8:	9304      	str	r3, [sp, #16]
10004cba:	2300      	movs	r3, #0
10004cbc:	0011      	movs	r1, r2
10004cbe:	9406      	str	r4, [sp, #24]
10004cc0:	9305      	str	r3, [sp, #20]
10004cc2:	9302      	str	r3, [sp, #8]
10004cc4:	c90c      	ldmia	r1!, {r2, r3}
10004cc6:	910b      	str	r1, [sp, #44]	; 0x2c
10004cc8:	e7c0      	b.n	10004c4c <_vsnprintf+0x604>
10004cca:	9a0b      	ldr	r2, [sp, #44]	; 0x2c
10004ccc:	0011      	movs	r1, r2
10004cce:	c904      	ldmia	r1!, {r2}
10004cd0:	9305      	str	r3, [sp, #20]
10004cd2:	4643      	mov	r3, r8
10004cd4:	468b      	mov	fp, r1
10004cd6:	9304      	str	r3, [sp, #16]
10004cd8:	9b0c      	ldr	r3, [sp, #48]	; 0x30
10004cda:	9403      	str	r4, [sp, #12]
10004cdc:	9302      	str	r3, [sp, #8]
10004cde:	0fd3      	lsrs	r3, r2, #31
10004ce0:	9301      	str	r3, [sp, #4]
10004ce2:	17d3      	asrs	r3, r2, #31
10004ce4:	18d2      	adds	r2, r2, r3
10004ce6:	405a      	eors	r2, r3
10004ce8:	9200      	str	r2, [sp, #0]
10004cea:	464b      	mov	r3, r9
10004cec:	0032      	movs	r2, r6
10004cee:	0039      	movs	r1, r7
10004cf0:	4650      	mov	r0, sl
10004cf2:	f7ff f807 	bl	10003d04 <_ntoa_long>
10004cf6:	465b      	mov	r3, fp
10004cf8:	0006      	movs	r6, r0
10004cfa:	930b      	str	r3, [sp, #44]	; 0x2c
10004cfc:	1c6c      	adds	r4, r5, #1
10004cfe:	e4c6      	b.n	1000468e <_vsnprintf+0x46>
10004d00:	2302      	movs	r3, #2
10004d02:	930c      	str	r3, [sp, #48]	; 0x30
10004d04:	e7c7      	b.n	10004c96 <_vsnprintf+0x64e>
10004d06:	9305      	str	r3, [sp, #20]
10004d08:	4643      	mov	r3, r8
10004d0a:	9304      	str	r3, [sp, #16]
10004d0c:	9b0c      	ldr	r3, [sp, #48]	; 0x30
10004d0e:	9a0b      	ldr	r2, [sp, #44]	; 0x2c
10004d10:	9403      	str	r4, [sp, #12]
10004d12:	9302      	str	r3, [sp, #8]
10004d14:	9001      	str	r0, [sp, #4]
10004d16:	ca08      	ldmia	r2!, {r3}
10004d18:	4693      	mov	fp, r2
10004d1a:	9300      	str	r3, [sp, #0]
10004d1c:	e7e5      	b.n	10004cea <_vsnprintf+0x6a2>
10004d1e:	c904      	ldmia	r1!, {r2}
10004d20:	468c      	mov	ip, r1
10004d22:	17d1      	asrs	r1, r2, #31
10004d24:	1850      	adds	r0, r2, r1
10004d26:	4048      	eors	r0, r1
10004d28:	4661      	mov	r1, ip
10004d2a:	910b      	str	r1, [sp, #44]	; 0x2c
10004d2c:	e57e      	b.n	1000482c <_vsnprintf+0x1e4>
10004d2e:	2300      	movs	r3, #0
10004d30:	930c      	str	r3, [sp, #48]	; 0x30
10004d32:	e5da      	b.n	100048ea <_vsnprintf+0x2a2>
10004d34:	c804      	ldmia	r0!, {r2}
10004d36:	900b      	str	r0, [sp, #44]	; 0x2c
10004d38:	e6dd      	b.n	10004af6 <_vsnprintf+0x4ae>
10004d3a:	930c      	str	r3, [sp, #48]	; 0x30
10004d3c:	e75b      	b.n	10004bf6 <_vsnprintf+0x5ae>
10004d3e:	0034      	movs	r4, r6
10004d40:	e717      	b.n	10004b72 <_vsnprintf+0x52a>
10004d42:	220a      	movs	r2, #10
10004d44:	920c      	str	r2, [sp, #48]	; 0x30
10004d46:	e7a7      	b.n	10004c98 <_vsnprintf+0x650>
10004d48:	10003a95 	.word	0x10003a95

10004d4c <__wrap_snprintf>:
10004d4c:	b40c      	push	{r2, r3}
10004d4e:	b510      	push	{r4, lr}
10004d50:	b084      	sub	sp, #16
10004d52:	ac06      	add	r4, sp, #24
10004d54:	cc08      	ldmia	r4!, {r3}
10004d56:	000a      	movs	r2, r1
10004d58:	9400      	str	r4, [sp, #0]
10004d5a:	0001      	movs	r1, r0
10004d5c:	4804      	ldr	r0, [pc, #16]	; (10004d70 <__wrap_snprintf+0x24>)
10004d5e:	9403      	str	r4, [sp, #12]
10004d60:	f7ff fc72 	bl	10004648 <_vsnprintf>
10004d64:	b004      	add	sp, #16
10004d66:	bc10      	pop	{r4}
10004d68:	bc08      	pop	{r3}
10004d6a:	b002      	add	sp, #8
10004d6c:	4718      	bx	r3
10004d6e:	46c0      	nop			; (mov r8, r8)
10004d70:	10003a8d 	.word	0x10003a8d

10004d74 <vfctprintf>:
10004d74:	b500      	push	{lr}
10004d76:	b085      	sub	sp, #20
10004d78:	9103      	str	r1, [sp, #12]
10004d7a:	2101      	movs	r1, #1
10004d7c:	9002      	str	r0, [sp, #8]
10004d7e:	9300      	str	r3, [sp, #0]
10004d80:	4803      	ldr	r0, [pc, #12]	; (10004d90 <vfctprintf+0x1c>)
10004d82:	0013      	movs	r3, r2
10004d84:	424a      	negs	r2, r1
10004d86:	a902      	add	r1, sp, #8
10004d88:	f7ff fc5e 	bl	10004648 <_vsnprintf>
10004d8c:	b005      	add	sp, #20
10004d8e:	bd00      	pop	{pc}
10004d90:	10004639 	.word	0x10004639

10004d94 <weak_raw_vprintf>:
10004d94:	b510      	push	{r4, lr}
10004d96:	4a09      	ldr	r2, [pc, #36]	; (10004dbc <weak_raw_vprintf+0x28>)
10004d98:	0003      	movs	r3, r0
10004d9a:	6814      	ldr	r4, [r2, #0]
10004d9c:	b084      	sub	sp, #16
10004d9e:	2c00      	cmp	r4, #0
10004da0:	d008      	beq.n	10004db4 <weak_raw_vprintf+0x20>
10004da2:	2201      	movs	r2, #1
10004da4:	9100      	str	r1, [sp, #0]
10004da6:	4806      	ldr	r0, [pc, #24]	; (10004dc0 <weak_raw_vprintf+0x2c>)
10004da8:	4252      	negs	r2, r2
10004daa:	a903      	add	r1, sp, #12
10004dac:	47a0      	blx	r4
10004dae:	2001      	movs	r0, #1
10004db0:	b004      	add	sp, #16
10004db2:	bd10      	pop	{r4, pc}
10004db4:	f000 f99a 	bl	100050ec <__wrap_puts>
10004db8:	2000      	movs	r0, #0
10004dba:	e7f9      	b.n	10004db0 <weak_raw_vprintf+0x1c>
10004dbc:	20000bc8 	.word	0x20000bc8
10004dc0:	10004629 	.word	0x10004629

10004dc4 <_exit>:
10004dc4:	be00      	bkpt	0x0000
10004dc6:	e7fd      	b.n	10004dc4 <_exit>

10004dc8 <exit>:
10004dc8:	b510      	push	{r4, lr}
10004dca:	f7ff fffb 	bl	10004dc4 <_exit>
10004dce:	46c0      	nop			; (mov r8, r8)

10004dd0 <runtime_init>:
10004dd0:	b570      	push	{r4, r5, r6, lr}
10004dd2:	f7fd fecb 	bl	10002b6c <runtime_run_initializers>
10004dd6:	4d07      	ldr	r5, [pc, #28]	; (10004df4 <runtime_init+0x24>)
10004dd8:	4e07      	ldr	r6, [pc, #28]	; (10004df8 <runtime_init+0x28>)
10004dda:	42b5      	cmp	r5, r6
10004ddc:	d209      	bcs.n	10004df2 <runtime_init+0x22>
10004dde:	2400      	movs	r4, #0
10004de0:	3e01      	subs	r6, #1
10004de2:	1b76      	subs	r6, r6, r5
10004de4:	08b6      	lsrs	r6, r6, #2
10004de6:	cd08      	ldmia	r5!, {r3}
10004de8:	4798      	blx	r3
10004dea:	0023      	movs	r3, r4
10004dec:	3401      	adds	r4, #1
10004dee:	42b3      	cmp	r3, r6
10004df0:	d1f9      	bne.n	10004de6 <runtime_init+0x16>
10004df2:	bd70      	pop	{r4, r5, r6, pc}
10004df4:	10005604 	.word	0x10005604
10004df8:	1000560c 	.word	0x1000560c

10004dfc <stdio_out_chars_no_crlf>:
10004dfc:	0003      	movs	r3, r0
10004dfe:	b510      	push	{r4, lr}
10004e00:	0008      	movs	r0, r1
10004e02:	0011      	movs	r1, r2
10004e04:	681b      	ldr	r3, [r3, #0]
10004e06:	4798      	blx	r3
10004e08:	bd10      	pop	{r4, pc}
10004e0a:	46c0      	nop			; (mov r8, r8)

10004e0c <stdio_out_chars_crlf.part.0>:
10004e0c:	b5f0      	push	{r4, r5, r6, r7, lr}
10004e0e:	4646      	mov	r6, r8
10004e10:	464f      	mov	r7, r9
10004e12:	46d6      	mov	lr, sl
10004e14:	4680      	mov	r8, r0
10004e16:	b5c0      	push	{r6, r7, lr}
10004e18:	000e      	movs	r6, r1
10004e1a:	1e17      	subs	r7, r2, #0
10004e1c:	dd3f      	ble.n	10004e9e <stdio_out_chars_crlf.part.0+0x92>
10004e1e:	1e4b      	subs	r3, r1, #1
10004e20:	4699      	mov	r9, r3
10004e22:	4b21      	ldr	r3, [pc, #132]	; (10004ea8 <stdio_out_chars_crlf.part.0+0x9c>)
10004e24:	2501      	movs	r5, #1
10004e26:	2400      	movs	r4, #0
10004e28:	2000      	movs	r0, #0
10004e2a:	469a      	mov	sl, r3
10004e2c:	e00d      	b.n	10004e4a <stdio_out_chars_crlf.part.0+0x3e>
10004e2e:	464b      	mov	r3, r9
10004e30:	5d1b      	ldrb	r3, [r3, r4]
10004e32:	3b0d      	subs	r3, #13
10004e34:	425a      	negs	r2, r3
10004e36:	4153      	adcs	r3, r2
10004e38:	5d32      	ldrb	r2, [r6, r4]
10004e3a:	b2db      	uxtb	r3, r3
10004e3c:	2a0a      	cmp	r2, #10
10004e3e:	d00b      	beq.n	10004e58 <stdio_out_chars_crlf.part.0+0x4c>
10004e40:	002b      	movs	r3, r5
10004e42:	3401      	adds	r4, #1
10004e44:	3501      	adds	r5, #1
10004e46:	429f      	cmp	r7, r3
10004e48:	dd1a      	ble.n	10004e80 <stdio_out_chars_crlf.part.0+0x74>
10004e4a:	2c00      	cmp	r4, #0
10004e4c:	d1ef      	bne.n	10004e2e <stdio_out_chars_crlf.part.0+0x22>
10004e4e:	4643      	mov	r3, r8
10004e50:	5d32      	ldrb	r2, [r6, r4]
10004e52:	7d1b      	ldrb	r3, [r3, #20]
10004e54:	2a0a      	cmp	r2, #10
10004e56:	d1f3      	bne.n	10004e40 <stdio_out_chars_crlf.part.0+0x34>
10004e58:	2b00      	cmp	r3, #0
10004e5a:	d1f1      	bne.n	10004e40 <stdio_out_chars_crlf.part.0+0x34>
10004e5c:	42a0      	cmp	r0, r4
10004e5e:	da04      	bge.n	10004e6a <stdio_out_chars_crlf.part.0+0x5e>
10004e60:	4643      	mov	r3, r8
10004e62:	1a21      	subs	r1, r4, r0
10004e64:	681b      	ldr	r3, [r3, #0]
10004e66:	1830      	adds	r0, r6, r0
10004e68:	4798      	blx	r3
10004e6a:	4643      	mov	r3, r8
10004e6c:	4650      	mov	r0, sl
10004e6e:	681b      	ldr	r3, [r3, #0]
10004e70:	2102      	movs	r1, #2
10004e72:	4798      	blx	r3
10004e74:	3401      	adds	r4, #1
10004e76:	0028      	movs	r0, r5
10004e78:	002b      	movs	r3, r5
10004e7a:	3501      	adds	r5, #1
10004e7c:	429f      	cmp	r7, r3
10004e7e:	dce4      	bgt.n	10004e4a <stdio_out_chars_crlf.part.0+0x3e>
10004e80:	4287      	cmp	r7, r0
10004e82:	dd04      	ble.n	10004e8e <stdio_out_chars_crlf.part.0+0x82>
10004e84:	4643      	mov	r3, r8
10004e86:	1a39      	subs	r1, r7, r0
10004e88:	681b      	ldr	r3, [r3, #0]
10004e8a:	1830      	adds	r0, r6, r0
10004e8c:	4798      	blx	r3
10004e8e:	19f6      	adds	r6, r6, r7
10004e90:	3e01      	subs	r6, #1
10004e92:	7833      	ldrb	r3, [r6, #0]
10004e94:	3b0d      	subs	r3, #13
10004e96:	425a      	negs	r2, r3
10004e98:	4153      	adcs	r3, r2
10004e9a:	4642      	mov	r2, r8
10004e9c:	7513      	strb	r3, [r2, #20]
10004e9e:	bce0      	pop	{r5, r6, r7}
10004ea0:	46ba      	mov	sl, r7
10004ea2:	46b1      	mov	r9, r6
10004ea4:	46a8      	mov	r8, r5
10004ea6:	bdf0      	pop	{r4, r5, r6, r7, pc}
10004ea8:	100063c0 	.word	0x100063c0

10004eac <stdio_out_chars_crlf>:
10004eac:	b510      	push	{r4, lr}
10004eae:	000b      	movs	r3, r1
10004eb0:	7d41      	ldrb	r1, [r0, #21]
10004eb2:	2900      	cmp	r1, #0
10004eb4:	d003      	beq.n	10004ebe <stdio_out_chars_crlf+0x12>
10004eb6:	0019      	movs	r1, r3
10004eb8:	f7ff ffa8 	bl	10004e0c <stdio_out_chars_crlf.part.0>
10004ebc:	bd10      	pop	{r4, pc}
10004ebe:	6804      	ldr	r4, [r0, #0]
10004ec0:	0011      	movs	r1, r2
10004ec2:	0018      	movs	r0, r3
10004ec4:	47a0      	blx	r4
10004ec6:	e7f9      	b.n	10004ebc <stdio_out_chars_crlf+0x10>

10004ec8 <stdio_stack_buffer_flush.part.0>:
10004ec8:	b5f0      	push	{r4, r5, r6, r7, lr}
10004eca:	46c6      	mov	lr, r8
10004ecc:	4b14      	ldr	r3, [pc, #80]	; (10004f20 <stdio_stack_buffer_flush.part.0+0x58>)
10004ece:	0006      	movs	r6, r0
10004ed0:	681c      	ldr	r4, [r3, #0]
10004ed2:	b500      	push	{lr}
10004ed4:	2c00      	cmp	r4, #0
10004ed6:	d019      	beq.n	10004f0c <stdio_stack_buffer_flush.part.0+0x44>
10004ed8:	1d03      	adds	r3, r0, #4
10004eda:	4698      	mov	r8, r3
10004edc:	4f11      	ldr	r7, [pc, #68]	; (10004f24 <stdio_stack_buffer_flush.part.0+0x5c>)
10004ede:	e002      	b.n	10004ee6 <stdio_stack_buffer_flush.part.0+0x1e>
10004ee0:	6924      	ldr	r4, [r4, #16]
10004ee2:	2c00      	cmp	r4, #0
10004ee4:	d012      	beq.n	10004f0c <stdio_stack_buffer_flush.part.0+0x44>
10004ee6:	6825      	ldr	r5, [r4, #0]
10004ee8:	2d00      	cmp	r5, #0
10004eea:	d0f9      	beq.n	10004ee0 <stdio_stack_buffer_flush.part.0+0x18>
10004eec:	683b      	ldr	r3, [r7, #0]
10004eee:	2b00      	cmp	r3, #0
10004ef0:	d001      	beq.n	10004ef6 <stdio_stack_buffer_flush.part.0+0x2e>
10004ef2:	42a3      	cmp	r3, r4
10004ef4:	d1f4      	bne.n	10004ee0 <stdio_stack_buffer_flush.part.0+0x18>
10004ef6:	7d63      	ldrb	r3, [r4, #21]
10004ef8:	6832      	ldr	r2, [r6, #0]
10004efa:	2b00      	cmp	r3, #0
10004efc:	d00b      	beq.n	10004f16 <stdio_stack_buffer_flush.part.0+0x4e>
10004efe:	0020      	movs	r0, r4
10004f00:	4641      	mov	r1, r8
10004f02:	f7ff ff83 	bl	10004e0c <stdio_out_chars_crlf.part.0>
10004f06:	6924      	ldr	r4, [r4, #16]
10004f08:	2c00      	cmp	r4, #0
10004f0a:	d1ec      	bne.n	10004ee6 <stdio_stack_buffer_flush.part.0+0x1e>
10004f0c:	2300      	movs	r3, #0
10004f0e:	6033      	str	r3, [r6, #0]
10004f10:	bc80      	pop	{r7}
10004f12:	46b8      	mov	r8, r7
10004f14:	bdf0      	pop	{r4, r5, r6, r7, pc}
10004f16:	0011      	movs	r1, r2
10004f18:	4640      	mov	r0, r8
10004f1a:	47a8      	blx	r5
10004f1c:	e7e0      	b.n	10004ee0 <stdio_stack_buffer_flush.part.0+0x18>
10004f1e:	46c0      	nop			; (mov r8, r8)
10004f20:	20000bc0 	.word	0x20000bc0
10004f24:	20000bc4 	.word	0x20000bc4

10004f28 <stdio_buffered_printer>:
10004f28:	b570      	push	{r4, r5, r6, lr}
10004f2a:	000c      	movs	r4, r1
10004f2c:	6809      	ldr	r1, [r1, #0]
10004f2e:	0005      	movs	r5, r0
10004f30:	2980      	cmp	r1, #128	; 0x80
10004f32:	d004      	beq.n	10004f3e <stdio_buffered_printer+0x16>
10004f34:	1c4b      	adds	r3, r1, #1
10004f36:	6023      	str	r3, [r4, #0]
10004f38:	1864      	adds	r4, r4, r1
10004f3a:	7125      	strb	r5, [r4, #4]
10004f3c:	bd70      	pop	{r4, r5, r6, pc}
10004f3e:	0020      	movs	r0, r4
10004f40:	f7ff ffc2 	bl	10004ec8 <stdio_stack_buffer_flush.part.0>
10004f44:	6821      	ldr	r1, [r4, #0]
10004f46:	e7f5      	b.n	10004f34 <stdio_buffered_printer+0xc>

10004f48 <stdio_put_string>:
10004f48:	b5f0      	push	{r4, r5, r6, r7, lr}
10004f4a:	46de      	mov	lr, fp
10004f4c:	4657      	mov	r7, sl
10004f4e:	464e      	mov	r6, r9
10004f50:	4645      	mov	r5, r8
10004f52:	b5e0      	push	{r5, r6, r7, lr}
10004f54:	b085      	sub	sp, #20
10004f56:	0017      	movs	r7, r2
10004f58:	001c      	movs	r4, r3
10004f5a:	0006      	movs	r6, r0
10004f5c:	000d      	movs	r5, r1
10004f5e:	f7fd fc07 	bl	10002770 <time_us_64>
10004f62:	2300      	movs	r3, #0
10004f64:	4a27      	ldr	r2, [pc, #156]	; (10005004 <stdio_put_string+0xbc>)
10004f66:	1812      	adds	r2, r2, r0
10004f68:	414b      	adcs	r3, r1
10004f6a:	2b00      	cmp	r3, #0
10004f6c:	db46      	blt.n	10004ffc <stdio_put_string+0xb4>
10004f6e:	4926      	ldr	r1, [pc, #152]	; (10005008 <stdio_put_string+0xc0>)
10004f70:	0008      	movs	r0, r1
10004f72:	468a      	mov	sl, r1
10004f74:	f000 fb20 	bl	100055b8 <__mutex_try_enter_block_until_veneer>
10004f78:	9001      	str	r0, [sp, #4]
10004f7a:	1c6b      	adds	r3, r5, #1
10004f7c:	d103      	bne.n	10004f86 <stdio_put_string+0x3e>
10004f7e:	0030      	movs	r0, r6
10004f80:	f000 f9c2 	bl	10005308 <strlen>
10004f84:	0005      	movs	r5, r0
10004f86:	2c00      	cmp	r4, #0
10004f88:	d131      	bne.n	10004fee <stdio_put_string+0xa6>
10004f8a:	4b20      	ldr	r3, [pc, #128]	; (1000500c <stdio_put_string+0xc4>)
10004f8c:	4699      	mov	r9, r3
10004f8e:	4b20      	ldr	r3, [pc, #128]	; (10005010 <stdio_put_string+0xc8>)
10004f90:	681c      	ldr	r4, [r3, #0]
10004f92:	2c00      	cmp	r4, #0
10004f94:	d020      	beq.n	10004fd8 <stdio_put_string+0x90>
10004f96:	4b1f      	ldr	r3, [pc, #124]	; (10005014 <stdio_put_string+0xcc>)
10004f98:	4698      	mov	r8, r3
10004f9a:	230a      	movs	r3, #10
10004f9c:	469b      	mov	fp, r3
10004f9e:	e002      	b.n	10004fa6 <stdio_put_string+0x5e>
10004fa0:	6924      	ldr	r4, [r4, #16]
10004fa2:	2c00      	cmp	r4, #0
10004fa4:	d018      	beq.n	10004fd8 <stdio_put_string+0x90>
10004fa6:	6823      	ldr	r3, [r4, #0]
10004fa8:	2b00      	cmp	r3, #0
10004faa:	d0f9      	beq.n	10004fa0 <stdio_put_string+0x58>
10004fac:	4643      	mov	r3, r8
10004fae:	681b      	ldr	r3, [r3, #0]
10004fb0:	2b00      	cmp	r3, #0
10004fb2:	d001      	beq.n	10004fb8 <stdio_put_string+0x70>
10004fb4:	42a3      	cmp	r3, r4
10004fb6:	d1f3      	bne.n	10004fa0 <stdio_put_string+0x58>
10004fb8:	002a      	movs	r2, r5
10004fba:	0031      	movs	r1, r6
10004fbc:	0020      	movs	r0, r4
10004fbe:	47c8      	blx	r9
10004fc0:	2f00      	cmp	r7, #0
10004fc2:	d0ed      	beq.n	10004fa0 <stdio_put_string+0x58>
10004fc4:	465a      	mov	r2, fp
10004fc6:	ab02      	add	r3, sp, #8
10004fc8:	0020      	movs	r0, r4
10004fca:	71da      	strb	r2, [r3, #7]
10004fcc:	1dd9      	adds	r1, r3, #7
10004fce:	2201      	movs	r2, #1
10004fd0:	47c8      	blx	r9
10004fd2:	6924      	ldr	r4, [r4, #16]
10004fd4:	2c00      	cmp	r4, #0
10004fd6:	d1e6      	bne.n	10004fa6 <stdio_put_string+0x5e>
10004fd8:	9b01      	ldr	r3, [sp, #4]
10004fda:	2b00      	cmp	r3, #0
10004fdc:	d10a      	bne.n	10004ff4 <stdio_put_string+0xac>
10004fde:	0028      	movs	r0, r5
10004fe0:	b005      	add	sp, #20
10004fe2:	bcf0      	pop	{r4, r5, r6, r7}
10004fe4:	46bb      	mov	fp, r7
10004fe6:	46b2      	mov	sl, r6
10004fe8:	46a9      	mov	r9, r5
10004fea:	46a0      	mov	r8, r4
10004fec:	bdf0      	pop	{r4, r5, r6, r7, pc}
10004fee:	4b0a      	ldr	r3, [pc, #40]	; (10005018 <stdio_put_string+0xd0>)
10004ff0:	4699      	mov	r9, r3
10004ff2:	e7cc      	b.n	10004f8e <stdio_put_string+0x46>
10004ff4:	4650      	mov	r0, sl
10004ff6:	f000 fab7 	bl	10005568 <__mutex_exit_veneer>
10004ffa:	e7f0      	b.n	10004fde <stdio_put_string+0x96>
10004ffc:	2201      	movs	r2, #1
10004ffe:	4b07      	ldr	r3, [pc, #28]	; (1000501c <stdio_put_string+0xd4>)
10005000:	4252      	negs	r2, r2
10005002:	e7b4      	b.n	10004f6e <stdio_put_string+0x26>
10005004:	000f4240 	.word	0x000f4240
10005008:	200008f0 	.word	0x200008f0
1000500c:	10004dfd 	.word	0x10004dfd
10005010:	20000bc0 	.word	0x20000bc0
10005014:	20000bc4 	.word	0x20000bc4
10005018:	10004ead 	.word	0x10004ead
1000501c:	7fffffff 	.word	0x7fffffff

10005020 <stdio_get_until>:
10005020:	b5f8      	push	{r3, r4, r5, r6, r7, lr}
10005022:	4657      	mov	r7, sl
10005024:	464e      	mov	r6, r9
10005026:	4645      	mov	r5, r8
10005028:	46de      	mov	lr, fp
1000502a:	4698      	mov	r8, r3
1000502c:	4b1a      	ldr	r3, [pc, #104]	; (10005098 <stdio_get_until+0x78>)
1000502e:	b5e0      	push	{r5, r6, r7, lr}
10005030:	469a      	mov	sl, r3
10005032:	4b1a      	ldr	r3, [pc, #104]	; (1000509c <stdio_get_until+0x7c>)
10005034:	0007      	movs	r7, r0
10005036:	000e      	movs	r6, r1
10005038:	4693      	mov	fp, r2
1000503a:	4699      	mov	r9, r3
1000503c:	4d18      	ldr	r5, [pc, #96]	; (100050a0 <stdio_get_until+0x80>)
1000503e:	4653      	mov	r3, sl
10005040:	681c      	ldr	r4, [r3, #0]
10005042:	2c00      	cmp	r4, #0
10005044:	d103      	bne.n	1000504e <stdio_get_until+0x2e>
10005046:	e015      	b.n	10005074 <stdio_get_until+0x54>
10005048:	6924      	ldr	r4, [r4, #16]
1000504a:	2c00      	cmp	r4, #0
1000504c:	d012      	beq.n	10005074 <stdio_get_until+0x54>
1000504e:	682b      	ldr	r3, [r5, #0]
10005050:	2b00      	cmp	r3, #0
10005052:	d001      	beq.n	10005058 <stdio_get_until+0x38>
10005054:	42a3      	cmp	r3, r4
10005056:	d1f7      	bne.n	10005048 <stdio_get_until+0x28>
10005058:	68a3      	ldr	r3, [r4, #8]
1000505a:	2b00      	cmp	r3, #0
1000505c:	d0f4      	beq.n	10005048 <stdio_get_until+0x28>
1000505e:	0031      	movs	r1, r6
10005060:	0038      	movs	r0, r7
10005062:	4798      	blx	r3
10005064:	2800      	cmp	r0, #0
10005066:	ddef      	ble.n	10005048 <stdio_get_until+0x28>
10005068:	bcf0      	pop	{r4, r5, r6, r7}
1000506a:	46bb      	mov	fp, r7
1000506c:	46b2      	mov	sl, r6
1000506e:	46a9      	mov	r9, r5
10005070:	46a0      	mov	r8, r4
10005072:	bdf8      	pop	{r3, r4, r5, r6, r7, pc}
10005074:	464b      	mov	r3, r9
10005076:	6a5b      	ldr	r3, [r3, #36]	; 0x24
10005078:	4598      	cmp	r8, r3
1000507a:	d808      	bhi.n	1000508e <stdio_get_until+0x6e>
1000507c:	464a      	mov	r2, r9
1000507e:	6a92      	ldr	r2, [r2, #40]	; 0x28
10005080:	455a      	cmp	r2, fp
10005082:	d201      	bcs.n	10005088 <stdio_get_until+0x68>
10005084:	4598      	cmp	r8, r3
10005086:	d002      	beq.n	1000508e <stdio_get_until+0x6e>
10005088:	2002      	movs	r0, #2
1000508a:	4240      	negs	r0, r0
1000508c:	e7ec      	b.n	10005068 <stdio_get_until+0x48>
1000508e:	2001      	movs	r0, #1
10005090:	2100      	movs	r1, #0
10005092:	f7fd fbab 	bl	100027ec <busy_wait_us>
10005096:	e7d2      	b.n	1000503e <stdio_get_until+0x1e>
10005098:	20000bc0 	.word	0x20000bc0
1000509c:	40054000 	.word	0x40054000
100050a0:	20000bc4 	.word	0x20000bc4

100050a4 <stdio_init_all>:
100050a4:	b510      	push	{r4, lr}
100050a6:	f000 f889 	bl	100051bc <stdio_usb_init>
100050aa:	bd10      	pop	{r4, pc}

100050ac <__wrap_getchar>:
100050ac:	b500      	push	{lr}
100050ae:	4b07      	ldr	r3, [pc, #28]	; (100050cc <__wrap_getchar+0x20>)
100050b0:	b083      	sub	sp, #12
100050b2:	2101      	movs	r1, #1
100050b4:	681a      	ldr	r2, [r3, #0]
100050b6:	685b      	ldr	r3, [r3, #4]
100050b8:	a801      	add	r0, sp, #4
100050ba:	f7ff ffb1 	bl	10005020 <stdio_get_until>
100050be:	2800      	cmp	r0, #0
100050c0:	db01      	blt.n	100050c6 <__wrap_getchar+0x1a>
100050c2:	466b      	mov	r3, sp
100050c4:	7918      	ldrb	r0, [r3, #4]
100050c6:	b003      	add	sp, #12
100050c8:	bd00      	pop	{pc}
100050ca:	46c0      	nop			; (mov r8, r8)
100050cc:	100060a8 	.word	0x100060a8

100050d0 <__wrap_putchar>:
100050d0:	b510      	push	{r4, lr}
100050d2:	b082      	sub	sp, #8
100050d4:	466b      	mov	r3, sp
100050d6:	0004      	movs	r4, r0
100050d8:	2200      	movs	r2, #0
100050da:	1dd8      	adds	r0, r3, #7
100050dc:	2101      	movs	r1, #1
100050de:	2301      	movs	r3, #1
100050e0:	7004      	strb	r4, [r0, #0]
100050e2:	f7ff ff31 	bl	10004f48 <stdio_put_string>
100050e6:	0020      	movs	r0, r4
100050e8:	b002      	add	sp, #8
100050ea:	bd10      	pop	{r4, pc}

100050ec <__wrap_puts>:
100050ec:	b570      	push	{r4, r5, r6, lr}
100050ee:	0004      	movs	r4, r0
100050f0:	f000 f90a 	bl	10005308 <strlen>
100050f4:	2301      	movs	r3, #1
100050f6:	0001      	movs	r1, r0
100050f8:	0005      	movs	r5, r0
100050fa:	2201      	movs	r2, #1
100050fc:	0020      	movs	r0, r4
100050fe:	f7ff ff23 	bl	10004f48 <stdio_put_string>
10005102:	4b06      	ldr	r3, [pc, #24]	; (1000511c <__wrap_puts+0x30>)
10005104:	681c      	ldr	r4, [r3, #0]
10005106:	2c00      	cmp	r4, #0
10005108:	d006      	beq.n	10005118 <__wrap_puts+0x2c>
1000510a:	6863      	ldr	r3, [r4, #4]
1000510c:	2b00      	cmp	r3, #0
1000510e:	d000      	beq.n	10005112 <__wrap_puts+0x26>
10005110:	4798      	blx	r3
10005112:	6924      	ldr	r4, [r4, #16]
10005114:	2c00      	cmp	r4, #0
10005116:	d1f8      	bne.n	1000510a <__wrap_puts+0x1e>
10005118:	0028      	movs	r0, r5
1000511a:	bd70      	pop	{r4, r5, r6, pc}
1000511c:	20000bc0 	.word	0x20000bc0

10005120 <__wrap_vprintf>:
10005120:	b5f0      	push	{r4, r5, r6, r7, lr}
10005122:	b0a3      	sub	sp, #140	; 0x8c
10005124:	0004      	movs	r4, r0
10005126:	000d      	movs	r5, r1
10005128:	f7fd fb22 	bl	10002770 <time_us_64>
1000512c:	2300      	movs	r3, #0
1000512e:	4a18      	ldr	r2, [pc, #96]	; (10005190 <__wrap_vprintf+0x70>)
10005130:	1812      	adds	r2, r2, r0
10005132:	414b      	adcs	r3, r1
10005134:	2b00      	cmp	r3, #0
10005136:	db27      	blt.n	10005188 <__wrap_vprintf+0x68>
10005138:	4e16      	ldr	r6, [pc, #88]	; (10005194 <__wrap_vprintf+0x74>)
1000513a:	0030      	movs	r0, r6
1000513c:	f000 fa3c 	bl	100055b8 <__mutex_try_enter_block_until_veneer>
10005140:	2300      	movs	r3, #0
10005142:	0007      	movs	r7, r0
10005144:	9301      	str	r3, [sp, #4]
10005146:	0022      	movs	r2, r4
10005148:	002b      	movs	r3, r5
1000514a:	4813      	ldr	r0, [pc, #76]	; (10005198 <__wrap_vprintf+0x78>)
1000514c:	a901      	add	r1, sp, #4
1000514e:	f7ff fe11 	bl	10004d74 <vfctprintf>
10005152:	9b01      	ldr	r3, [sp, #4]
10005154:	0005      	movs	r5, r0
10005156:	2b00      	cmp	r3, #0
10005158:	d002      	beq.n	10005160 <__wrap_vprintf+0x40>
1000515a:	a801      	add	r0, sp, #4
1000515c:	f7ff feb4 	bl	10004ec8 <stdio_stack_buffer_flush.part.0>
10005160:	4b0e      	ldr	r3, [pc, #56]	; (1000519c <__wrap_vprintf+0x7c>)
10005162:	681c      	ldr	r4, [r3, #0]
10005164:	2c00      	cmp	r4, #0
10005166:	d006      	beq.n	10005176 <__wrap_vprintf+0x56>
10005168:	6863      	ldr	r3, [r4, #4]
1000516a:	2b00      	cmp	r3, #0
1000516c:	d000      	beq.n	10005170 <__wrap_vprintf+0x50>
1000516e:	4798      	blx	r3
10005170:	6924      	ldr	r4, [r4, #16]
10005172:	2c00      	cmp	r4, #0
10005174:	d1f8      	bne.n	10005168 <__wrap_vprintf+0x48>
10005176:	2f00      	cmp	r7, #0
10005178:	d102      	bne.n	10005180 <__wrap_vprintf+0x60>
1000517a:	0028      	movs	r0, r5
1000517c:	b023      	add	sp, #140	; 0x8c
1000517e:	bdf0      	pop	{r4, r5, r6, r7, pc}
10005180:	0030      	movs	r0, r6
10005182:	f000 f9f1 	bl	10005568 <__mutex_exit_veneer>
10005186:	e7f8      	b.n	1000517a <__wrap_vprintf+0x5a>
10005188:	2201      	movs	r2, #1
1000518a:	4b05      	ldr	r3, [pc, #20]	; (100051a0 <__wrap_vprintf+0x80>)
1000518c:	4252      	negs	r2, r2
1000518e:	e7d3      	b.n	10005138 <__wrap_vprintf+0x18>
10005190:	000f4240 	.word	0x000f4240
10005194:	200008f0 	.word	0x200008f0
10005198:	10004f29 	.word	0x10004f29
1000519c:	20000bc0 	.word	0x20000bc0
100051a0:	7fffffff 	.word	0x7fffffff

100051a4 <__wrap_printf>:
100051a4:	b40f      	push	{r0, r1, r2, r3}
100051a6:	b500      	push	{lr}
100051a8:	b083      	sub	sp, #12
100051aa:	a904      	add	r1, sp, #16
100051ac:	c901      	ldmia	r1!, {r0}
100051ae:	9101      	str	r1, [sp, #4]
100051b0:	f7ff ffb6 	bl	10005120 <__wrap_vprintf>
100051b4:	b003      	add	sp, #12
100051b6:	bc08      	pop	{r3}
100051b8:	b004      	add	sp, #16
100051ba:	4718      	bx	r3

100051bc <stdio_usb_init>:
100051bc:	2000      	movs	r0, #0
100051be:	4770      	bx	lr

100051c0 <_retrieve_unique_id_on_boot>:
100051c0:	b510      	push	{r4, lr}
100051c2:	4802      	ldr	r0, [pc, #8]	; (100051cc <_retrieve_unique_id_on_boot+0xc>)
100051c4:	f000 f80c 	bl	100051e0 <flash_get_unique_id>
100051c8:	bd10      	pop	{r4, pc}
100051ca:	46c0      	nop			; (mov r8, r8)
100051cc:	20000be0 	.word	0x20000be0

100051d0 <pico_get_unique_board_id>:
100051d0:	b510      	push	{r4, lr}
100051d2:	2208      	movs	r2, #8
100051d4:	4901      	ldr	r1, [pc, #4]	; (100051dc <pico_get_unique_board_id+0xc>)
100051d6:	f7fe fc53 	bl	10003a80 <__wrap___aeabi_memcpy>
100051da:	bd10      	pop	{r4, pc}
100051dc:	20000be0 	.word	0x20000be0

100051e0 <flash_get_unique_id>:
100051e0:	b530      	push	{r4, r5, lr}
100051e2:	2500      	movs	r5, #0
100051e4:	b089      	sub	sp, #36	; 0x24
100051e6:	0004      	movs	r4, r0
100051e8:	2209      	movs	r2, #9
100051ea:	2100      	movs	r1, #0
100051ec:	a801      	add	r0, sp, #4
100051ee:	9500      	str	r5, [sp, #0]
100051f0:	f7fe fc40 	bl	10003a74 <__wrap_memset>
100051f4:	2209      	movs	r2, #9
100051f6:	2100      	movs	r1, #0
100051f8:	a805      	add	r0, sp, #20
100051fa:	9504      	str	r5, [sp, #16]
100051fc:	f7fe fc3a 	bl	10003a74 <__wrap_memset>
10005200:	234b      	movs	r3, #75	; 0x4b
10005202:	466a      	mov	r2, sp
10005204:	4668      	mov	r0, sp
10005206:	7013      	strb	r3, [r2, #0]
10005208:	a904      	add	r1, sp, #16
1000520a:	220d      	movs	r2, #13
1000520c:	f000 f99c 	bl	10005548 <__flash_do_cmd_veneer>
10005210:	2115      	movs	r1, #21
10005212:	2208      	movs	r2, #8
10005214:	0020      	movs	r0, r4
10005216:	4469      	add	r1, sp
10005218:	f7fe fc32 	bl	10003a80 <__wrap___aeabi_memcpy>
1000521c:	b009      	add	sp, #36	; 0x24
1000521e:	bd30      	pop	{r4, r5, pc}

10005220 <atoi>:
10005220:	b510      	push	{r4, lr}
10005222:	220a      	movs	r2, #10
10005224:	2100      	movs	r1, #0
10005226:	f000 f975 	bl	10005514 <strtol>
1000522a:	bd10      	pop	{r4, pc}

1000522c <__errno>:
1000522c:	4b01      	ldr	r3, [pc, #4]	; (10005234 <__errno+0x8>)
1000522e:	6818      	ldr	r0, [r3, #0]
10005230:	4770      	bx	lr
10005232:	46c0      	nop			; (mov r8, r8)
10005234:	200004c0 	.word	0x200004c0

10005238 <memcmp>:
10005238:	b530      	push	{r4, r5, lr}
1000523a:	2a03      	cmp	r2, #3
1000523c:	d90c      	bls.n	10005258 <memcmp+0x20>
1000523e:	0003      	movs	r3, r0
10005240:	430b      	orrs	r3, r1
10005242:	079b      	lsls	r3, r3, #30
10005244:	d119      	bne.n	1000527a <memcmp+0x42>
10005246:	6803      	ldr	r3, [r0, #0]
10005248:	680c      	ldr	r4, [r1, #0]
1000524a:	42a3      	cmp	r3, r4
1000524c:	d115      	bne.n	1000527a <memcmp+0x42>
1000524e:	3a04      	subs	r2, #4
10005250:	3004      	adds	r0, #4
10005252:	3104      	adds	r1, #4
10005254:	2a03      	cmp	r2, #3
10005256:	d8f6      	bhi.n	10005246 <memcmp+0xe>
10005258:	1e55      	subs	r5, r2, #1
1000525a:	2a00      	cmp	r2, #0
1000525c:	d00b      	beq.n	10005276 <memcmp+0x3e>
1000525e:	2300      	movs	r3, #0
10005260:	e003      	b.n	1000526a <memcmp+0x32>
10005262:	1c5a      	adds	r2, r3, #1
10005264:	429d      	cmp	r5, r3
10005266:	d006      	beq.n	10005276 <memcmp+0x3e>
10005268:	0013      	movs	r3, r2
1000526a:	5cc2      	ldrb	r2, [r0, r3]
1000526c:	5ccc      	ldrb	r4, [r1, r3]
1000526e:	42a2      	cmp	r2, r4
10005270:	d0f7      	beq.n	10005262 <memcmp+0x2a>
10005272:	1b10      	subs	r0, r2, r4
10005274:	e000      	b.n	10005278 <memcmp+0x40>
10005276:	2000      	movs	r0, #0
10005278:	bd30      	pop	{r4, r5, pc}
1000527a:	1e55      	subs	r5, r2, #1
1000527c:	e7ef      	b.n	1000525e <memcmp+0x26>
1000527e:	46c0      	nop			; (mov r8, r8)

10005280 <strcmp>:
10005280:	4602      	mov	r2, r0
10005282:	b570      	push	{r4, r5, r6, lr}
10005284:	430a      	orrs	r2, r1
10005286:	0792      	lsls	r2, r2, #30
10005288:	d12a      	bne.n	100052e0 <strcmp+0x60>
1000528a:	4d1e      	ldr	r5, [pc, #120]	; (10005304 <strcmp+0x84>)
1000528c:	01ee      	lsls	r6, r5, #7
1000528e:	c804      	ldmia	r0!, {r2}
10005290:	c908      	ldmia	r1!, {r3}
10005292:	1b54      	subs	r4, r2, r5
10005294:	4394      	bics	r4, r2
10005296:	4034      	ands	r4, r6
10005298:	d017      	beq.n	100052ca <strcmp+0x4a>
1000529a:	b2d0      	uxtb	r0, r2
1000529c:	b2d9      	uxtb	r1, r3
1000529e:	1a40      	subs	r0, r0, r1
100052a0:	0621      	lsls	r1, r4, #24
100052a2:	4301      	orrs	r1, r0
100052a4:	d110      	bne.n	100052c8 <strcmp+0x48>
100052a6:	b290      	uxth	r0, r2
100052a8:	b299      	uxth	r1, r3
100052aa:	1a40      	subs	r0, r0, r1
100052ac:	0421      	lsls	r1, r4, #16
100052ae:	4301      	orrs	r1, r0
100052b0:	d10a      	bne.n	100052c8 <strcmp+0x48>
100052b2:	0210      	lsls	r0, r2, #8
100052b4:	0219      	lsls	r1, r3, #8
100052b6:	0a00      	lsrs	r0, r0, #8
100052b8:	0a09      	lsrs	r1, r1, #8
100052ba:	1a40      	subs	r0, r0, r1
100052bc:	0221      	lsls	r1, r4, #8
100052be:	4301      	orrs	r1, r0
100052c0:	d102      	bne.n	100052c8 <strcmp+0x48>
100052c2:	0e10      	lsrs	r0, r2, #24
100052c4:	0e19      	lsrs	r1, r3, #24
100052c6:	1a40      	subs	r0, r0, r1
100052c8:	bd70      	pop	{r4, r5, r6, pc}
100052ca:	429a      	cmp	r2, r3
100052cc:	d0df      	beq.n	1000528e <strcmp+0xe>
100052ce:	ba10      	rev	r0, r2
100052d0:	ba19      	rev	r1, r3
100052d2:	4288      	cmp	r0, r1
100052d4:	d901      	bls.n	100052da <strcmp+0x5a>
100052d6:	2001      	movs	r0, #1
100052d8:	bd70      	pop	{r4, r5, r6, pc}
100052da:	2000      	movs	r0, #0
100052dc:	43c0      	mvns	r0, r0
100052de:	bd70      	pop	{r4, r5, r6, pc}
100052e0:	7802      	ldrb	r2, [r0, #0]
100052e2:	780b      	ldrb	r3, [r1, #0]
100052e4:	3001      	adds	r0, #1
100052e6:	3101      	adds	r1, #1
100052e8:	2a00      	cmp	r2, #0
100052ea:	d009      	beq.n	10005300 <strcmp+0x80>
100052ec:	429a      	cmp	r2, r3
100052ee:	d107      	bne.n	10005300 <strcmp+0x80>
100052f0:	7802      	ldrb	r2, [r0, #0]
100052f2:	780b      	ldrb	r3, [r1, #0]
100052f4:	3001      	adds	r0, #1
100052f6:	3101      	adds	r1, #1
100052f8:	2a00      	cmp	r2, #0
100052fa:	d001      	beq.n	10005300 <strcmp+0x80>
100052fc:	429a      	cmp	r2, r3
100052fe:	d0ef      	beq.n	100052e0 <strcmp+0x60>
10005300:	1ad0      	subs	r0, r2, r3
10005302:	bd70      	pop	{r4, r5, r6, pc}
10005304:	01010101 	.word	0x01010101

10005308 <strlen>:
10005308:	b510      	push	{r4, lr}
1000530a:	0783      	lsls	r3, r0, #30
1000530c:	d00a      	beq.n	10005324 <strlen+0x1c>
1000530e:	0003      	movs	r3, r0
10005310:	2103      	movs	r1, #3
10005312:	e002      	b.n	1000531a <strlen+0x12>
10005314:	3301      	adds	r3, #1
10005316:	420b      	tst	r3, r1
10005318:	d005      	beq.n	10005326 <strlen+0x1e>
1000531a:	781a      	ldrb	r2, [r3, #0]
1000531c:	2a00      	cmp	r2, #0
1000531e:	d1f9      	bne.n	10005314 <strlen+0xc>
10005320:	1a18      	subs	r0, r3, r0
10005322:	bd10      	pop	{r4, pc}
10005324:	0003      	movs	r3, r0
10005326:	6819      	ldr	r1, [r3, #0]
10005328:	4a0c      	ldr	r2, [pc, #48]	; (1000535c <strlen+0x54>)
1000532a:	4c0d      	ldr	r4, [pc, #52]	; (10005360 <strlen+0x58>)
1000532c:	188a      	adds	r2, r1, r2
1000532e:	438a      	bics	r2, r1
10005330:	4222      	tst	r2, r4
10005332:	d10f      	bne.n	10005354 <strlen+0x4c>
10005334:	6859      	ldr	r1, [r3, #4]
10005336:	4a09      	ldr	r2, [pc, #36]	; (1000535c <strlen+0x54>)
10005338:	3304      	adds	r3, #4
1000533a:	188a      	adds	r2, r1, r2
1000533c:	438a      	bics	r2, r1
1000533e:	4222      	tst	r2, r4
10005340:	d108      	bne.n	10005354 <strlen+0x4c>
10005342:	6859      	ldr	r1, [r3, #4]
10005344:	4a05      	ldr	r2, [pc, #20]	; (1000535c <strlen+0x54>)
10005346:	3304      	adds	r3, #4
10005348:	188a      	adds	r2, r1, r2
1000534a:	438a      	bics	r2, r1
1000534c:	4222      	tst	r2, r4
1000534e:	d0f1      	beq.n	10005334 <strlen+0x2c>
10005350:	e000      	b.n	10005354 <strlen+0x4c>
10005352:	3301      	adds	r3, #1
10005354:	781a      	ldrb	r2, [r3, #0]
10005356:	2a00      	cmp	r2, #0
10005358:	d1fb      	bne.n	10005352 <strlen+0x4a>
1000535a:	e7e1      	b.n	10005320 <strlen+0x18>
1000535c:	fefefeff 	.word	0xfefefeff
10005360:	80808080 	.word	0x80808080

10005364 <strncpy>:
10005364:	b5f0      	push	{r4, r5, r6, r7, lr}
10005366:	000c      	movs	r4, r1
10005368:	4304      	orrs	r4, r0
1000536a:	0003      	movs	r3, r0
1000536c:	0007      	movs	r7, r0
1000536e:	07a4      	lsls	r4, r4, #30
10005370:	d112      	bne.n	10005398 <strncpy+0x34>
10005372:	2a03      	cmp	r2, #3
10005374:	d910      	bls.n	10005398 <strncpy+0x34>
10005376:	4c14      	ldr	r4, [pc, #80]	; (100053c8 <strncpy+0x64>)
10005378:	46a4      	mov	ip, r4
1000537a:	4667      	mov	r7, ip
1000537c:	680d      	ldr	r5, [r1, #0]
1000537e:	4c13      	ldr	r4, [pc, #76]	; (100053cc <strncpy+0x68>)
10005380:	001e      	movs	r6, r3
10005382:	192c      	adds	r4, r5, r4
10005384:	43ac      	bics	r4, r5
10005386:	423c      	tst	r4, r7
10005388:	d11b      	bne.n	100053c2 <strncpy+0x5e>
1000538a:	3304      	adds	r3, #4
1000538c:	3a04      	subs	r2, #4
1000538e:	001f      	movs	r7, r3
10005390:	3104      	adds	r1, #4
10005392:	6035      	str	r5, [r6, #0]
10005394:	2a03      	cmp	r2, #3
10005396:	d8f0      	bhi.n	1000537a <strncpy+0x16>
10005398:	2400      	movs	r4, #0
1000539a:	18be      	adds	r6, r7, r2
1000539c:	e006      	b.n	100053ac <strncpy+0x48>
1000539e:	5d0d      	ldrb	r5, [r1, r4]
100053a0:	3a01      	subs	r2, #1
100053a2:	553d      	strb	r5, [r7, r4]
100053a4:	1ab3      	subs	r3, r6, r2
100053a6:	3401      	adds	r4, #1
100053a8:	2d00      	cmp	r5, #0
100053aa:	d002      	beq.n	100053b2 <strncpy+0x4e>
100053ac:	2a00      	cmp	r2, #0
100053ae:	d1f6      	bne.n	1000539e <strncpy+0x3a>
100053b0:	bdf0      	pop	{r4, r5, r6, r7, pc}
100053b2:	2100      	movs	r1, #0
100053b4:	2a00      	cmp	r2, #0
100053b6:	d0fb      	beq.n	100053b0 <strncpy+0x4c>
100053b8:	7019      	strb	r1, [r3, #0]
100053ba:	3301      	adds	r3, #1
100053bc:	429e      	cmp	r6, r3
100053be:	d1fb      	bne.n	100053b8 <strncpy+0x54>
100053c0:	e7f6      	b.n	100053b0 <strncpy+0x4c>
100053c2:	001f      	movs	r7, r3
100053c4:	e7e8      	b.n	10005398 <strncpy+0x34>
100053c6:	46c0      	nop			; (mov r8, r8)
100053c8:	80808080 	.word	0x80808080
100053cc:	fefefeff 	.word	0xfefefeff

100053d0 <_strtol_l.part.0>:
100053d0:	b5f0      	push	{r4, r5, r6, r7, lr}
100053d2:	4657      	mov	r7, sl
100053d4:	464e      	mov	r6, r9
100053d6:	4645      	mov	r5, r8
100053d8:	46de      	mov	lr, fp
100053da:	4682      	mov	sl, r0
100053dc:	b5e0      	push	{r5, r6, r7, lr}
100053de:	4691      	mov	r9, r2
100053e0:	4688      	mov	r8, r1
100053e2:	001e      	movs	r6, r3
100053e4:	000a      	movs	r2, r1
100053e6:	2008      	movs	r0, #8
100053e8:	4f48      	ldr	r7, [pc, #288]	; (1000550c <_strtol_l.part.0+0x13c>)
100053ea:	b083      	sub	sp, #12
100053ec:	0013      	movs	r3, r2
100053ee:	781c      	ldrb	r4, [r3, #0]
100053f0:	1c55      	adds	r5, r2, #1
100053f2:	5d39      	ldrb	r1, [r7, r4]
100053f4:	002a      	movs	r2, r5
100053f6:	4208      	tst	r0, r1
100053f8:	d1f8      	bne.n	100053ec <_strtol_l.part.0+0x1c>
100053fa:	2c2d      	cmp	r4, #45	; 0x2d
100053fc:	d066      	beq.n	100054cc <_strtol_l.part.0+0xfc>
100053fe:	2c2b      	cmp	r4, #43	; 0x2b
10005400:	d029      	beq.n	10005456 <_strtol_l.part.0+0x86>
10005402:	4b43      	ldr	r3, [pc, #268]	; (10005510 <_strtol_l.part.0+0x140>)
10005404:	469b      	mov	fp, r3
10005406:	2300      	movs	r3, #0
10005408:	9301      	str	r3, [sp, #4]
1000540a:	2e00      	cmp	r6, #0
1000540c:	d02b      	beq.n	10005466 <_strtol_l.part.0+0x96>
1000540e:	2e10      	cmp	r6, #16
10005410:	d064      	beq.n	100054dc <_strtol_l.part.0+0x10c>
10005412:	0037      	movs	r7, r6
10005414:	0039      	movs	r1, r7
10005416:	4658      	mov	r0, fp
10005418:	f7fd fcbe 	bl	10002d98 <__wrap___aeabi_uidiv>
1000541c:	002b      	movs	r3, r5
1000541e:	468c      	mov	ip, r1
10005420:	2200      	movs	r2, #0
10005422:	2100      	movs	r1, #0
10005424:	e007      	b.n	10005436 <_strtol_l.part.0+0x66>
10005426:	4288      	cmp	r0, r1
10005428:	d312      	bcc.n	10005450 <_strtol_l.part.0+0x80>
1000542a:	d03f      	beq.n	100054ac <_strtol_l.part.0+0xdc>
1000542c:	2201      	movs	r2, #1
1000542e:	4379      	muls	r1, r7
10005430:	1869      	adds	r1, r5, r1
10005432:	781c      	ldrb	r4, [r3, #0]
10005434:	3301      	adds	r3, #1
10005436:	0025      	movs	r5, r4
10005438:	3d30      	subs	r5, #48	; 0x30
1000543a:	2d09      	cmp	r5, #9
1000543c:	d904      	bls.n	10005448 <_strtol_l.part.0+0x78>
1000543e:	3d11      	subs	r5, #17
10005440:	2d19      	cmp	r5, #25
10005442:	d815      	bhi.n	10005470 <_strtol_l.part.0+0xa0>
10005444:	3c37      	subs	r4, #55	; 0x37
10005446:	0025      	movs	r5, r4
10005448:	42ae      	cmp	r6, r5
1000544a:	dd19      	ble.n	10005480 <_strtol_l.part.0+0xb0>
1000544c:	2a00      	cmp	r2, #0
1000544e:	daea      	bge.n	10005426 <_strtol_l.part.0+0x56>
10005450:	2201      	movs	r2, #1
10005452:	4252      	negs	r2, r2
10005454:	e7ed      	b.n	10005432 <_strtol_l.part.0+0x62>
10005456:	782c      	ldrb	r4, [r5, #0]
10005458:	1c9d      	adds	r5, r3, #2
1000545a:	4b2d      	ldr	r3, [pc, #180]	; (10005510 <_strtol_l.part.0+0x140>)
1000545c:	469b      	mov	fp, r3
1000545e:	2300      	movs	r3, #0
10005460:	9301      	str	r3, [sp, #4]
10005462:	2e00      	cmp	r6, #0
10005464:	d1d3      	bne.n	1000540e <_strtol_l.part.0+0x3e>
10005466:	2c30      	cmp	r4, #48	; 0x30
10005468:	d046      	beq.n	100054f8 <_strtol_l.part.0+0x128>
1000546a:	270a      	movs	r7, #10
1000546c:	260a      	movs	r6, #10
1000546e:	e7d1      	b.n	10005414 <_strtol_l.part.0+0x44>
10005470:	0025      	movs	r5, r4
10005472:	3d61      	subs	r5, #97	; 0x61
10005474:	2d19      	cmp	r5, #25
10005476:	d803      	bhi.n	10005480 <_strtol_l.part.0+0xb0>
10005478:	3c57      	subs	r4, #87	; 0x57
1000547a:	0025      	movs	r5, r4
1000547c:	42ae      	cmp	r6, r5
1000547e:	dce5      	bgt.n	1000544c <_strtol_l.part.0+0x7c>
10005480:	2a00      	cmp	r2, #0
10005482:	db18      	blt.n	100054b6 <_strtol_l.part.0+0xe6>
10005484:	9801      	ldr	r0, [sp, #4]
10005486:	2800      	cmp	r0, #0
10005488:	d000      	beq.n	1000548c <_strtol_l.part.0+0xbc>
1000548a:	4249      	negs	r1, r1
1000548c:	4648      	mov	r0, r9
1000548e:	2800      	cmp	r0, #0
10005490:	d004      	beq.n	1000549c <_strtol_l.part.0+0xcc>
10005492:	2a00      	cmp	r2, #0
10005494:	d138      	bne.n	10005508 <_strtol_l.part.0+0x138>
10005496:	464b      	mov	r3, r9
10005498:	4642      	mov	r2, r8
1000549a:	601a      	str	r2, [r3, #0]
1000549c:	0008      	movs	r0, r1
1000549e:	b003      	add	sp, #12
100054a0:	bcf0      	pop	{r4, r5, r6, r7}
100054a2:	46bb      	mov	fp, r7
100054a4:	46b2      	mov	sl, r6
100054a6:	46a9      	mov	r9, r5
100054a8:	46a0      	mov	r8, r4
100054aa:	bdf0      	pop	{r4, r5, r6, r7, pc}
100054ac:	45ac      	cmp	ip, r5
100054ae:	dabd      	bge.n	1000542c <_strtol_l.part.0+0x5c>
100054b0:	2201      	movs	r2, #1
100054b2:	4252      	negs	r2, r2
100054b4:	e7bd      	b.n	10005432 <_strtol_l.part.0+0x62>
100054b6:	2222      	movs	r2, #34	; 0x22
100054b8:	4651      	mov	r1, sl
100054ba:	600a      	str	r2, [r1, #0]
100054bc:	464a      	mov	r2, r9
100054be:	4659      	mov	r1, fp
100054c0:	2a00      	cmp	r2, #0
100054c2:	d0eb      	beq.n	1000549c <_strtol_l.part.0+0xcc>
100054c4:	3b01      	subs	r3, #1
100054c6:	4698      	mov	r8, r3
100054c8:	4659      	mov	r1, fp
100054ca:	e7e4      	b.n	10005496 <_strtol_l.part.0+0xc6>
100054cc:	782c      	ldrb	r4, [r5, #0]
100054ce:	1c9d      	adds	r5, r3, #2
100054d0:	2380      	movs	r3, #128	; 0x80
100054d2:	061b      	lsls	r3, r3, #24
100054d4:	469b      	mov	fp, r3
100054d6:	2301      	movs	r3, #1
100054d8:	9301      	str	r3, [sp, #4]
100054da:	e796      	b.n	1000540a <_strtol_l.part.0+0x3a>
100054dc:	2c30      	cmp	r4, #48	; 0x30
100054de:	d104      	bne.n	100054ea <_strtol_l.part.0+0x11a>
100054e0:	2220      	movs	r2, #32
100054e2:	782b      	ldrb	r3, [r5, #0]
100054e4:	4393      	bics	r3, r2
100054e6:	2b58      	cmp	r3, #88	; 0x58
100054e8:	d001      	beq.n	100054ee <_strtol_l.part.0+0x11e>
100054ea:	2710      	movs	r7, #16
100054ec:	e792      	b.n	10005414 <_strtol_l.part.0+0x44>
100054ee:	786c      	ldrb	r4, [r5, #1]
100054f0:	2710      	movs	r7, #16
100054f2:	2610      	movs	r6, #16
100054f4:	3502      	adds	r5, #2
100054f6:	e78d      	b.n	10005414 <_strtol_l.part.0+0x44>
100054f8:	2220      	movs	r2, #32
100054fa:	782b      	ldrb	r3, [r5, #0]
100054fc:	4393      	bics	r3, r2
100054fe:	2b58      	cmp	r3, #88	; 0x58
10005500:	d0f5      	beq.n	100054ee <_strtol_l.part.0+0x11e>
10005502:	2708      	movs	r7, #8
10005504:	2608      	movs	r6, #8
10005506:	e785      	b.n	10005414 <_strtol_l.part.0+0x44>
10005508:	468b      	mov	fp, r1
1000550a:	e7db      	b.n	100054c4 <_strtol_l.part.0+0xf4>
1000550c:	100063d5 	.word	0x100063d5
10005510:	7fffffff 	.word	0x7fffffff

10005514 <strtol>:
10005514:	0013      	movs	r3, r2
10005516:	b510      	push	{r4, lr}
10005518:	2a01      	cmp	r2, #1
1000551a:	d009      	beq.n	10005530 <strtol+0x1c>
1000551c:	2a24      	cmp	r2, #36	; 0x24
1000551e:	d807      	bhi.n	10005530 <strtol+0x1c>
10005520:	4a06      	ldr	r2, [pc, #24]	; (1000553c <strtol+0x28>)
10005522:	6814      	ldr	r4, [r2, #0]
10005524:	000a      	movs	r2, r1
10005526:	0001      	movs	r1, r0
10005528:	0020      	movs	r0, r4
1000552a:	f7ff ff51 	bl	100053d0 <_strtol_l.part.0>
1000552e:	e004      	b.n	1000553a <strtol+0x26>
10005530:	f7ff fe7c 	bl	1000522c <__errno>
10005534:	2316      	movs	r3, #22
10005536:	6003      	str	r3, [r0, #0]
10005538:	2000      	movs	r0, #0
1000553a:	bd10      	pop	{r4, pc}
1000553c:	200004c0 	.word	0x200004c0

10005540 <_fini>:
10005540:	b5f8      	push	{r3, r4, r5, r6, r7, lr}
10005542:	46c0      	nop			; (mov r8, r8)
10005544:	0000      	movs	r0, r0
	...

10005548 <__flash_do_cmd_veneer>:
10005548:	b401      	push	{r0}
1000554a:	4802      	ldr	r0, [pc, #8]	; (10005554 <__flash_do_cmd_veneer+0xc>)
1000554c:	4684      	mov	ip, r0
1000554e:	bc01      	pop	{r0}
10005550:	4760      	bx	ip
10005552:	bf00      	nop
10005554:	20000259 	.word	0x20000259

10005558 <__spi_read_blocking_veneer>:
10005558:	b401      	push	{r0}
1000555a:	4802      	ldr	r0, [pc, #8]	; (10005564 <__spi_read_blocking_veneer+0xc>)
1000555c:	4684      	mov	ip, r0
1000555e:	bc01      	pop	{r0}
10005560:	4760      	bx	ip
10005562:	bf00      	nop
10005564:	200003f1 	.word	0x200003f1

10005568 <__mutex_exit_veneer>:
10005568:	b401      	push	{r0}
1000556a:	4802      	ldr	r0, [pc, #8]	; (10005574 <__mutex_exit_veneer+0xc>)
1000556c:	4684      	mov	ip, r0
1000556e:	bc01      	pop	{r0}
10005570:	4760      	bx	ip
10005572:	bf00      	nop
10005574:	20000195 	.word	0x20000195

10005578 <____aeabi_ldiv0_veneer>:
10005578:	b401      	push	{r0}
1000557a:	4802      	ldr	r0, [pc, #8]	; (10005584 <____aeabi_ldiv0_veneer+0xc>)
1000557c:	4684      	mov	ip, r0
1000557e:	bc01      	pop	{r0}
10005580:	4760      	bx	ip
10005582:	bf00      	nop
10005584:	20000465 	.word	0x20000465

10005588 <____aeabi_idiv0_veneer>:
10005588:	b401      	push	{r0}
1000558a:	4802      	ldr	r0, [pc, #8]	; (10005594 <____aeabi_idiv0_veneer+0xc>)
1000558c:	4684      	mov	ip, r0
1000558e:	bc01      	pop	{r0}
10005590:	4760      	bx	ip
10005592:	bf00      	nop
10005594:	20000465 	.word	0x20000465

10005598 <__spi_write_blocking_veneer>:
10005598:	b401      	push	{r0}
1000559a:	4802      	ldr	r0, [pc, #8]	; (100055a4 <__spi_write_blocking_veneer+0xc>)
1000559c:	4684      	mov	ip, r0
1000559e:	bc01      	pop	{r0}
100055a0:	4760      	bx	ip
100055a2:	bf00      	nop
100055a4:	200003a5 	.word	0x200003a5

100055a8 <__spi_write_read_blocking_veneer>:
100055a8:	b401      	push	{r0}
100055aa:	4802      	ldr	r0, [pc, #8]	; (100055b4 <__spi_write_read_blocking_veneer+0xc>)
100055ac:	4684      	mov	ip, r0
100055ae:	bc01      	pop	{r0}
100055b0:	4760      	bx	ip
100055b2:	bf00      	nop
100055b4:	20000331 	.word	0x20000331

100055b8 <__mutex_try_enter_block_until_veneer>:
100055b8:	b401      	push	{r0}
100055ba:	4802      	ldr	r0, [pc, #8]	; (100055c4 <__mutex_try_enter_block_until_veneer+0xc>)
100055bc:	4684      	mov	ip, r0
100055be:	bc01      	pop	{r0}
100055c0:	4760      	bx	ip
100055c2:	bf00      	nop
100055c4:	20000135 	.word	0x20000135

100055c8 <__pre_init_runtime_init_early_resets>:
100055c8:	10002b95                                .+..

100055cc <__pre_init_runtime_init_usb_power_down>:
100055cc:	10002bc1 10002d39 10003a65 100033dd     .+..9-..e:...3..
100055dc:	100039dd                                .9..

100055e0 <__pre_init_runtime_init_clocks>:
100055e0:	10002c61                                a,..

100055e4 <__pre_init_runtime_init_post_clock_resets>:
100055e4:	10002bdd                                .+..

100055e8 <__pre_init_runtime_init_rp2040_gpio_ie_disable>:
100055e8:	10002bfd                                .+..

100055ec <__pre_init_runtime_init_spin_locks_reset>:
100055ec:	10002c11                                .,..

100055f0 <__pre_init_runtime_init_mutex>:
100055f0:	10002001                                . ..

100055f4 <__pre_init_runtime_init_install_ram_vector_table>:
100055f4:	10002c19                                .,..

100055f8 <__pre_init_runtime_init_default_alarm_pool>:
100055f8:	10002385                                .#..

100055fc <__pre_init_first_per_core_initializer>:
100055fc:	10002b5d                                ]+..

10005600 <__pre_init_runtime_init_per_core_irq_priorities>:
10005600:	10001f55                                U...

10005604 <__init_array_start>:
10005604:	100051c1 	.word	0x100051c1

10005608 <__frame_dummy_init_array_entry>:
10005608:	100002b1                                ....

Disassembly of section .data:

200000c0 <mutex_enter_block_until>:
200000c0:	b5f0      	push	{r4, r5, r6, r7, lr}
200000c2:	464f      	mov	r7, r9
200000c4:	46d6      	mov	lr, sl
200000c6:	4646      	mov	r6, r8
200000c8:	b5c0      	push	{r6, r7, lr}
200000ca:	001f      	movs	r7, r3
200000cc:	23d0      	movs	r3, #208	; 0xd0
200000ce:	061b      	lsls	r3, r3, #24
200000d0:	681b      	ldr	r3, [r3, #0]
200000d2:	0004      	movs	r4, r0
200000d4:	469a      	mov	sl, r3
200000d6:	2300      	movs	r3, #0
200000d8:	4690      	mov	r8, r2
200000da:	4699      	mov	r9, r3
200000dc:	e00c      	b.n	200000f8 <mutex_enter_block_until+0x38>
200000de:	6822      	ldr	r2, [r4, #0]
200000e0:	f3bf 8f5f 	dmb	sy
200000e4:	4649      	mov	r1, r9
200000e6:	6011      	str	r1, [r2, #0]
200000e8:	f383 8810 	msr	PRIMASK, r3
200000ec:	4640      	mov	r0, r8
200000ee:	0039      	movs	r1, r7
200000f0:	f000 f9ba 	bl	20000468 <__best_effort_wfe_or_timeout_veneer>
200000f4:	2800      	cmp	r0, #0
200000f6:	d11a      	bne.n	2000012e <mutex_enter_block_until+0x6e>
200000f8:	6826      	ldr	r6, [r4, #0]
200000fa:	f3ef 8310 	mrs	r3, PRIMASK
200000fe:	b672      	cpsid	i
20000100:	6835      	ldr	r5, [r6, #0]
20000102:	2d00      	cmp	r5, #0
20000104:	d0fc      	beq.n	20000100 <mutex_enter_block_until+0x40>
20000106:	f3bf 8f5f 	dmb	sy
2000010a:	7925      	ldrb	r5, [r4, #4]
2000010c:	2d7f      	cmp	r5, #127	; 0x7f
2000010e:	d9e6      	bls.n	200000de <mutex_enter_block_until+0x1e>
20000110:	4652      	mov	r2, sl
20000112:	7122      	strb	r2, [r4, #4]
20000114:	6822      	ldr	r2, [r4, #0]
20000116:	f3bf 8f5f 	dmb	sy
2000011a:	2100      	movs	r1, #0
2000011c:	6011      	str	r1, [r2, #0]
2000011e:	f383 8810 	msr	PRIMASK, r3
20000122:	2001      	movs	r0, #1
20000124:	bce0      	pop	{r5, r6, r7}
20000126:	46ba      	mov	sl, r7
20000128:	46b1      	mov	r9, r6
2000012a:	46a8      	mov	r8, r5
2000012c:	bdf0      	pop	{r4, r5, r6, r7, pc}
2000012e:	2000      	movs	r0, #0
20000130:	e7f8      	b.n	20000124 <mutex_enter_block_until+0x64>
20000132:	46c0      	nop			; (mov r8, r8)

20000134 <mutex_try_enter_block_until>:
20000134:	b570      	push	{r4, r5, r6, lr}
20000136:	0001      	movs	r1, r0
20000138:	6804      	ldr	r4, [r0, #0]
2000013a:	f3ef 8c10 	mrs	ip, PRIMASK
2000013e:	b672      	cpsid	i
20000140:	6820      	ldr	r0, [r4, #0]
20000142:	2800      	cmp	r0, #0
20000144:	d0fc      	beq.n	20000140 <mutex_try_enter_block_until+0xc>
20000146:	f3bf 8f5f 	dmb	sy
2000014a:	2404      	movs	r4, #4
2000014c:	570c      	ldrsb	r4, [r1, r4]
2000014e:	2c00      	cmp	r4, #0
20000150:	db12      	blt.n	20000178 <mutex_try_enter_block_until+0x44>
20000152:	6808      	ldr	r0, [r1, #0]
20000154:	f3bf 8f5f 	dmb	sy
20000158:	2500      	movs	r5, #0
2000015a:	6005      	str	r5, [r0, #0]
2000015c:	f38c 8810 	msr	PRIMASK, ip
20000160:	20d0      	movs	r0, #208	; 0xd0
20000162:	2500      	movs	r5, #0
20000164:	0600      	lsls	r0, r0, #24
20000166:	5745      	ldrsb	r5, [r0, r5]
20000168:	2000      	movs	r0, #0
2000016a:	42a5      	cmp	r5, r4
2000016c:	d100      	bne.n	20000170 <mutex_try_enter_block_until+0x3c>
2000016e:	bd70      	pop	{r4, r5, r6, pc}
20000170:	0008      	movs	r0, r1
20000172:	f7ff ffa5 	bl	200000c0 <mutex_enter_block_until>
20000176:	e7fa      	b.n	2000016e <mutex_try_enter_block_until+0x3a>
20000178:	23d0      	movs	r3, #208	; 0xd0
2000017a:	061b      	lsls	r3, r3, #24
2000017c:	681b      	ldr	r3, [r3, #0]
2000017e:	710b      	strb	r3, [r1, #4]
20000180:	680b      	ldr	r3, [r1, #0]
20000182:	f3bf 8f5f 	dmb	sy
20000186:	2200      	movs	r2, #0
20000188:	601a      	str	r2, [r3, #0]
2000018a:	f38c 8810 	msr	PRIMASK, ip
2000018e:	2001      	movs	r0, #1
20000190:	e7ed      	b.n	2000016e <mutex_try_enter_block_until+0x3a>
20000192:	46c0      	nop			; (mov r8, r8)

20000194 <mutex_exit>:
20000194:	6802      	ldr	r2, [r0, #0]
20000196:	f3ef 8110 	mrs	r1, PRIMASK
2000019a:	b672      	cpsid	i
2000019c:	6813      	ldr	r3, [r2, #0]
2000019e:	2b00      	cmp	r3, #0
200001a0:	d0fc      	beq.n	2000019c <mutex_exit+0x8>
200001a2:	f3bf 8f5f 	dmb	sy
200001a6:	23ff      	movs	r3, #255	; 0xff
200001a8:	7103      	strb	r3, [r0, #4]
200001aa:	6803      	ldr	r3, [r0, #0]
200001ac:	f3bf 8f5f 	dmb	sy
200001b0:	2200      	movs	r2, #0
200001b2:	601a      	str	r2, [r3, #0]
200001b4:	f381 8810 	msr	PRIMASK, r1
200001b8:	bf40      	sev
200001ba:	4770      	bx	lr

200001bc <flash_init_boot2_copyout>:
200001bc:	b510      	push	{r4, lr}
200001be:	4c08      	ldr	r4, [pc, #32]	; (200001e0 <flash_init_boot2_copyout+0x24>)
200001c0:	7823      	ldrb	r3, [r4, #0]
200001c2:	2b00      	cmp	r3, #0
200001c4:	d10a      	bne.n	200001dc <flash_init_boot2_copyout+0x20>
200001c6:	2380      	movs	r3, #128	; 0x80
200001c8:	4806      	ldr	r0, [pc, #24]	; (200001e4 <flash_init_boot2_copyout+0x28>)
200001ca:	4907      	ldr	r1, [pc, #28]	; (200001e8 <flash_init_boot2_copyout+0x2c>)
200001cc:	055b      	lsls	r3, r3, #21
200001ce:	681a      	ldr	r2, [r3, #0]
200001d0:	50c2      	str	r2, [r0, r3]
200001d2:	3304      	adds	r3, #4
200001d4:	428b      	cmp	r3, r1
200001d6:	d1fa      	bne.n	200001ce <flash_init_boot2_copyout+0x12>
200001d8:	2301      	movs	r3, #1
200001da:	7023      	strb	r3, [r4, #0]
200001dc:	bd10      	pop	{r4, pc}
200001de:	46c0      	nop			; (mov r8, r8)
200001e0:	20001f24 	.word	0x20001f24
200001e4:	10000a94 	.word	0x10000a94
200001e8:	10000100 	.word	0x10000100

200001ec <flash_enable_xip_via_boot2>:
200001ec:	b510      	push	{r4, lr}
200001ee:	4b02      	ldr	r3, [pc, #8]	; (200001f8 <flash_enable_xip_via_boot2+0xc>)
200001f0:	3301      	adds	r3, #1
200001f2:	4798      	blx	r3
200001f4:	bd10      	pop	{r4, pc}
200001f6:	46c0      	nop			; (mov r8, r8)
200001f8:	20000a94 	.word	0x20000a94

200001fc <flash_save_hardware_state>:
200001fc:	2300      	movs	r3, #0
200001fe:	4904      	ldr	r1, [pc, #16]	; (20000210 <flash_save_hardware_state+0x14>)
20000200:	009a      	lsls	r2, r3, #2
20000202:	1851      	adds	r1, r2, r1
20000204:	6809      	ldr	r1, [r1, #0]
20000206:	3301      	adds	r3, #1
20000208:	5081      	str	r1, [r0, r2]
2000020a:	2b06      	cmp	r3, #6
2000020c:	d1f7      	bne.n	200001fe <flash_save_hardware_state+0x2>
2000020e:	4770      	bx	lr
20000210:	40020004 	.word	0x40020004

20000214 <flash_restore_hardware_state>:
20000214:	2200      	movs	r2, #0
20000216:	b510      	push	{r4, lr}
20000218:	4c04      	ldr	r4, [pc, #16]	; (2000022c <flash_restore_hardware_state+0x18>)
2000021a:	0093      	lsls	r3, r2, #2
2000021c:	46a4      	mov	ip, r4
2000021e:	58c1      	ldr	r1, [r0, r3]
20000220:	3201      	adds	r2, #1
20000222:	4463      	add	r3, ip
20000224:	6019      	str	r1, [r3, #0]
20000226:	2a06      	cmp	r2, #6
20000228:	d1f6      	bne.n	20000218 <flash_restore_hardware_state+0x4>
2000022a:	bd10      	pop	{r4, pc}
2000022c:	40020004 	.word	0x40020004

20000230 <flash_cs_force>:
20000230:	1e43      	subs	r3, r0, #1
20000232:	4198      	sbcs	r0, r3
20000234:	2380      	movs	r3, #128	; 0x80
20000236:	009b      	lsls	r3, r3, #2
20000238:	469c      	mov	ip, r3
2000023a:	4b05      	ldr	r3, [pc, #20]	; (20000250 <flash_cs_force+0x20>)
2000023c:	0200      	lsls	r0, r0, #8
2000023e:	681b      	ldr	r3, [r3, #0]
20000240:	4460      	add	r0, ip
20000242:	4058      	eors	r0, r3
20000244:	23c0      	movs	r3, #192	; 0xc0
20000246:	009b      	lsls	r3, r3, #2
20000248:	4018      	ands	r0, r3
2000024a:	4b02      	ldr	r3, [pc, #8]	; (20000254 <flash_cs_force+0x24>)
2000024c:	6018      	str	r0, [r3, #0]
2000024e:	4770      	bx	lr
20000250:	4001800c 	.word	0x4001800c
20000254:	4001900c 	.word	0x4001900c

20000258 <flash_do_cmd>:
20000258:	2314      	movs	r3, #20
2000025a:	b5f0      	push	{r4, r5, r6, r7, lr}
2000025c:	46d6      	mov	lr, sl
2000025e:	464f      	mov	r7, r9
20000260:	4646      	mov	r6, r8
20000262:	469a      	mov	sl, r3
20000264:	b5c0      	push	{r6, r7, lr}
20000266:	4681      	mov	r9, r0
20000268:	8818      	ldrh	r0, [r3, #0]
2000026a:	3304      	adds	r3, #4
2000026c:	b086      	sub	sp, #24
2000026e:	4698      	mov	r8, r3
20000270:	000e      	movs	r6, r1
20000272:	881b      	ldrh	r3, [r3, #0]
20000274:	492b      	ldr	r1, [pc, #172]	; (20000324 <flash_do_cmd+0xcc>)
20000276:	0014      	movs	r4, r2
20000278:	4798      	blx	r3
2000027a:	4653      	mov	r3, sl
2000027c:	0007      	movs	r7, r0
2000027e:	8818      	ldrh	r0, [r3, #0]
20000280:	4643      	mov	r3, r8
20000282:	4929      	ldr	r1, [pc, #164]	; (20000328 <flash_do_cmd+0xd0>)
20000284:	881b      	ldrh	r3, [r3, #0]
20000286:	4798      	blx	r3
20000288:	4653      	mov	r3, sl
2000028a:	0005      	movs	r5, r0
2000028c:	8818      	ldrh	r0, [r3, #0]
2000028e:	4643      	mov	r3, r8
20000290:	4926      	ldr	r1, [pc, #152]	; (2000032c <flash_do_cmd+0xd4>)
20000292:	881b      	ldrh	r3, [r3, #0]
20000294:	4798      	blx	r3
20000296:	4680      	mov	r8, r0
20000298:	f7ff ff90 	bl	200001bc <flash_init_boot2_copyout>
2000029c:	4668      	mov	r0, sp
2000029e:	f7ff ffad 	bl	200001fc <flash_save_hardware_state>
200002a2:	47b8      	blx	r7
200002a4:	47a8      	blx	r5
200002a6:	2000      	movs	r0, #0
200002a8:	f7ff ffc2 	bl	20000230 <flash_cs_force>
200002ac:	2c00      	cmp	r4, #0
200002ae:	d01b      	beq.n	200002e8 <flash_do_cmd+0x90>
200002b0:	21c0      	movs	r1, #192	; 0xc0
200002b2:	0022      	movs	r2, r4
200002b4:	2708      	movs	r7, #8
200002b6:	2002      	movs	r0, #2
200002b8:	0549      	lsls	r1, r1, #21
200002ba:	003d      	movs	r5, r7
200002bc:	6a8b      	ldr	r3, [r1, #40]	; 0x28
200002be:	401d      	ands	r5, r3
200002c0:	4218      	tst	r0, r3
200002c2:	d00b      	beq.n	200002dc <flash_do_cmd+0x84>
200002c4:	2c00      	cmp	r4, #0
200002c6:	d009      	beq.n	200002dc <flash_do_cmd+0x84>
200002c8:	1b13      	subs	r3, r2, r4
200002ca:	2b0d      	cmp	r3, #13
200002cc:	d824      	bhi.n	20000318 <flash_do_cmd+0xc0>
200002ce:	464b      	mov	r3, r9
200002d0:	781b      	ldrb	r3, [r3, #0]
200002d2:	3c01      	subs	r4, #1
200002d4:	660b      	str	r3, [r1, #96]	; 0x60
200002d6:	2301      	movs	r3, #1
200002d8:	469c      	mov	ip, r3
200002da:	44e1      	add	r9, ip
200002dc:	0023      	movs	r3, r4
200002de:	2d00      	cmp	r5, #0
200002e0:	d111      	bne.n	20000306 <flash_do_cmd+0xae>
200002e2:	4313      	orrs	r3, r2
200002e4:	2b00      	cmp	r3, #0
200002e6:	d1e8      	bne.n	200002ba <flash_do_cmd+0x62>
200002e8:	2001      	movs	r0, #1
200002ea:	f7ff ffa1 	bl	20000230 <flash_cs_force>
200002ee:	47c0      	blx	r8
200002f0:	f7ff ff7c 	bl	200001ec <flash_enable_xip_via_boot2>
200002f4:	4668      	mov	r0, sp
200002f6:	f7ff ff8d 	bl	20000214 <flash_restore_hardware_state>
200002fa:	b006      	add	sp, #24
200002fc:	bce0      	pop	{r5, r6, r7}
200002fe:	46ba      	mov	sl, r7
20000300:	46b1      	mov	r9, r6
20000302:	46a8      	mov	r8, r5
20000304:	bdf0      	pop	{r4, r5, r6, r7, pc}
20000306:	2a00      	cmp	r2, #0
20000308:	d0ec      	beq.n	200002e4 <flash_do_cmd+0x8c>
2000030a:	6e0b      	ldr	r3, [r1, #96]	; 0x60
2000030c:	3a01      	subs	r2, #1
2000030e:	7033      	strb	r3, [r6, #0]
20000310:	0013      	movs	r3, r2
20000312:	3601      	adds	r6, #1
20000314:	4323      	orrs	r3, r4
20000316:	e7e5      	b.n	200002e4 <flash_do_cmd+0x8c>
20000318:	2d00      	cmp	r5, #0
2000031a:	d0ce      	beq.n	200002ba <flash_do_cmd+0x62>
2000031c:	2a00      	cmp	r2, #0
2000031e:	d0cc      	beq.n	200002ba <flash_do_cmd+0x62>
20000320:	e7f3      	b.n	2000030a <flash_do_cmd+0xb2>
20000322:	46c0      	nop			; (mov r8, r8)
20000324:	00004649 	.word	0x00004649
20000328:	00005845 	.word	0x00005845
2000032c:	00004346 	.word	0x00004346

20000330 <spi_write_read_blocking>:
20000330:	b5f0      	push	{r4, r5, r6, r7, lr}
20000332:	464f      	mov	r7, r9
20000334:	4646      	mov	r6, r8
20000336:	46d6      	mov	lr, sl
20000338:	4689      	mov	r9, r1
2000033a:	b5c0      	push	{r6, r7, lr}
2000033c:	0006      	movs	r6, r0
2000033e:	1e18      	subs	r0, r3, #0
20000340:	d01b      	beq.n	2000037a <spi_write_read_blocking+0x4a>
20000342:	001d      	movs	r5, r3
20000344:	001c      	movs	r4, r3
20000346:	2302      	movs	r3, #2
20000348:	4698      	mov	r8, r3
2000034a:	3302      	adds	r3, #2
2000034c:	469c      	mov	ip, r3
2000034e:	2d00      	cmp	r5, #0
20000350:	d018      	beq.n	20000384 <spi_write_read_blocking+0x54>
20000352:	002b      	movs	r3, r5
20000354:	3308      	adds	r3, #8
20000356:	4641      	mov	r1, r8
20000358:	68f7      	ldr	r7, [r6, #12]
2000035a:	4239      	tst	r1, r7
2000035c:	d01f      	beq.n	2000039e <spi_write_read_blocking+0x6e>
2000035e:	42a3      	cmp	r3, r4
20000360:	d91d      	bls.n	2000039e <spi_write_read_blocking+0x6e>
20000362:	2101      	movs	r1, #1
20000364:	464b      	mov	r3, r9
20000366:	468a      	mov	sl, r1
20000368:	781b      	ldrb	r3, [r3, #0]
2000036a:	3d01      	subs	r5, #1
2000036c:	60b3      	str	r3, [r6, #8]
2000036e:	44d1      	add	r9, sl
20000370:	002b      	movs	r3, r5
20000372:	2c00      	cmp	r4, #0
20000374:	d108      	bne.n	20000388 <spi_write_read_blocking+0x58>
20000376:	2b00      	cmp	r3, #0
20000378:	d1e9      	bne.n	2000034e <spi_write_read_blocking+0x1e>
2000037a:	bce0      	pop	{r5, r6, r7}
2000037c:	46ba      	mov	sl, r7
2000037e:	46b1      	mov	r9, r6
20000380:	46a8      	mov	r8, r5
20000382:	bdf0      	pop	{r4, r5, r6, r7, pc}
20000384:	2c00      	cmp	r4, #0
20000386:	d0f8      	beq.n	2000037a <spi_write_read_blocking+0x4a>
20000388:	4663      	mov	r3, ip
2000038a:	68f7      	ldr	r7, [r6, #12]
2000038c:	423b      	tst	r3, r7
2000038e:	d0de      	beq.n	2000034e <spi_write_read_blocking+0x1e>
20000390:	68b3      	ldr	r3, [r6, #8]
20000392:	3c01      	subs	r4, #1
20000394:	7013      	strb	r3, [r2, #0]
20000396:	0023      	movs	r3, r4
20000398:	3201      	adds	r2, #1
2000039a:	432b      	orrs	r3, r5
2000039c:	e7eb      	b.n	20000376 <spi_write_read_blocking+0x46>
2000039e:	2c00      	cmp	r4, #0
200003a0:	d1f2      	bne.n	20000388 <spi_write_read_blocking+0x58>
200003a2:	e7d8      	b.n	20000356 <spi_write_read_blocking+0x26>

200003a4 <spi_write_blocking>:
200003a4:	b530      	push	{r4, r5, lr}
200003a6:	0004      	movs	r4, r0
200003a8:	1e10      	subs	r0, r2, #0
200003aa:	d00a      	beq.n	200003c2 <spi_write_blocking+0x1e>
200003ac:	000a      	movs	r2, r1
200003ae:	180d      	adds	r5, r1, r0
200003b0:	2102      	movs	r1, #2
200003b2:	68e3      	ldr	r3, [r4, #12]
200003b4:	4219      	tst	r1, r3
200003b6:	d0fc      	beq.n	200003b2 <spi_write_blocking+0xe>
200003b8:	7813      	ldrb	r3, [r2, #0]
200003ba:	3201      	adds	r2, #1
200003bc:	60a3      	str	r3, [r4, #8]
200003be:	4295      	cmp	r5, r2
200003c0:	d1f7      	bne.n	200003b2 <spi_write_blocking+0xe>
200003c2:	68e3      	ldr	r3, [r4, #12]
200003c4:	075b      	lsls	r3, r3, #29
200003c6:	d504      	bpl.n	200003d2 <spi_write_blocking+0x2e>
200003c8:	2104      	movs	r1, #4
200003ca:	68a3      	ldr	r3, [r4, #8]
200003cc:	68e3      	ldr	r3, [r4, #12]
200003ce:	4219      	tst	r1, r3
200003d0:	d1fb      	bne.n	200003ca <spi_write_blocking+0x26>
200003d2:	2110      	movs	r1, #16
200003d4:	68e3      	ldr	r3, [r4, #12]
200003d6:	4219      	tst	r1, r3
200003d8:	d1fc      	bne.n	200003d4 <spi_write_blocking+0x30>
200003da:	68e3      	ldr	r3, [r4, #12]
200003dc:	075b      	lsls	r3, r3, #29
200003de:	d504      	bpl.n	200003ea <spi_write_blocking+0x46>
200003e0:	2104      	movs	r1, #4
200003e2:	68a3      	ldr	r3, [r4, #8]
200003e4:	68e3      	ldr	r3, [r4, #12]
200003e6:	4219      	tst	r1, r3
200003e8:	d1fb      	bne.n	200003e2 <spi_write_blocking+0x3e>
200003ea:	2301      	movs	r3, #1
200003ec:	6223      	str	r3, [r4, #32]
200003ee:	bd30      	pop	{r4, r5, pc}

200003f0 <spi_read_blocking>:
200003f0:	b5f0      	push	{r4, r5, r6, r7, lr}
200003f2:	4647      	mov	r7, r8
200003f4:	46ce      	mov	lr, r9
200003f6:	0005      	movs	r5, r0
200003f8:	4688      	mov	r8, r1
200003fa:	0018      	movs	r0, r3
200003fc:	b580      	push	{r7, lr}
200003fe:	2b00      	cmp	r3, #0
20000400:	d017      	beq.n	20000432 <spi_read_blocking+0x42>
20000402:	001e      	movs	r6, r3
20000404:	001c      	movs	r4, r3
20000406:	2302      	movs	r3, #2
20000408:	469c      	mov	ip, r3
2000040a:	3302      	adds	r3, #2
2000040c:	4699      	mov	r9, r3
2000040e:	2e00      	cmp	r6, #0
20000410:	d013      	beq.n	2000043a <spi_read_blocking+0x4a>
20000412:	0033      	movs	r3, r6
20000414:	3308      	adds	r3, #8
20000416:	4661      	mov	r1, ip
20000418:	68ef      	ldr	r7, [r5, #12]
2000041a:	4239      	tst	r1, r7
2000041c:	d01a      	beq.n	20000454 <spi_read_blocking+0x64>
2000041e:	42a3      	cmp	r3, r4
20000420:	d918      	bls.n	20000454 <spi_read_blocking+0x64>
20000422:	4643      	mov	r3, r8
20000424:	3e01      	subs	r6, #1
20000426:	60ab      	str	r3, [r5, #8]
20000428:	0033      	movs	r3, r6
2000042a:	2c00      	cmp	r4, #0
2000042c:	d114      	bne.n	20000458 <spi_read_blocking+0x68>
2000042e:	2b00      	cmp	r3, #0
20000430:	d1ed      	bne.n	2000040e <spi_read_blocking+0x1e>
20000432:	bcc0      	pop	{r6, r7}
20000434:	46b9      	mov	r9, r7
20000436:	46b0      	mov	r8, r6
20000438:	bdf0      	pop	{r4, r5, r6, r7, pc}
2000043a:	2c00      	cmp	r4, #0
2000043c:	d0f9      	beq.n	20000432 <spi_read_blocking+0x42>
2000043e:	4649      	mov	r1, r9
20000440:	68eb      	ldr	r3, [r5, #12]
20000442:	4219      	tst	r1, r3
20000444:	d0f9      	beq.n	2000043a <spi_read_blocking+0x4a>
20000446:	68ab      	ldr	r3, [r5, #8]
20000448:	3c01      	subs	r4, #1
2000044a:	7013      	strb	r3, [r2, #0]
2000044c:	0023      	movs	r3, r4
2000044e:	3201      	adds	r2, #1
20000450:	4333      	orrs	r3, r6
20000452:	e7ec      	b.n	2000042e <spi_read_blocking+0x3e>
20000454:	2c00      	cmp	r4, #0
20000456:	d0de      	beq.n	20000416 <spi_read_blocking+0x26>
20000458:	4649      	mov	r1, r9
2000045a:	68eb      	ldr	r3, [r5, #12]
2000045c:	4219      	tst	r1, r3
2000045e:	d0d6      	beq.n	2000040e <spi_read_blocking+0x1e>
20000460:	e7f1      	b.n	20000446 <spi_read_blocking+0x56>
20000462:	46c0      	nop			; (mov r8, r8)

20000464 <__aeabi_idiv0>:
20000464:	4770      	bx	lr
20000466:	46c0      	nop			; (mov r8, r8)

20000468 <__best_effort_wfe_or_timeout_veneer>:
20000468:	b401      	push	{r0}
2000046a:	4802      	ldr	r0, [pc, #8]	; (20000474 <__best_effort_wfe_or_timeout_veneer+0xc>)
2000046c:	4684      	mov	ip, r0
2000046e:	bc01      	pop	{r0}
20000470:	4760      	bx	ip
20000472:	bf00      	nop
20000474:	10002651 	.word	0x10002651

20000478 <striped_spin_lock_num>:
20000478:	00000010                                ....

2000047c <default_alarm_pool>:
	...
20000490:	200008f8 00000000 00000000 00000000     ... ............

200004a0 <aeabi_bits_funcs>:
200004a0:	00003350 	.word	0x00003350
200004a4:	0000334c 	.word	0x0000334c
200004a8:	00003354 	.word	0x00003354
200004ac:	00003352 	.word	0x00003352

200004b0 <aeabi_bits_funcs_end>:
200004b0:	0000534d 	.word	0x0000534d
200004b4:	0000434d 	.word	0x0000434d
200004b8:	00003453 	.word	0x00003453
200004bc:	00003443 	.word	0x00003443

200004c0 <_impure_ptr>:
200004c0:	200004c8 00000000                       ... ....

200004c8 <impure_data>:
200004c8:	00000000 200007b4 2000081c 20000884     ....... ... ... 
	...
20000570:	00000001 00000000 abcd330e e66d1234     .........3..4.m.
20000580:	0005deec 0000000b 00000000 00000000     ................
	...

200008f0 <print_mutex>:
	...
